; ModuleID = '/home/lucas/DependableSystemsLab/benchmarks/fluidanimate/fi/llfi-O1/fluidanimate.ll'
target datalayout = "e-p:64:64:64-i1:8:8-i8:8:8-i16:16:16-i32:32:32-i64:64:64-f32:32:32-f64:64:64-v64:64:64-v128:128:128-a0:0:64-s0:64:64-f80:128:128-n8:16:32:64-S128"
target triple = "x86_64-unknown-linux-gnu"

%"class.std::ios_base::Init" = type { i8 }
%class.Vec3 = type { float, float, float }
%struct.Cell = type { [16 x %class.Vec3], [16 x %class.Vec3], [16 x %class.Vec3], [16 x %class.Vec3], [16 x float] }
%"class.std::basic_ostream" = type { i32 (...)**, %"class.std::basic_ios" }
%"class.std::basic_ios" = type { %"class.std::ios_base", %"class.std::basic_ostream"*, i8, i8, %"class.std::basic_streambuf"*, %"class.std::ctype"*, %"class.std::num_put"*, %"class.std::num_get"* }
%"class.std::ios_base" = type { i32 (...)**, i64, i64, i32, i32, i32, %"struct.std::ios_base::_Callback_list"*, %"struct.std::ios_base::_Words", [8 x %"struct.std::ios_base::_Words"], i32, %"struct.std::ios_base::_Words"*, %"class.std::locale" }
%"struct.std::ios_base::_Callback_list" = type { %"struct.std::ios_base::_Callback_list"*, void (i32, %"class.std::ios_base"*, i32)*, i32, i32 }
%"struct.std::ios_base::_Words" = type { i8*, i64 }
%"class.std::locale" = type { %"class.std::locale::_Impl"* }
%"class.std::locale::_Impl" = type { i32, %"class.std::locale::facet"**, i64, %"class.std::locale::facet"**, i8** }
%"class.std::locale::facet" = type { i32 (...)**, i32 }
%"class.std::basic_streambuf" = type { i32 (...)**, i8*, i8*, i8*, i8*, i8*, i8*, %"class.std::locale" }
%"class.std::ctype" = type { %"class.std::locale::facet", %struct.__locale_struct*, i8, i32*, i32*, i16*, i8, [256 x i8], [256 x i8], i8 }
%struct.__locale_struct = type { [13 x %struct.__locale_data*], i16*, i32*, i32*, [13 x i8*] }
%struct.__locale_data = type opaque
%"class.std::num_put" = type { %"class.std::locale::facet" }
%"class.std::num_get" = type { %"class.std::locale::facet" }
%"class.std::basic_ifstream" = type { %"class.std::basic_istream.base", %"class.std::basic_filebuf", %"class.std::basic_ios" }
%"class.std::basic_istream.base" = type { i32 (...)**, i64 }
%"class.std::basic_filebuf" = type { %"class.std::basic_streambuf", %union.pthread_mutex_t, %"class.std::__basic_file", i32, %struct.__mbstate_t, %struct.__mbstate_t, %struct.__mbstate_t, i8*, i64, i8, i8, i8, i8, i8*, i8*, i8, %"class.std::codecvt"*, i8*, i64, i8*, i8* }
%union.pthread_mutex_t = type { %"struct.<anonymous union>::__pthread_mutex_s" }
%"struct.<anonymous union>::__pthread_mutex_s" = type { i32, i32, i32, i32, i32, i32, %struct.__pthread_internal_list }
%struct.__pthread_internal_list = type { %struct.__pthread_internal_list*, %struct.__pthread_internal_list* }
%"class.std::__basic_file" = type { %struct._IO_FILE*, i8 }
%struct._IO_FILE = type { i32, i8*, i8*, i8*, i8*, i8*, i8*, i8*, i8*, i8*, i8*, i8*, %struct._IO_marker*, %struct._IO_FILE*, i32, i32, i64, i16, i8, [1 x i8], i8*, i64, i8*, i8*, i8*, i8*, i64, i32, [20 x i8] }
%struct._IO_marker = type { %struct._IO_marker*, %struct._IO_FILE*, i32 }
%struct.__mbstate_t = type { i32, %union.anon }
%union.anon = type { i32 }
%"class.std::codecvt" = type { %"class.std::__codecvt_abstract_base", %struct.__locale_struct* }
%"class.std::__codecvt_abstract_base" = type { %"class.std::locale::facet" }
%"class.std::basic_istream" = type { i32 (...)**, i64, %"class.std::basic_ios" }
%"class.std::basic_ofstream" = type { %"class.std::basic_ostream.base", %"class.std::basic_filebuf", %"class.std::basic_ios" }
%"class.std::basic_ostream.base" = type { i32 (...)** }

@_ZStL8__ioinit = internal global %"class.std::ios_base::Init" zeroinitializer, align 1
@__dso_handle = external global i8
@_ZL20externalAcceleration = internal global %class.Vec3 zeroinitializer, align 4
@_ZL9domainMin = internal global %class.Vec3 zeroinitializer, align 4
@_ZL9domainMax = internal global %class.Vec3 zeroinitializer, align 4
@restParticlesPerMeter = global float 0.000000e+00, align 4
@h = global float 0.000000e+00, align 4
@hSq = global float 0.000000e+00, align 4
@densityCoeff = global float 0.000000e+00, align 4
@pressureCoeff = global float 0.000000e+00, align 4
@viscosityCoeff = global float 0.000000e+00, align 4
@nx = global i32 0, align 4
@ny = global i32 0, align 4
@nz = global i32 0, align 4
@delta = global %class.Vec3 zeroinitializer, align 4
@origNumParticles = global i32 0, align 4
@numParticles = global i32 0, align 4
@numCells = global i32 0, align 4
@cells = global %struct.Cell* null, align 8
@cells2 = global %struct.Cell* null, align 8
@cnumPars = global i32* null, align 8
@cnumPars2 = global i32* null, align 8
@_ZSt4cout = external global %"class.std::basic_ostream"
@.str = private unnamed_addr constant [15 x i8] c"Loading file \22\00", align 1
@.str5 = private unnamed_addr constant [5 x i8] c"\22...\00", align 1
@.str6 = private unnamed_addr constant [5 x i8] c"file\00", align 1
@.str7 = private unnamed_addr constant [11 x i8] c"serial.cpp\00", align 1
@__PRETTY_FUNCTION__._Z7InitSimPKc = private unnamed_addr constant [27 x i8] c"void InitSim(const char *)\00", align 1
@.str8 = private unnamed_addr constant [30 x i8] c"nx >= 1 && ny >= 1 && nz >= 1\00", align 1
@.str9 = private unnamed_addr constant [18 x i8] c"Number of cells: \00", align 1
@.str10 = private unnamed_addr constant [45 x i8] c"delta.x >= h && delta.y >= h && delta.z >= h\00", align 1
@.str11 = private unnamed_addr constant [41 x i8] c"cells && cells2 && cnumPars && cnumPars2\00", align 1
@.str12 = private unnamed_addr constant [22 x i8] c"Number of particles: \00", align 1
@.str13 = private unnamed_addr constant [3 x i8] c" (\00", align 1
@.str14 = private unnamed_addr constant [10 x i8] c" skipped)\00", align 1
@.str15 = private unnamed_addr constant [14 x i8] c"Saving file \22\00", align 1
@__PRETTY_FUNCTION__._Z8SaveFilePKc = private unnamed_addr constant [28 x i8] c"void SaveFile(const char *)\00", align 1
@.str16 = private unnamed_addr constant [22 x i8] c"count == numParticles\00", align 1
@.str17 = private unnamed_addr constant [23 x i8] c"PARSEC Benchmark Suite\00", align 1
@.str18 = private unnamed_addr constant [8 x i8] c"Usage: \00", align 1
@.str19 = private unnamed_addr constant [65 x i8] c" <threadnum> <framenum> <.fluid input file> [.fluid output file]\00", align 1
@_ZSt4cerr = external global %"class.std::basic_ostream"
@.str20 = private unnamed_addr constant [39 x i8] c"<threadnum> must be 1 (serial version)\00", align 1
@.str21 = private unnamed_addr constant [30 x i8] c"<framenum> must at least be 1\00", align 1
@_ZTVSt14basic_ofstreamIcSt11char_traitsIcEE = external unnamed_addr constant [10 x i8*]
@_ZTTSt14basic_ofstreamIcSt11char_traitsIcEE = external unnamed_addr constant [4 x i8*]
@_ZTVSt13basic_filebufIcSt11char_traitsIcEE = external unnamed_addr constant [16 x i8*]
@_ZTVSt15basic_streambufIcSt11char_traitsIcEE = external unnamed_addr constant [16 x i8*]
@_ZTVSt9basic_iosIcSt11char_traitsIcEE = external unnamed_addr constant [4 x i8*]
@_ZTVSt14basic_ifstreamIcSt11char_traitsIcEE = external unnamed_addr constant [10 x i8*]
@_ZTTSt14basic_ifstreamIcSt11char_traitsIcEE = external unnamed_addr constant [4 x i8*]
@llvm.global_ctors = appending global [1 x { i32, void ()* }] [{ i32, void ()* } { i32 65535, void ()* @_GLOBAL__I_a }]

define internal fastcc void @__cxx_global_var_init() section ".text.startup" {
  tail call void @_ZNSt8ios_base4InitC1Ev(%"class.std::ios_base::Init"* @_ZStL8__ioinit), !llfi_index !1
  %1 = tail call i32 @__cxa_atexit(void (i8*)* bitcast (void (%"class.std::ios_base::Init"*)* @_ZNSt8ios_base4InitD1Ev to void (i8*)*), i8* getelementptr inbounds (%"class.std::ios_base::Init"* @_ZStL8__ioinit, i64 0, i32 0), i8* @__dso_handle) #1, !llfi_index !2
  ret void, !llfi_index !3
}

declare void @_ZNSt8ios_base4InitC1Ev(%"class.std::ios_base::Init"*) #0

declare void @_ZNSt8ios_base4InitD1Ev(%"class.std::ios_base::Init"*) #0

; Function Attrs: nounwind
declare i32 @__cxa_atexit(void (i8*)*, i8*, i8*) #1

; Function Attrs: nounwind
define internal fastcc void @__cxx_global_var_init1() #1 section ".text.startup" {
  tail call void @_ZN4Vec3C2Efff(%class.Vec3* @_ZL20externalAcceleration, float 0.000000e+00, float 0xC0239999A0000000, float 0.000000e+00), !llfi_index !4
  %1 = tail call {}* @llvm.invariant.start(i64 12, i8* bitcast (%class.Vec3* @_ZL20externalAcceleration to i8*)), !llfi_index !5
  ret void, !llfi_index !6
}

; Function Attrs: nounwind uwtable
define linkonce_odr void @_ZN4Vec3C2Efff(%class.Vec3* nocapture %this, float %_x, float %_y, float %_z) unnamed_addr #2 align 2 {
  %1 = getelementptr inbounds %class.Vec3* %this, i64 0, i32 0, !llfi_index !7
  store float %_x, float* %1, align 4, !tbaa !8, !llfi_index !13
  %2 = getelementptr inbounds %class.Vec3* %this, i64 0, i32 1, !llfi_index !14
  store float %_y, float* %2, align 4, !tbaa !15, !llfi_index !16
  %3 = getelementptr inbounds %class.Vec3* %this, i64 0, i32 2, !llfi_index !17
  store float %_z, float* %3, align 4, !tbaa !18, !llfi_index !19
  ret void, !llfi_index !20
}

; Function Attrs: nounwind
declare {}* @llvm.invariant.start(i64, i8* nocapture) #1

; Function Attrs: nounwind
define internal fastcc void @__cxx_global_var_init2() #1 section ".text.startup" {
  tail call void @_ZN4Vec3C2Efff(%class.Vec3* @_ZL9domainMin, float 0xBFB0A3D700000000, float 0xBFB47AE140000000, float 0xBFB0A3D700000000), !llfi_index !21
  %1 = tail call {}* @llvm.invariant.start(i64 12, i8* bitcast (%class.Vec3* @_ZL9domainMin to i8*)), !llfi_index !22
  ret void, !llfi_index !23
}

; Function Attrs: nounwind
define internal fastcc void @__cxx_global_var_init3() #1 section ".text.startup" {
  tail call void @_ZN4Vec3C2Efff(%class.Vec3* @_ZL9domainMax, float 0x3FB0A3D700000000, float 0x3FB99999A0000000, float 0x3FB0A3D700000000), !llfi_index !24
  %1 = tail call {}* @llvm.invariant.start(i64 12, i8* bitcast (%class.Vec3* @_ZL9domainMax to i8*)), !llfi_index !25
  ret void, !llfi_index !26
}

; Function Attrs: nounwind readnone uwtable
define linkonce_odr void @_ZN4Vec3C2Ev(%class.Vec3* nocapture %this) unnamed_addr #3 align 2 {
  ret void, !llfi_index !27
}

; Function Attrs: uwtable
define void @_Z7InitSimPKc(i8* %fileName) #4 {
  %file = alloca %"class.std::basic_ifstream", align 8, !llfi_index !28
  %px = alloca float, align 4, !llfi_index !29
  %py = alloca float, align 4, !llfi_index !30
  %pz = alloca float, align 4, !llfi_index !31
  %hvx = alloca float, align 4, !llfi_index !32
  %hvy = alloca float, align 4, !llfi_index !33
  %hvz = alloca float, align 4, !llfi_index !34
  %vx = alloca float, align 4, !llfi_index !35
  %vy = alloca float, align 4, !llfi_index !36
  %vz = alloca float, align 4, !llfi_index !37
  %1 = call %"class.std::basic_ostream"* @_ZStlsISt11char_traitsIcEERSt13basic_ostreamIcT_ES5_PKc(%"class.std::basic_ostream"* @_ZSt4cout, i8* getelementptr inbounds ([15 x i8]* @.str, i64 0, i64 0)), !llfi_index !38
  %2 = call %"class.std::basic_ostream"* @_ZStlsISt11char_traitsIcEERSt13basic_ostreamIcT_ES5_PKc(%"class.std::basic_ostream"* %1, i8* %fileName), !llfi_index !39
  %3 = call %"class.std::basic_ostream"* @_ZStlsISt11char_traitsIcEERSt13basic_ostreamIcT_ES5_PKc(%"class.std::basic_ostream"* %2, i8* getelementptr inbounds ([5 x i8]* @.str5, i64 0, i64 0)), !llfi_index !40
  %4 = call %"class.std::basic_ostream"* @_ZNSolsEPFRSoS_E(%"class.std::basic_ostream"* %3, %"class.std::basic_ostream"* (%"class.std::basic_ostream"*)* @_ZSt4endlIcSt11char_traitsIcEERSt13basic_ostreamIT_T0_ES6_), !llfi_index !41
  %5 = bitcast %"class.std::basic_ifstream"* %file to i8*, !llfi_index !42
  call void @llvm.lifetime.start(i64 520, i8* %5) #1, !llfi_index !43
  call void @_ZNSt14basic_ifstreamIcSt11char_traitsIcEEC1EPKcSt13_Ios_Openmode(%"class.std::basic_ifstream"* %file, i8* %fileName, i32 4), !llfi_index !44
  %6 = bitcast %"class.std::basic_ifstream"* %file to i8**, !llfi_index !45
  %7 = load i8** %6, align 8, !tbaa !46, !llfi_index !48
  %8 = getelementptr i8* %7, i64 -24, !llfi_index !49
  %9 = bitcast i8* %8 to i64*, !llfi_index !50
  %10 = load i64* %9, align 8, !llfi_index !51
  %11 = getelementptr inbounds i8* %5, i64 %10, !llfi_index !52
  %12 = bitcast i8* %11 to %"class.std::basic_ios"*, !llfi_index !53
  %13 = call i8* @_ZNKSt9basic_iosIcSt11char_traitsIcEEcvPvEv(%"class.std::basic_ios"* %12), !llfi_index !54
  %14 = icmp eq i8* %13, null, !llfi_index !55
  br i1 %14, label %15, label %16, !llfi_index !56

; <label>:15                                      ; preds = %0
  call void @__assert_fail(i8* getelementptr inbounds ([5 x i8]* @.str6, i64 0, i64 0), i8* getelementptr inbounds ([11 x i8]* @.str7, i64 0, i64 0), i32 122, i8* getelementptr inbounds ([27 x i8]* @__PRETTY_FUNCTION__._Z7InitSimPKc, i64 0, i64 0)) #18, !llfi_index !57
  unreachable, !llfi_index !58

; <label>:16                                      ; preds = %0
  %17 = bitcast %"class.std::basic_ifstream"* %file to %"class.std::basic_istream"*, !llfi_index !59
  %18 = invoke %"class.std::basic_istream"* @_ZNSi4readEPcl(%"class.std::basic_istream"* %17, i8* bitcast (float* @restParticlesPerMeter to i8*), i64 4)
          to label %19 unwind label %.nonloopexit, !llfi_index !60

; <label>:19                                      ; preds = %16
  %20 = invoke %"class.std::basic_istream"* @_ZNSi4readEPcl(%"class.std::basic_istream"* %17, i8* bitcast (i32* @origNumParticles to i8*), i64 4)
          to label %21 unwind label %.nonloopexit, !llfi_index !61

; <label>:21                                      ; preds = %19
  %22 = load i32* @origNumParticles, align 4, !tbaa !62, !llfi_index !64
  store i32 %22, i32* @numParticles, align 4, !tbaa !62, !llfi_index !65
  %23 = load float* @restParticlesPerMeter, align 4, !tbaa !66, !llfi_index !67
  %24 = fdiv float 0x3FFB1EB860000000, %23, !llfi_index !68
  store float %24, float* @h, align 4, !tbaa !66, !llfi_index !69
  %25 = fmul float %24, %24, !llfi_index !70
  store float %25, float* @hSq, align 4, !tbaa !66, !llfi_index !71
  %26 = fpext float %24 to double, !llfi_index !72
  %27 = call double @pow(double %26, double 9.000000e+00) #1, !llfi_index !73
  %28 = fmul double %27, 0x406921FB60000000, !llfi_index !74
  %29 = fdiv double 3.150000e+02, %28, !llfi_index !75
  %30 = fptrunc double %29 to float, !llfi_index !76
  %31 = load float* @h, align 4, !tbaa !66, !llfi_index !77
  %32 = fpext float %31 to double, !llfi_index !78
  %33 = call double @pow(double %32, double 6.000000e+00) #1, !llfi_index !79
  %34 = fmul double %33, 0x400921FB60000000, !llfi_index !80
  %35 = fdiv double 1.500000e+01, %34, !llfi_index !81
  %36 = fptrunc double %35 to float, !llfi_index !82
  %37 = load float* @h, align 4, !tbaa !66, !llfi_index !83
  %38 = fpext float %37 to double, !llfi_index !84
  %39 = call double @pow(double %38, double 6.000000e+00) #1, !llfi_index !85
  %40 = fmul double %39, 0x400921FB60000000, !llfi_index !86
  %41 = fdiv double 4.500000e+01, %40, !llfi_index !87
  %42 = fptrunc double %41 to float, !llfi_index !88
  %43 = load float* @restParticlesPerMeter, align 4, !tbaa !66, !llfi_index !89
  %44 = fmul float %43, %43, !llfi_index !90
  %45 = fmul float %43, %44, !llfi_index !91
  %46 = fdiv float 1.000000e+03, %45, !llfi_index !92
  %47 = fmul float %30, %46, !llfi_index !93
  store float %47, float* @densityCoeff, align 4, !tbaa !66, !llfi_index !94
  %48 = fmul float %36, 3.000000e+00, !llfi_index !95
  %49 = fmul float %48, 5.000000e-01, !llfi_index !96
  %50 = fmul float %49, 1.500000e+00, !llfi_index !97
  %51 = fmul float %50, %46, !llfi_index !98
  store float %51, float* @pressureCoeff, align 4, !tbaa !66, !llfi_index !99
  %52 = fmul float %42, 0x3FD99999A0000000, !llfi_index !100
  %53 = fmul float %52, %46, !llfi_index !101
  store float %53, float* @viscosityCoeff, align 4, !tbaa !66, !llfi_index !102
  %54 = call { <2 x float>, float } @_ZNK4Vec3miERKS_(%class.Vec3* @_ZL9domainMax, %class.Vec3* @_ZL9domainMin), !llfi_index !103
  %55 = extractvalue { <2 x float>, float } %54, 0, !llfi_index !104
  %56 = extractvalue { <2 x float>, float } %54, 1, !llfi_index !105
  %57 = extractelement <2 x float> %55, i32 0, !llfi_index !106
  %58 = load float* @h, align 4, !tbaa !66, !llfi_index !107
  %59 = fdiv float %57, %58, !llfi_index !108
  %60 = fptosi float %59 to i32, !llfi_index !109
  store i32 %60, i32* @nx, align 4, !tbaa !62, !llfi_index !110
  %61 = extractelement <2 x float> %55, i32 1, !llfi_index !111
  %62 = fdiv float %61, %58, !llfi_index !112
  %63 = fptosi float %62 to i32, !llfi_index !113
  store i32 %63, i32* @ny, align 4, !tbaa !62, !llfi_index !114
  %64 = load float* @h, align 4, !tbaa !66, !llfi_index !115
  %65 = fdiv float %56, %64, !llfi_index !116
  %66 = fptosi float %65 to i32, !llfi_index !117
  store i32 %66, i32* @nz, align 4, !tbaa !62, !llfi_index !118
  %67 = load i32* @nx, align 4, !tbaa !62, !llfi_index !119
  %68 = icmp sgt i32 %67, 0, !llfi_index !120
  %69 = load i32* @ny, align 4, !tbaa !62, !llfi_index !121
  %70 = icmp sgt i32 %69, 0, !llfi_index !122
  %or.cond = and i1 %68, %70, !llfi_index !123
  %71 = icmp sgt i32 %66, 0, !llfi_index !124
  %or.cond3 = and i1 %or.cond, %71, !llfi_index !125
  br i1 %or.cond3, label %73, label %72, !llfi_index !126

; <label>:72                                      ; preds = %21
  call void @__assert_fail(i8* getelementptr inbounds ([30 x i8]* @.str8, i64 0, i64 0), i8* getelementptr inbounds ([11 x i8]* @.str7, i64 0, i64 0), i32 147, i8* getelementptr inbounds ([27 x i8]* @__PRETTY_FUNCTION__._Z7InitSimPKc, i64 0, i64 0)) #18, !llfi_index !127
  unreachable, !llfi_index !128

; <label>:73                                      ; preds = %21
  %74 = mul i32 %66, %67, !llfi_index !129
  %75 = mul i32 %74, %69, !llfi_index !130
  store i32 %75, i32* @numCells, align 4, !tbaa !62, !llfi_index !131
  %76 = invoke %"class.std::basic_ostream"* @_ZStlsISt11char_traitsIcEERSt13basic_ostreamIcT_ES5_PKc(%"class.std::basic_ostream"* @_ZSt4cout, i8* getelementptr inbounds ([18 x i8]* @.str9, i64 0, i64 0))
          to label %77 unwind label %.nonloopexit, !llfi_index !132

; <label>:77                                      ; preds = %73
  %78 = load i32* @numCells, align 4, !tbaa !62, !llfi_index !133
  %79 = invoke %"class.std::basic_ostream"* @_ZNSolsEi(%"class.std::basic_ostream"* %76, i32 %78)
          to label %80 unwind label %.nonloopexit, !llfi_index !134

; <label>:80                                      ; preds = %77
  %81 = invoke %"class.std::basic_ostream"* @_ZNSolsEPFRSoS_E(%"class.std::basic_ostream"* %79, %"class.std::basic_ostream"* (%"class.std::basic_ostream"*)* @_ZSt4endlIcSt11char_traitsIcEERSt13basic_ostreamIT_T0_ES6_)
          to label %82 unwind label %.nonloopexit, !llfi_index !135

; <label>:82                                      ; preds = %80
  %83 = load i32* @nx, align 4, !tbaa !62, !llfi_index !136
  %84 = sitofp i32 %83 to float, !llfi_index !137
  %85 = fdiv float %57, %84, !llfi_index !138
  store float %85, float* getelementptr inbounds (%class.Vec3* @delta, i64 0, i32 0), align 4, !tbaa !8, !llfi_index !139
  %86 = load i32* @ny, align 4, !tbaa !62, !llfi_index !140
  %87 = sitofp i32 %86 to float, !llfi_index !141
  %88 = fdiv float %61, %87, !llfi_index !142
  store float %88, float* getelementptr inbounds (%class.Vec3* @delta, i64 0, i32 1), align 4, !tbaa !15, !llfi_index !143
  %89 = load i32* @nz, align 4, !tbaa !62, !llfi_index !144
  %90 = sitofp i32 %89 to float, !llfi_index !145
  %91 = fdiv float %56, %90, !llfi_index !146
  store float %91, float* getelementptr inbounds (%class.Vec3* @delta, i64 0, i32 2), align 4, !tbaa !18, !llfi_index !147
  %92 = load float* getelementptr inbounds (%class.Vec3* @delta, i64 0, i32 0), align 4, !tbaa !8, !llfi_index !148
  %93 = load float* @h, align 4, !tbaa !66, !llfi_index !149
  %94 = fcmp ult float %92, %93, !llfi_index !150
  %95 = load float* getelementptr inbounds (%class.Vec3* @delta, i64 0, i32 1), align 4, !tbaa !15, !llfi_index !151
  %96 = fcmp ult float %95, %93, !llfi_index !152
  %or.cond12 = or i1 %94, %96, !llfi_index !153
  %97 = fcmp ult float %91, %93, !llfi_index !154
  %or.cond13 = or i1 %or.cond12, %97, !llfi_index !155
  br i1 %or.cond13, label %98, label %99, !llfi_index !156

; <label>:98                                      ; preds = %82
  call void @__assert_fail(i8* getelementptr inbounds ([45 x i8]* @.str10, i64 0, i64 0), i8* getelementptr inbounds ([11 x i8]* @.str7, i64 0, i64 0), i32 153, i8* getelementptr inbounds ([27 x i8]* @__PRETTY_FUNCTION__._Z7InitSimPKc, i64 0, i64 0)) #18, !llfi_index !157
  unreachable, !llfi_index !158

; <label>:99                                      ; preds = %82
  %100 = load i32* @numCells, align 4, !tbaa !62, !llfi_index !159
  %101 = sext i32 %100 to i64, !llfi_index !160
  %102 = call { i64, i1 } @llvm.umul.with.overflow.i64(i64 %101, i64 832), !llfi_index !161
  %103 = extractvalue { i64, i1 } %102, 1, !llfi_index !162
  %104 = extractvalue { i64, i1 } %102, 0, !llfi_index !163
  %105 = select i1 %103, i64 -1, i64 %104, !llfi_index !164
  %106 = invoke noalias i8* @_Znam(i64 %105) #19
          to label %.loopexit18 unwind label %.nonloopexit, !llfi_index !165

.loopexit18:                                      ; preds = %99
  %107 = bitcast i8* %106 to %struct.Cell*, !llfi_index !166
  store %struct.Cell* %107, %struct.Cell** @cells, align 8, !tbaa !167, !llfi_index !169
  %108 = load i32* @numCells, align 4, !tbaa !62, !llfi_index !170
  %109 = sext i32 %108 to i64, !llfi_index !171
  %110 = call { i64, i1 } @llvm.umul.with.overflow.i64(i64 %109, i64 832), !llfi_index !172
  %111 = extractvalue { i64, i1 } %110, 1, !llfi_index !173
  %112 = extractvalue { i64, i1 } %110, 0, !llfi_index !174
  %113 = select i1 %111, i64 -1, i64 %112, !llfi_index !175
  %114 = invoke noalias i8* @_Znam(i64 %113) #19
          to label %.loopexit17 unwind label %.nonloopexit, !llfi_index !176

.loopexit17:                                      ; preds = %.loopexit18
  %115 = bitcast i8* %114 to %struct.Cell*, !llfi_index !177
  store %struct.Cell* %115, %struct.Cell** @cells2, align 8, !tbaa !167, !llfi_index !178
  %116 = load i32* @numCells, align 4, !tbaa !62, !llfi_index !179
  %117 = sext i32 %116 to i64, !llfi_index !180
  %118 = call { i64, i1 } @llvm.umul.with.overflow.i64(i64 %117, i64 4), !llfi_index !181
  %119 = extractvalue { i64, i1 } %118, 1, !llfi_index !182
  %120 = extractvalue { i64, i1 } %118, 0, !llfi_index !183
  %121 = select i1 %119, i64 -1, i64 %120, !llfi_index !184
  %122 = invoke noalias i8* @_Znam(i64 %121) #19
          to label %123 unwind label %.nonloopexit, !llfi_index !185

; <label>:123                                     ; preds = %.loopexit17
  %124 = bitcast i8* %122 to i32*, !llfi_index !186
  store i32* %124, i32** @cnumPars, align 8, !tbaa !167, !llfi_index !187
  %125 = load i32* @numCells, align 4, !tbaa !62, !llfi_index !188
  %126 = sext i32 %125 to i64, !llfi_index !189
  %127 = call { i64, i1 } @llvm.umul.with.overflow.i64(i64 %126, i64 4), !llfi_index !190
  %128 = extractvalue { i64, i1 } %127, 1, !llfi_index !191
  %129 = extractvalue { i64, i1 } %127, 0, !llfi_index !192
  %130 = select i1 %128, i64 -1, i64 %129, !llfi_index !193
  %131 = invoke noalias i8* @_Znam(i64 %130) #19
          to label %132 unwind label %.nonloopexit, !llfi_index !194

; <label>:132                                     ; preds = %123
  %133 = bitcast i8* %131 to i32*, !llfi_index !195
  store i32* %133, i32** @cnumPars2, align 8, !tbaa !167, !llfi_index !196
  %134 = load %struct.Cell** @cells, align 8, !tbaa !167, !llfi_index !197
  %135 = icmp ne %struct.Cell* %134, null, !llfi_index !198
  %136 = load %struct.Cell** @cells2, align 8, !tbaa !167, !llfi_index !199
  %137 = icmp ne %struct.Cell* %136, null, !llfi_index !200
  %or.cond5 = and i1 %135, %137, !llfi_index !201
  %138 = load i32** @cnumPars, align 8, !tbaa !167, !llfi_index !202
  %139 = icmp ne i32* %138, null, !llfi_index !203
  %or.cond7 = and i1 %or.cond5, %139, !llfi_index !204
  br i1 %or.cond7, label %141, label %140, !llfi_index !205

; <label>:140                                     ; preds = %132
  call void @__assert_fail(i8* getelementptr inbounds ([41 x i8]* @.str11, i64 0, i64 0), i8* getelementptr inbounds ([11 x i8]* @.str7, i64 0, i64 0), i32 159, i8* getelementptr inbounds ([27 x i8]* @__PRETTY_FUNCTION__._Z7InitSimPKc, i64 0, i64 0)) #18, !llfi_index !206
  unreachable, !llfi_index !207

; <label>:141                                     ; preds = %132
  %142 = load i32* @numCells, align 4, !tbaa !62, !llfi_index !208
  %143 = sext i32 %142 to i64, !llfi_index !209
  %144 = shl nsw i64 %143, 2, !llfi_index !210
  call void @llvm.memset.p0i8.i64(i8* %131, i8 0, i64 %144, i32 4, i1 false), !llfi_index !211
  %145 = load i32* @origNumParticles, align 4, !tbaa !62, !llfi_index !212
  %146 = icmp sgt i32 %145, 0, !llfi_index !213
  br i1 %146, label %.lr.ph, label %._crit_edge, !llfi_index !214

.lr.ph:                                           ; preds = %141
  %147 = bitcast float* %px to i8*, !llfi_index !215
  %148 = bitcast float* %py to i8*, !llfi_index !216
  %149 = bitcast float* %pz to i8*, !llfi_index !217
  %150 = bitcast float* %hvx to i8*, !llfi_index !218
  %151 = bitcast float* %hvy to i8*, !llfi_index !219
  %152 = bitcast float* %hvz to i8*, !llfi_index !220
  %153 = bitcast float* %vx to i8*, !llfi_index !221
  %154 = bitcast float* %vy to i8*, !llfi_index !222
  %155 = bitcast float* %vz to i8*, !llfi_index !223
  br label %156, !llfi_index !224

; <label>:156                                     ; preds = %250, %.lr.ph
  %i.016 = phi i32 [ 0, %.lr.ph ], [ %251, %250 ], !llfi_index !225
  %157 = invoke %"class.std::basic_istream"* @_ZNSi4readEPcl(%"class.std::basic_istream"* %17, i8* %147, i64 4)
          to label %158 unwind label %.loopexit, !llfi_index !226

; <label>:158                                     ; preds = %156
  %159 = invoke %"class.std::basic_istream"* @_ZNSi4readEPcl(%"class.std::basic_istream"* %17, i8* %148, i64 4)
          to label %160 unwind label %.loopexit, !llfi_index !227

; <label>:160                                     ; preds = %158
  %161 = invoke %"class.std::basic_istream"* @_ZNSi4readEPcl(%"class.std::basic_istream"* %17, i8* %149, i64 4)
          to label %162 unwind label %.loopexit, !llfi_index !228

; <label>:162                                     ; preds = %160
  %163 = invoke %"class.std::basic_istream"* @_ZNSi4readEPcl(%"class.std::basic_istream"* %17, i8* %150, i64 4)
          to label %164 unwind label %.loopexit, !llfi_index !229

; <label>:164                                     ; preds = %162
  %165 = invoke %"class.std::basic_istream"* @_ZNSi4readEPcl(%"class.std::basic_istream"* %17, i8* %151, i64 4)
          to label %166 unwind label %.loopexit, !llfi_index !230

; <label>:166                                     ; preds = %164
  %167 = invoke %"class.std::basic_istream"* @_ZNSi4readEPcl(%"class.std::basic_istream"* %17, i8* %152, i64 4)
          to label %168 unwind label %.loopexit, !llfi_index !231

; <label>:168                                     ; preds = %166
  %169 = invoke %"class.std::basic_istream"* @_ZNSi4readEPcl(%"class.std::basic_istream"* %17, i8* %153, i64 4)
          to label %170 unwind label %.loopexit, !llfi_index !232

; <label>:170                                     ; preds = %168
  %171 = invoke %"class.std::basic_istream"* @_ZNSi4readEPcl(%"class.std::basic_istream"* %17, i8* %154, i64 4)
          to label %172 unwind label %.loopexit, !llfi_index !233

; <label>:172                                     ; preds = %170
  %173 = invoke %"class.std::basic_istream"* @_ZNSi4readEPcl(%"class.std::basic_istream"* %17, i8* %155, i64 4)
          to label %174 unwind label %.loopexit, !llfi_index !234

; <label>:174                                     ; preds = %172
  %175 = load float* %px, align 4, !tbaa !66, !llfi_index !235
  %176 = load float* getelementptr inbounds (%class.Vec3* @_ZL9domainMin, i64 0, i32 0), align 4, !tbaa !8, !llfi_index !236
  %177 = fsub float %175, %176, !llfi_index !237
  %178 = load float* getelementptr inbounds (%class.Vec3* @delta, i64 0, i32 0), align 4, !tbaa !8, !llfi_index !238
  %179 = fdiv float %177, %178, !llfi_index !239
  %180 = fptosi float %179 to i32, !llfi_index !240
  %181 = load float* %py, align 4, !tbaa !66, !llfi_index !241
  %182 = load float* getelementptr inbounds (%class.Vec3* @_ZL9domainMin, i64 0, i32 1), align 4, !tbaa !15, !llfi_index !242
  %183 = fsub float %181, %182, !llfi_index !243
  %184 = load float* getelementptr inbounds (%class.Vec3* @delta, i64 0, i32 1), align 4, !tbaa !15, !llfi_index !244
  %185 = fdiv float %183, %184, !llfi_index !245
  %186 = fptosi float %185 to i32, !llfi_index !246
  %187 = load float* %pz, align 4, !tbaa !66, !llfi_index !247
  %188 = load float* getelementptr inbounds (%class.Vec3* @_ZL9domainMin, i64 0, i32 2), align 4, !tbaa !18, !llfi_index !248
  %189 = fsub float %187, %188, !llfi_index !249
  %190 = load float* getelementptr inbounds (%class.Vec3* @delta, i64 0, i32 2), align 4, !tbaa !18, !llfi_index !250
  %191 = fdiv float %189, %190, !llfi_index !251
  %192 = fptosi float %191 to i32, !llfi_index !252
  %193 = icmp slt i32 %180, 0, !llfi_index !253
  br i1 %193, label %198, label %194, !llfi_index !254

; <label>:194                                     ; preds = %174
  %195 = load i32* @nx, align 4, !tbaa !62, !llfi_index !255
  %196 = add nsw i32 %195, -1, !llfi_index !256
  %197 = icmp sgt i32 %180, %196, !llfi_index !257
  %. = select i1 %197, i32 %196, i32 %180, !llfi_index !258
  br label %198, !llfi_index !259

; <label>:198                                     ; preds = %194, %174
  %ci.0 = phi i32 [ 0, %174 ], [ %., %194 ], !llfi_index !260
  %199 = icmp slt i32 %186, 0, !llfi_index !261
  br i1 %199, label %204, label %200, !llfi_index !262

; <label>:200                                     ; preds = %198
  %201 = load i32* @ny, align 4, !tbaa !62, !llfi_index !263
  %202 = add nsw i32 %201, -1, !llfi_index !264
  %203 = icmp sgt i32 %186, %202, !llfi_index !265
  %.14 = select i1 %203, i32 %202, i32 %186, !llfi_index !266
  br label %204, !llfi_index !267

; <label>:204                                     ; preds = %200, %198
  %cj.0 = phi i32 [ 0, %198 ], [ %.14, %200 ], !llfi_index !268
  %205 = icmp slt i32 %192, 0, !llfi_index !269
  br i1 %205, label %210, label %206, !llfi_index !270

; <label>:206                                     ; preds = %204
  %207 = load i32* @nz, align 4, !tbaa !62, !llfi_index !271
  %208 = add nsw i32 %207, -1, !llfi_index !272
  %209 = icmp sgt i32 %192, %208, !llfi_index !273
  %.15 = select i1 %209, i32 %208, i32 %192, !llfi_index !274
  br label %210, !llfi_index !275

; <label>:210                                     ; preds = %206, %204
  %ck.0 = phi i32 [ 0, %204 ], [ %.15, %206 ], !llfi_index !276
  %211 = load i32* @ny, align 4, !tbaa !62, !llfi_index !277
  %212 = mul nsw i32 %211, %ck.0, !llfi_index !278
  %213 = add nsw i32 %212, %cj.0, !llfi_index !279
  %214 = load i32* @nx, align 4, !tbaa !62, !llfi_index !280
  %215 = mul nsw i32 %213, %214, !llfi_index !281
  %216 = add nsw i32 %215, %ci.0, !llfi_index !282
  %217 = sext i32 %216 to i64, !llfi_index !283
  %218 = load %struct.Cell** @cells2, align 8, !tbaa !167, !llfi_index !284
  %219 = load i32** @cnumPars2, align 8, !tbaa !167, !llfi_index !285
  %220 = getelementptr inbounds i32* %219, i64 %217, !llfi_index !286
  %221 = load i32* %220, align 4, !tbaa !62, !llfi_index !287
  %222 = icmp slt i32 %221, 16, !llfi_index !288
  br i1 %222, label %223, label %247, !llfi_index !289

; <label>:223                                     ; preds = %210
  %224 = load float* %px, align 4, !tbaa !66, !llfi_index !290
  %225 = sext i32 %221 to i64, !llfi_index !291
  %226 = getelementptr inbounds %struct.Cell* %218, i64 %217, i32 0, i64 %225, i32 0, !llfi_index !292
  store float %224, float* %226, align 4, !tbaa !8, !llfi_index !293
  %227 = load float* %py, align 4, !tbaa !66, !llfi_index !294
  %228 = getelementptr inbounds %struct.Cell* %218, i64 %217, i32 0, i64 %225, i32 1, !llfi_index !295
  store float %227, float* %228, align 4, !tbaa !15, !llfi_index !296
  %229 = load float* %pz, align 4, !tbaa !66, !llfi_index !297
  %230 = getelementptr inbounds %struct.Cell* %218, i64 %217, i32 0, i64 %225, i32 2, !llfi_index !298
  store float %229, float* %230, align 4, !tbaa !18, !llfi_index !299
  %231 = load float* %hvx, align 4, !tbaa !66, !llfi_index !300
  %232 = getelementptr inbounds %struct.Cell* %218, i64 %217, i32 1, i64 %225, i32 0, !llfi_index !301
  store float %231, float* %232, align 4, !tbaa !8, !llfi_index !302
  %233 = load float* %hvy, align 4, !tbaa !66, !llfi_index !303
  %234 = getelementptr inbounds %struct.Cell* %218, i64 %217, i32 1, i64 %225, i32 1, !llfi_index !304
  store float %233, float* %234, align 4, !tbaa !15, !llfi_index !305
  %235 = load float* %hvz, align 4, !tbaa !66, !llfi_index !306
  %236 = getelementptr inbounds %struct.Cell* %218, i64 %217, i32 1, i64 %225, i32 2, !llfi_index !307
  store float %235, float* %236, align 4, !tbaa !18, !llfi_index !308
  %237 = load float* %vx, align 4, !tbaa !66, !llfi_index !309
  %238 = getelementptr inbounds %struct.Cell* %218, i64 %217, i32 2, i64 %225, i32 0, !llfi_index !310
  store float %237, float* %238, align 4, !tbaa !8, !llfi_index !311
  %239 = load float* %vy, align 4, !tbaa !66, !llfi_index !312
  %240 = getelementptr inbounds %struct.Cell* %218, i64 %217, i32 2, i64 %225, i32 1, !llfi_index !313
  store float %239, float* %240, align 4, !tbaa !15, !llfi_index !314
  %241 = load float* %vz, align 4, !tbaa !66, !llfi_index !315
  %242 = getelementptr inbounds %struct.Cell* %218, i64 %217, i32 2, i64 %225, i32 2, !llfi_index !316
  store float %241, float* %242, align 4, !tbaa !18, !llfi_index !317
  %243 = load i32** @cnumPars2, align 8, !tbaa !167, !llfi_index !318
  %244 = getelementptr inbounds i32* %243, i64 %217, !llfi_index !319
  %245 = load i32* %244, align 4, !tbaa !62, !llfi_index !320
  %246 = add nsw i32 %245, 1, !llfi_index !321
  store i32 %246, i32* %244, align 4, !tbaa !62, !llfi_index !322
  br label %250, !llfi_index !323

; <label>:247                                     ; preds = %210
  %248 = load i32* @numParticles, align 4, !tbaa !62, !llfi_index !324
  %249 = add nsw i32 %248, -1, !llfi_index !325
  store i32 %249, i32* @numParticles, align 4, !tbaa !62, !llfi_index !326
  br label %250, !llfi_index !327

; <label>:250                                     ; preds = %247, %223
  %251 = add nsw i32 %i.016, 1, !llfi_index !328
  %252 = load i32* @origNumParticles, align 4, !tbaa !62, !llfi_index !329
  %253 = icmp slt i32 %251, %252, !llfi_index !330
  br i1 %253, label %156, label %._crit_edge, !llfi_index !331

._crit_edge:                                      ; preds = %250, %141
  %254 = invoke %"class.std::basic_ostream"* @_ZStlsISt11char_traitsIcEERSt13basic_ostreamIcT_ES5_PKc(%"class.std::basic_ostream"* @_ZSt4cout, i8* getelementptr inbounds ([22 x i8]* @.str12, i64 0, i64 0))
          to label %255 unwind label %.nonloopexit, !llfi_index !332

; <label>:255                                     ; preds = %._crit_edge
  %256 = load i32* @numParticles, align 4, !tbaa !62, !llfi_index !333
  %257 = invoke %"class.std::basic_ostream"* @_ZNSolsEi(%"class.std::basic_ostream"* %254, i32 %256)
          to label %258 unwind label %.nonloopexit, !llfi_index !334

; <label>:258                                     ; preds = %255
  %259 = invoke %"class.std::basic_ostream"* @_ZStlsISt11char_traitsIcEERSt13basic_ostreamIcT_ES5_PKc(%"class.std::basic_ostream"* %257, i8* getelementptr inbounds ([3 x i8]* @.str13, i64 0, i64 0))
          to label %260 unwind label %.nonloopexit, !llfi_index !335

; <label>:260                                     ; preds = %258
  %261 = load i32* @origNumParticles, align 4, !tbaa !62, !llfi_index !336
  %262 = load i32* @numParticles, align 4, !tbaa !62, !llfi_index !337
  %263 = sub nsw i32 %261, %262, !llfi_index !338
  %264 = invoke %"class.std::basic_ostream"* @_ZNSolsEi(%"class.std::basic_ostream"* %259, i32 %263)
          to label %265 unwind label %.nonloopexit, !llfi_index !339

; <label>:265                                     ; preds = %260
  %266 = invoke %"class.std::basic_ostream"* @_ZStlsISt11char_traitsIcEERSt13basic_ostreamIcT_ES5_PKc(%"class.std::basic_ostream"* %264, i8* getelementptr inbounds ([10 x i8]* @.str14, i64 0, i64 0))
          to label %267 unwind label %.nonloopexit, !llfi_index !340

; <label>:267                                     ; preds = %265
  %268 = invoke %"class.std::basic_ostream"* @_ZNSolsEPFRSoS_E(%"class.std::basic_ostream"* %266, %"class.std::basic_ostream"* (%"class.std::basic_ostream"*)* @_ZSt4endlIcSt11char_traitsIcEERSt13basic_ostreamIT_T0_ES6_)
          to label %269 unwind label %.nonloopexit, !llfi_index !341

; <label>:269                                     ; preds = %267
  call void @_ZNSt14basic_ifstreamIcSt11char_traitsIcEED1Ev(%"class.std::basic_ifstream"* %file), !llfi_index !342
  call void @llvm.lifetime.end(i64 520, i8* %5) #1, !llfi_index !343
  ret void, !llfi_index !344

.loopexit:                                        ; preds = %172, %170, %168, %166, %164, %162, %160, %158, %156
  %lpad.loopexit = landingpad { i8*, i32 } personality i8* bitcast (i32 (...)* @__gxx_personality_v0 to i8*)
          cleanup, !llfi_index !345
  br label %270, !llfi_index !346

.nonloopexit:                                     ; preds = %267, %265, %260, %258, %255, %._crit_edge, %123, %.loopexit17, %.loopexit18, %99, %80, %77, %73, %19, %16
  %lpad.nonloopexit = landingpad { i8*, i32 } personality i8* bitcast (i32 (...)* @__gxx_personality_v0 to i8*)
          cleanup, !llfi_index !347
  br label %270, !llfi_index !348

; <label>:270                                     ; preds = %.nonloopexit, %.loopexit
  %lpad.phi = phi { i8*, i32 } [ %lpad.loopexit, %.loopexit ], [ %lpad.nonloopexit, %.nonloopexit ], !llfi_index !349
  invoke void @_ZNSt14basic_ifstreamIcSt11char_traitsIcEED1Ev(%"class.std::basic_ifstream"* %file)
          to label %271 unwind label %272, !llfi_index !350

; <label>:271                                     ; preds = %270
  resume { i8*, i32 } %lpad.phi, !llfi_index !351

; <label>:272                                     ; preds = %270
  %273 = landingpad { i8*, i32 } personality i8* bitcast (i32 (...)* @__gxx_personality_v0 to i8*)
          catch i8* null, !llfi_index !352
  %274 = extractvalue { i8*, i32 } %273, 0, !llfi_index !353
  call void @__clang_call_terminate(i8* %274) #18, !llfi_index !354
  unreachable, !llfi_index !355
}

; Function Attrs: inlinehint uwtable
define available_externally %"class.std::basic_ostream"* @_ZStlsISt11char_traitsIcEERSt13basic_ostreamIcT_ES5_PKc(%"class.std::basic_ostream"* %__out, i8* %__s) #5 {
  %1 = icmp eq i8* %__s, null, !llfi_index !356
  br i1 %1, label %2, label %11, !llfi_index !357

; <label>:2                                       ; preds = %0
  %3 = bitcast %"class.std::basic_ostream"* %__out to i8**, !llfi_index !358
  %4 = load i8** %3, align 8, !tbaa !46, !llfi_index !359
  %5 = getelementptr i8* %4, i64 -24, !llfi_index !360
  %6 = bitcast i8* %5 to i64*, !llfi_index !361
  %7 = load i64* %6, align 8, !llfi_index !362
  %8 = bitcast %"class.std::basic_ostream"* %__out to i8*, !llfi_index !363
  %9 = getelementptr inbounds i8* %8, i64 %7, !llfi_index !364
  %10 = bitcast i8* %9 to %"class.std::basic_ios"*, !llfi_index !365
  tail call void @_ZNSt9basic_iosIcSt11char_traitsIcEE8setstateESt12_Ios_Iostate(%"class.std::basic_ios"* %10, i32 1), !llfi_index !366
  br label %14, !llfi_index !367

; <label>:11                                      ; preds = %0
  %12 = tail call i64 @_ZNSt11char_traitsIcE6lengthEPKc(i8* %__s), !llfi_index !368
  %13 = tail call %"class.std::basic_ostream"* @_ZSt16__ostream_insertIcSt11char_traitsIcEERSt13basic_ostreamIT_T0_ES6_PKS3_l(%"class.std::basic_ostream"* %__out, i8* %__s, i64 %12), !llfi_index !369
  br label %14, !llfi_index !370

; <label>:14                                      ; preds = %11, %2
  ret %"class.std::basic_ostream"* %__out, !llfi_index !371
}

; Function Attrs: uwtable
define available_externally %"class.std::basic_ostream"* @_ZNSolsEPFRSoS_E(%"class.std::basic_ostream"* %this, %"class.std::basic_ostream"* (%"class.std::basic_ostream"*)* nocapture %__pf) #4 align 2 {
  %1 = tail call %"class.std::basic_ostream"* %__pf(%"class.std::basic_ostream"* %this), !llfi_index !372
  ret %"class.std::basic_ostream"* %1, !llfi_index !373
}

; Function Attrs: inlinehint uwtable
define available_externally %"class.std::basic_ostream"* @_ZSt4endlIcSt11char_traitsIcEERSt13basic_ostreamIT_T0_ES6_(%"class.std::basic_ostream"* %__os) #5 {
  %1 = bitcast %"class.std::basic_ostream"* %__os to i8**, !llfi_index !374
  %2 = load i8** %1, align 8, !tbaa !46, !llfi_index !375
  %3 = getelementptr i8* %2, i64 -24, !llfi_index !376
  %4 = bitcast i8* %3 to i64*, !llfi_index !377
  %5 = load i64* %4, align 8, !llfi_index !378
  %6 = bitcast %"class.std::basic_ostream"* %__os to i8*, !llfi_index !379
  %7 = getelementptr inbounds i8* %6, i64 %5, !llfi_index !380
  %8 = bitcast i8* %7 to %"class.std::basic_ios"*, !llfi_index !381
  %9 = tail call signext i8 @_ZNKSt9basic_iosIcSt11char_traitsIcEE5widenEc(%"class.std::basic_ios"* %8, i8 signext 10), !llfi_index !382
  %10 = tail call %"class.std::basic_ostream"* @_ZNSo3putEc(%"class.std::basic_ostream"* %__os, i8 signext %9), !llfi_index !383
  %11 = tail call %"class.std::basic_ostream"* @_ZSt5flushIcSt11char_traitsIcEERSt13basic_ostreamIT_T0_ES6_(%"class.std::basic_ostream"* %10), !llfi_index !384
  ret %"class.std::basic_ostream"* %11, !llfi_index !385
}

; Function Attrs: nounwind
declare void @llvm.lifetime.start(i64, i8* nocapture) #1

; Function Attrs: uwtable
define available_externally void @_ZNSt14basic_ifstreamIcSt11char_traitsIcEEC1EPKcSt13_Ios_Openmode(%"class.std::basic_ifstream"* %this, i8* %__s, i32 %__mode) unnamed_addr #4 align 2 {
  %1 = bitcast %"class.std::basic_ifstream"* %this to i8*, !llfi_index !386
  %2 = getelementptr inbounds %"class.std::basic_ifstream"* %this, i64 0, i32 2, !llfi_index !387
  tail call void @_ZNSt9basic_iosIcSt11char_traitsIcEEC2Ev(%"class.std::basic_ios"* %2), !llfi_index !388
  %3 = bitcast %"class.std::basic_ifstream"* %this to %"class.std::basic_istream"*, !llfi_index !389
  invoke void @_ZNSiC2Ev(%"class.std::basic_istream"* %3, i8** getelementptr inbounds ([4 x i8*]* @_ZTTSt14basic_ifstreamIcSt11char_traitsIcEE, i64 0, i64 1))
          to label %4 unwind label %19, !llfi_index !390

; <label>:4                                       ; preds = %0
  %5 = getelementptr inbounds %"class.std::basic_ifstream"* %this, i64 0, i32 0, i32 0, !llfi_index !391
  store i32 (...)** bitcast (i8** getelementptr inbounds ([10 x i8*]* @_ZTVSt14basic_ifstreamIcSt11char_traitsIcEE, i64 0, i64 3) to i32 (...)**), i32 (...)*** %5, align 8, !tbaa !46, !llfi_index !392
  %6 = getelementptr inbounds %"class.std::basic_ios"* %2, i64 0, i32 0, i32 0, !llfi_index !393
  store i32 (...)** bitcast (i8** getelementptr inbounds ([10 x i8*]* @_ZTVSt14basic_ifstreamIcSt11char_traitsIcEE, i64 0, i64 8) to i32 (...)**), i32 (...)*** %6, align 8, !tbaa !46, !llfi_index !394
  %7 = getelementptr inbounds %"class.std::basic_ifstream"* %this, i64 0, i32 1, !llfi_index !395
  invoke void @_ZNSt13basic_filebufIcSt11char_traitsIcEEC1Ev(%"class.std::basic_filebuf"* %7)
          to label %8 unwind label %23, !llfi_index !396

; <label>:8                                       ; preds = %4
  %9 = bitcast %"class.std::basic_ifstream"* %this to i8**, !llfi_index !397
  %10 = load i8** %9, align 8, !tbaa !46, !llfi_index !398
  %11 = getelementptr i8* %10, i64 -24, !llfi_index !399
  %12 = bitcast i8* %11 to i64*, !llfi_index !400
  %13 = load i64* %12, align 8, !llfi_index !401
  %14 = getelementptr inbounds i8* %1, i64 %13, !llfi_index !402
  %15 = bitcast i8* %14 to %"class.std::basic_ios"*, !llfi_index !403
  %16 = getelementptr inbounds %"class.std::basic_filebuf"* %7, i64 0, i32 0, !llfi_index !404
  invoke void @_ZNSt9basic_iosIcSt11char_traitsIcEE4initEPSt15basic_streambufIcS1_E(%"class.std::basic_ios"* %15, %"class.std::basic_streambuf"* %16)
          to label %17 unwind label %27, !llfi_index !405

; <label>:17                                      ; preds = %8
  invoke void @_ZNSt14basic_ifstreamIcSt11char_traitsIcEE4openEPKcSt13_Ios_Openmode(%"class.std::basic_ifstream"* %this, i8* %__s, i32 %__mode)
          to label %18 unwind label %27, !llfi_index !406

; <label>:18                                      ; preds = %17
  ret void, !llfi_index !407

; <label>:19                                      ; preds = %0
  %20 = landingpad { i8*, i32 } personality i8* bitcast (i32 (...)* @__gxx_personality_v0 to i8*)
          cleanup, !llfi_index !408
  %21 = extractvalue { i8*, i32 } %20, 0, !llfi_index !409
  %22 = extractvalue { i8*, i32 } %20, 1, !llfi_index !410
  br label %32, !llfi_index !411

; <label>:23                                      ; preds = %4
  %24 = landingpad { i8*, i32 } personality i8* bitcast (i32 (...)* @__gxx_personality_v0 to i8*)
          cleanup, !llfi_index !412
  %25 = extractvalue { i8*, i32 } %24, 0, !llfi_index !413
  %26 = extractvalue { i8*, i32 } %24, 1, !llfi_index !414
  br label %31, !llfi_index !415

; <label>:27                                      ; preds = %17, %8
  %28 = landingpad { i8*, i32 } personality i8* bitcast (i32 (...)* @__gxx_personality_v0 to i8*)
          cleanup, !llfi_index !416
  %29 = extractvalue { i8*, i32 } %28, 0, !llfi_index !417
  %30 = extractvalue { i8*, i32 } %28, 1, !llfi_index !418
  invoke void @_ZNSt13basic_filebufIcSt11char_traitsIcEED1Ev(%"class.std::basic_filebuf"* %7)
          to label %31 unwind label %36, !llfi_index !419

; <label>:31                                      ; preds = %27, %23
  %.01 = phi i8* [ %29, %27 ], [ %25, %23 ], !llfi_index !420
  %.0 = phi i32 [ %30, %27 ], [ %26, %23 ], !llfi_index !421
  tail call void @_ZNSiD2Ev(%"class.std::basic_istream"* %3, i8** getelementptr inbounds ([4 x i8*]* @_ZTTSt14basic_ifstreamIcSt11char_traitsIcEE, i64 0, i64 1)), !llfi_index !422
  br label %32, !llfi_index !423

; <label>:32                                      ; preds = %31, %19
  %.12 = phi i8* [ %.01, %31 ], [ %21, %19 ], !llfi_index !424
  %.1 = phi i32 [ %.0, %31 ], [ %22, %19 ], !llfi_index !425
  invoke void @_ZNSt9basic_iosIcSt11char_traitsIcEED2Ev(%"class.std::basic_ios"* %2)
          to label %33 unwind label %36, !llfi_index !426

; <label>:33                                      ; preds = %32
  %34 = insertvalue { i8*, i32 } undef, i8* %.12, 0, !llfi_index !427
  %35 = insertvalue { i8*, i32 } %34, i32 %.1, 1, !llfi_index !428
  resume { i8*, i32 } %35, !llfi_index !429

; <label>:36                                      ; preds = %32, %27
  %37 = landingpad { i8*, i32 } personality i8* bitcast (i32 (...)* @__gxx_personality_v0 to i8*)
          catch i8* null, !llfi_index !430
  %38 = extractvalue { i8*, i32 } %37, 0, !llfi_index !431
  tail call void @__clang_call_terminate(i8* %38) #18, !llfi_index !432
  unreachable, !llfi_index !433
}

; Function Attrs: nounwind readonly uwtable
define available_externally i8* @_ZNKSt9basic_iosIcSt11char_traitsIcEEcvPvEv(%"class.std::basic_ios"* readonly %this) #6 align 2 {
  %1 = tail call zeroext i1 @_ZNKSt9basic_iosIcSt11char_traitsIcEE4failEv(%"class.std::basic_ios"* %this), !llfi_index !434
  %2 = bitcast %"class.std::basic_ios"* %this to i8*, !llfi_index !435
  %3 = select i1 %1, i8* null, i8* %2, !llfi_index !436
  ret i8* %3, !llfi_index !437
}

declare i32 @__gxx_personality_v0(...)

; Function Attrs: noreturn nounwind
declare void @__assert_fail(i8*, i8*, i32, i8*) #7

declare %"class.std::basic_istream"* @_ZNSi4readEPcl(%"class.std::basic_istream"*, i8*, i64) #0

; Function Attrs: inlinehint nounwind uwtable
define internal fastcc void @_ZL11bswap_floatf() #8 {
  unreachable, !llfi_index !438
}

; Function Attrs: inlinehint nounwind uwtable
define internal fastcc void @_ZL11bswap_int32i() #8 {
  unreachable, !llfi_index !439
}

; Function Attrs: nounwind
declare double @pow(double, double) #9

; Function Attrs: nounwind uwtable
define linkonce_odr { <2 x float>, float } @_ZNK4Vec3miERKS_(%class.Vec3* nocapture readonly %this, %class.Vec3* nocapture readonly %v) #2 align 2 {
  %1 = alloca %class.Vec3, align 8, !llfi_index !440
  %2 = getelementptr inbounds %class.Vec3* %this, i64 0, i32 0, !llfi_index !441
  %3 = load float* %2, align 4, !tbaa !8, !llfi_index !442
  %4 = getelementptr inbounds %class.Vec3* %v, i64 0, i32 0, !llfi_index !443
  %5 = load float* %4, align 4, !tbaa !8, !llfi_index !444
  %6 = fsub float %3, %5, !llfi_index !445
  %7 = getelementptr inbounds %class.Vec3* %this, i64 0, i32 1, !llfi_index !446
  %8 = load float* %7, align 4, !tbaa !15, !llfi_index !447
  %9 = getelementptr inbounds %class.Vec3* %v, i64 0, i32 1, !llfi_index !448
  %10 = load float* %9, align 4, !tbaa !15, !llfi_index !449
  %11 = fsub float %8, %10, !llfi_index !450
  %12 = getelementptr inbounds %class.Vec3* %this, i64 0, i32 2, !llfi_index !451
  %13 = load float* %12, align 4, !tbaa !18, !llfi_index !452
  %14 = getelementptr inbounds %class.Vec3* %v, i64 0, i32 2, !llfi_index !453
  %15 = load float* %14, align 4, !tbaa !18, !llfi_index !454
  %16 = fsub float %13, %15, !llfi_index !455
  call void @_ZN4Vec3C2Efff(%class.Vec3* %1, float %6, float %11, float %16), !llfi_index !456
  %17 = bitcast %class.Vec3* %1 to <2 x float>*, !llfi_index !457
  %18 = load <2 x float>* %17, align 8, !llfi_index !458
  %19 = getelementptr inbounds %class.Vec3* %1, i64 0, i32 2, !llfi_index !459
  %20 = load float* %19, align 8, !llfi_index !460
  %21 = insertvalue { <2 x float>, float } undef, <2 x float> %18, 0, !llfi_index !461
  %22 = insertvalue { <2 x float>, float } %21, float %20, 1, !llfi_index !462
  ret { <2 x float>, float } %22, !llfi_index !463
}

; Function Attrs: nounwind
declare void @llvm.memcpy.p0i8.p0i8.i64(i8* nocapture, i8* nocapture readonly, i64, i32, i1) #1

declare %"class.std::basic_ostream"* @_ZNSolsEi(%"class.std::basic_ostream"*, i32) #0

; Function Attrs: nounwind readnone
declare { i64, i1 } @llvm.umul.with.overflow.i64(i64, i64) #10

; Function Attrs: nobuiltin
declare noalias i8* @_Znam(i64) #11

; Function Attrs: inlinehint nounwind readnone uwtable
define linkonce_odr void @_ZN4CellC2Ev(%struct.Cell* nocapture %this) unnamed_addr #12 align 2 {
  ret void, !llfi_index !464
}

; Function Attrs: nobuiltin nounwind
declare void @_ZdaPv(i8*) #13

; Function Attrs: nounwind
declare void @llvm.memset.p0i8.i64(i8* nocapture, i8, i64, i32, i1) #1

; Function Attrs: uwtable
define available_externally void @_ZNSt14basic_ifstreamIcSt11char_traitsIcEED1Ev(%"class.std::basic_ifstream"* %this) unnamed_addr #4 align 2 {
  invoke void @_ZNSt14basic_ifstreamIcSt11char_traitsIcEED2Ev(%"class.std::basic_ifstream"* %this, i8** getelementptr inbounds ([4 x i8*]* @_ZTTSt14basic_ifstreamIcSt11char_traitsIcEE, i64 0, i64 0))
          to label %1 unwind label %3, !llfi_index !465

; <label>:1                                       ; preds = %0
  %2 = getelementptr inbounds %"class.std::basic_ifstream"* %this, i64 0, i32 2, !llfi_index !466
  tail call void @_ZNSt9basic_iosIcSt11char_traitsIcEED2Ev(%"class.std::basic_ios"* %2), !llfi_index !467
  ret void, !llfi_index !468

; <label>:3                                       ; preds = %0
  %4 = landingpad { i8*, i32 } personality i8* bitcast (i32 (...)* @__gxx_personality_v0 to i8*)
          cleanup, !llfi_index !469
  %5 = getelementptr inbounds %"class.std::basic_ifstream"* %this, i64 0, i32 2, !llfi_index !470
  invoke void @_ZNSt9basic_iosIcSt11char_traitsIcEED2Ev(%"class.std::basic_ios"* %5)
          to label %6 unwind label %7, !llfi_index !471

; <label>:6                                       ; preds = %3
  resume { i8*, i32 } %4, !llfi_index !472

; <label>:7                                       ; preds = %3
  %8 = landingpad { i8*, i32 } personality i8* bitcast (i32 (...)* @__gxx_personality_v0 to i8*)
          catch i8* null, !llfi_index !473
  %9 = extractvalue { i8*, i32 } %8, 0, !llfi_index !474
  tail call void @__clang_call_terminate(i8* %9) #18, !llfi_index !475
  unreachable, !llfi_index !476
}

; Function Attrs: noinline noreturn nounwind
define linkonce_odr hidden void @__clang_call_terminate(i8*) #14 {
  %2 = tail call i8* @__cxa_begin_catch(i8* %0) #1, !llfi_index !477
  tail call void @_ZSt9terminatev() #18, !llfi_index !478
  unreachable, !llfi_index !479
}

declare i8* @__cxa_begin_catch(i8*)

declare void @_ZSt9terminatev()

; Function Attrs: nounwind
declare void @llvm.lifetime.end(i64, i8* nocapture) #1

; Function Attrs: uwtable
define void @_Z8SaveFilePKc(i8* %fileName) #4 {
  %file = alloca %"class.std::basic_ofstream", align 8, !llfi_index !480
  %zero = alloca float, align 4, !llfi_index !481
  %1 = call %"class.std::basic_ostream"* @_ZStlsISt11char_traitsIcEERSt13basic_ostreamIcT_ES5_PKc(%"class.std::basic_ostream"* @_ZSt4cout, i8* getelementptr inbounds ([14 x i8]* @.str15, i64 0, i64 0)), !llfi_index !482
  %2 = call %"class.std::basic_ostream"* @_ZStlsISt11char_traitsIcEERSt13basic_ostreamIcT_ES5_PKc(%"class.std::basic_ostream"* %1, i8* %fileName), !llfi_index !483
  %3 = call %"class.std::basic_ostream"* @_ZStlsISt11char_traitsIcEERSt13basic_ostreamIcT_ES5_PKc(%"class.std::basic_ostream"* %2, i8* getelementptr inbounds ([5 x i8]* @.str5, i64 0, i64 0)), !llfi_index !484
  %4 = call %"class.std::basic_ostream"* @_ZNSolsEPFRSoS_E(%"class.std::basic_ostream"* %3, %"class.std::basic_ostream"* (%"class.std::basic_ostream"*)* @_ZSt4endlIcSt11char_traitsIcEERSt13basic_ostreamIT_T0_ES6_), !llfi_index !485
  %5 = bitcast %"class.std::basic_ofstream"* %file to i8*, !llfi_index !486
  call void @llvm.lifetime.start(i64 512, i8* %5) #1, !llfi_index !487
  call void @_ZNSt14basic_ofstreamIcSt11char_traitsIcEEC1EPKcSt13_Ios_Openmode(%"class.std::basic_ofstream"* %file, i8* %fileName, i32 4), !llfi_index !488
  %6 = bitcast %"class.std::basic_ofstream"* %file to i8**, !llfi_index !489
  %7 = load i8** %6, align 8, !tbaa !46, !llfi_index !490
  %8 = getelementptr i8* %7, i64 -24, !llfi_index !491
  %9 = bitcast i8* %8 to i64*, !llfi_index !492
  %10 = load i64* %9, align 8, !llfi_index !493
  %11 = getelementptr inbounds i8* %5, i64 %10, !llfi_index !494
  %12 = bitcast i8* %11 to %"class.std::basic_ios"*, !llfi_index !495
  %13 = call i8* @_ZNKSt9basic_iosIcSt11char_traitsIcEEcvPvEv(%"class.std::basic_ios"* %12), !llfi_index !496
  %14 = icmp eq i8* %13, null, !llfi_index !497
  br i1 %14, label %15, label %16, !llfi_index !498

; <label>:15                                      ; preds = %0
  call void @__assert_fail(i8* getelementptr inbounds ([5 x i8]* @.str6, i64 0, i64 0), i8* getelementptr inbounds ([11 x i8]* @.str7, i64 0, i64 0), i32 226, i8* getelementptr inbounds ([28 x i8]* @__PRETTY_FUNCTION__._Z8SaveFilePKc, i64 0, i64 0)) #18, !llfi_index !499
  unreachable, !llfi_index !500

.loopexit:                                        ; preds = %94, %92, %90, %88, %86, %84, %82, %80, %78
  %lpad.loopexit = landingpad { i8*, i32 } personality i8* bitcast (i32 (...)* @__gxx_personality_v0 to i8*)
          cleanup, !llfi_index !501
  br label %.nonloopexit, !llfi_index !502

.nonloopexit.loopexit:                            ; preds = %59, %55, %51, %47, %43, %39, %35, %31, %.lr.ph10
  %lpad.loopexit3 = landingpad { i8*, i32 } personality i8* bitcast (i32 (...)* @__gxx_personality_v0 to i8*)
          cleanup, !llfi_index !503
  br label %.nonloopexit, !llfi_index !504

.nonloopexit.nonloopexit:                         ; preds = %19, %16
  %lpad.nonloopexit4 = landingpad { i8*, i32 } personality i8* bitcast (i32 (...)* @__gxx_personality_v0 to i8*)
          cleanup, !llfi_index !505
  br label %.nonloopexit, !llfi_index !506

.nonloopexit:                                     ; preds = %.nonloopexit.nonloopexit, %.nonloopexit.loopexit, %.loopexit
  %lpad.phi = phi { i8*, i32 } [ %lpad.loopexit, %.loopexit ], [ %lpad.loopexit3, %.nonloopexit.loopexit ], [ %lpad.nonloopexit4, %.nonloopexit.nonloopexit ], !llfi_index !507
  invoke void @_ZNSt14basic_ofstreamIcSt11char_traitsIcEED1Ev(%"class.std::basic_ofstream"* %file)
          to label %99 unwind label %100, !llfi_index !508

; <label>:16                                      ; preds = %0
  %17 = bitcast %"class.std::basic_ofstream"* %file to %"class.std::basic_ostream"*, !llfi_index !509
  %18 = invoke %"class.std::basic_ostream"* @_ZNSo5writeEPKcl(%"class.std::basic_ostream"* %17, i8* bitcast (float* @restParticlesPerMeter to i8*), i64 4)
          to label %19 unwind label %.nonloopexit.nonloopexit, !llfi_index !510

; <label>:19                                      ; preds = %16
  %20 = invoke %"class.std::basic_ostream"* @_ZNSo5writeEPKcl(%"class.std::basic_ostream"* %17, i8* bitcast (i32* @origNumParticles to i8*), i64 4)
          to label %.preheader unwind label %.nonloopexit.nonloopexit, !llfi_index !511

.preheader:                                       ; preds = %19
  %21 = load i32* @numCells, align 4, !tbaa !62, !llfi_index !512
  %22 = icmp sgt i32 %21, 0, !llfi_index !513
  br i1 %22, label %.lr.ph15, label %._crit_edge16, !llfi_index !514

.lr.ph15:                                         ; preds = %._crit_edge11, %.preheader
  %indvars.iv18 = phi i64 [ %indvars.iv.next19, %._crit_edge11 ], [ 0, %.preheader ], !llfi_index !515
  %count.014 = phi i32 [ %count.1.lcssa, %._crit_edge11 ], [ 0, %.preheader ], !llfi_index !516
  %23 = load %struct.Cell** @cells, align 8, !tbaa !167, !llfi_index !517
  %24 = load i32** @cnumPars, align 8, !tbaa !167, !llfi_index !518
  %25 = getelementptr inbounds i32* %24, i64 %indvars.iv18, !llfi_index !519
  %26 = load i32* %25, align 4, !tbaa !62, !llfi_index !520
  %27 = icmp sgt i32 %26, 0, !llfi_index !521
  br i1 %27, label %.lr.ph10, label %._crit_edge11, !llfi_index !522

.lr.ph10:                                         ; preds = %63, %.lr.ph15
  %indvars.iv = phi i64 [ %indvars.iv.next, %63 ], [ 0, %.lr.ph15 ], !llfi_index !523
  %count.18 = phi i32 [ %64, %63 ], [ %count.014, %.lr.ph15 ], !llfi_index !524
  %28 = getelementptr inbounds %struct.Cell* %23, i64 %indvars.iv18, i32 0, i64 %indvars.iv, !llfi_index !525
  %29 = bitcast %class.Vec3* %28 to i8*, !llfi_index !526
  %30 = invoke %"class.std::basic_ostream"* @_ZNSo5writeEPKcl(%"class.std::basic_ostream"* %17, i8* %29, i64 4)
          to label %31 unwind label %.nonloopexit.loopexit, !llfi_index !527

; <label>:31                                      ; preds = %.lr.ph10
  %32 = getelementptr inbounds %struct.Cell* %23, i64 %indvars.iv18, i32 0, i64 %indvars.iv, i32 1, !llfi_index !528
  %33 = bitcast float* %32 to i8*, !llfi_index !529
  %34 = invoke %"class.std::basic_ostream"* @_ZNSo5writeEPKcl(%"class.std::basic_ostream"* %17, i8* %33, i64 4)
          to label %35 unwind label %.nonloopexit.loopexit, !llfi_index !530

; <label>:35                                      ; preds = %31
  %36 = getelementptr inbounds %struct.Cell* %23, i64 %indvars.iv18, i32 0, i64 %indvars.iv, i32 2, !llfi_index !531
  %37 = bitcast float* %36 to i8*, !llfi_index !532
  %38 = invoke %"class.std::basic_ostream"* @_ZNSo5writeEPKcl(%"class.std::basic_ostream"* %17, i8* %37, i64 4)
          to label %39 unwind label %.nonloopexit.loopexit, !llfi_index !533

; <label>:39                                      ; preds = %35
  %40 = getelementptr inbounds %struct.Cell* %23, i64 %indvars.iv18, i32 1, i64 %indvars.iv, !llfi_index !534
  %41 = bitcast %class.Vec3* %40 to i8*, !llfi_index !535
  %42 = invoke %"class.std::basic_ostream"* @_ZNSo5writeEPKcl(%"class.std::basic_ostream"* %17, i8* %41, i64 4)
          to label %43 unwind label %.nonloopexit.loopexit, !llfi_index !536

; <label>:43                                      ; preds = %39
  %44 = getelementptr inbounds %struct.Cell* %23, i64 %indvars.iv18, i32 1, i64 %indvars.iv, i32 1, !llfi_index !537
  %45 = bitcast float* %44 to i8*, !llfi_index !538
  %46 = invoke %"class.std::basic_ostream"* @_ZNSo5writeEPKcl(%"class.std::basic_ostream"* %17, i8* %45, i64 4)
          to label %47 unwind label %.nonloopexit.loopexit, !llfi_index !539

; <label>:47                                      ; preds = %43
  %48 = getelementptr inbounds %struct.Cell* %23, i64 %indvars.iv18, i32 1, i64 %indvars.iv, i32 2, !llfi_index !540
  %49 = bitcast float* %48 to i8*, !llfi_index !541
  %50 = invoke %"class.std::basic_ostream"* @_ZNSo5writeEPKcl(%"class.std::basic_ostream"* %17, i8* %49, i64 4)
          to label %51 unwind label %.nonloopexit.loopexit, !llfi_index !542

; <label>:51                                      ; preds = %47
  %52 = getelementptr inbounds %struct.Cell* %23, i64 %indvars.iv18, i32 2, i64 %indvars.iv, !llfi_index !543
  %53 = bitcast %class.Vec3* %52 to i8*, !llfi_index !544
  %54 = invoke %"class.std::basic_ostream"* @_ZNSo5writeEPKcl(%"class.std::basic_ostream"* %17, i8* %53, i64 4)
          to label %55 unwind label %.nonloopexit.loopexit, !llfi_index !545

; <label>:55                                      ; preds = %51
  %56 = getelementptr inbounds %struct.Cell* %23, i64 %indvars.iv18, i32 2, i64 %indvars.iv, i32 1, !llfi_index !546
  %57 = bitcast float* %56 to i8*, !llfi_index !547
  %58 = invoke %"class.std::basic_ostream"* @_ZNSo5writeEPKcl(%"class.std::basic_ostream"* %17, i8* %57, i64 4)
          to label %59 unwind label %.nonloopexit.loopexit, !llfi_index !548

; <label>:59                                      ; preds = %55
  %60 = getelementptr inbounds %struct.Cell* %23, i64 %indvars.iv18, i32 2, i64 %indvars.iv, i32 2, !llfi_index !549
  %61 = bitcast float* %60 to i8*, !llfi_index !550
  %62 = invoke %"class.std::basic_ostream"* @_ZNSo5writeEPKcl(%"class.std::basic_ostream"* %17, i8* %61, i64 4)
          to label %63 unwind label %.nonloopexit.loopexit, !llfi_index !551

; <label>:63                                      ; preds = %59
  %64 = add nsw i32 %count.18, 1, !llfi_index !552
  %indvars.iv.next = add nuw nsw i64 %indvars.iv, 1, !llfi_index !553
  %65 = trunc i64 %indvars.iv.next to i32, !llfi_index !554
  %66 = icmp slt i32 %65, %26, !llfi_index !555
  br i1 %66, label %.lr.ph10, label %._crit_edge11, !llfi_index !556

._crit_edge11:                                    ; preds = %63, %.lr.ph15
  %count.1.lcssa = phi i32 [ %count.014, %.lr.ph15 ], [ %64, %63 ], !llfi_index !557
  %indvars.iv.next19 = add nuw nsw i64 %indvars.iv18, 1, !llfi_index !558
  %67 = load i32* @numCells, align 4, !tbaa !62, !llfi_index !559
  %68 = trunc i64 %indvars.iv.next19 to i32, !llfi_index !560
  %69 = icmp slt i32 %68, %67, !llfi_index !561
  br i1 %69, label %.lr.ph15, label %._crit_edge16, !llfi_index !562

._crit_edge16:                                    ; preds = %._crit_edge11, %.preheader
  %count.0.lcssa = phi i32 [ 0, %.preheader ], [ %count.1.lcssa, %._crit_edge11 ], !llfi_index !563
  %70 = load i32* @numParticles, align 4, !tbaa !62, !llfi_index !564
  %71 = icmp eq i32 %count.0.lcssa, %70, !llfi_index !565
  br i1 %71, label %73, label %72, !llfi_index !566

; <label>:72                                      ; preds = %._crit_edge16
  call void @__assert_fail(i8* getelementptr inbounds ([22 x i8]* @.str16, i64 0, i64 0), i8* getelementptr inbounds ([11 x i8]* @.str7, i64 0, i64 0), i32 284, i8* getelementptr inbounds ([28 x i8]* @__PRETTY_FUNCTION__._Z8SaveFilePKc, i64 0, i64 0)) #18, !llfi_index !567
  unreachable, !llfi_index !568

; <label>:73                                      ; preds = %._crit_edge16
  %74 = load i32* @origNumParticles, align 4, !tbaa !62, !llfi_index !569
  %75 = sub nsw i32 %74, %70, !llfi_index !570
  store float 0.000000e+00, float* %zero, align 4, !tbaa !66, !llfi_index !571
  %76 = icmp sgt i32 %75, 0, !llfi_index !572
  br i1 %76, label %.lr.ph, label %._crit_edge, !llfi_index !573

.lr.ph:                                           ; preds = %73
  %77 = bitcast float* %zero to i8*, !llfi_index !574
  br label %78, !llfi_index !575

; <label>:78                                      ; preds = %96, %.lr.ph
  %i1.02 = phi i32 [ 0, %.lr.ph ], [ %97, %96 ], !llfi_index !576
  %79 = invoke %"class.std::basic_ostream"* @_ZNSo5writeEPKcl(%"class.std::basic_ostream"* %17, i8* %77, i64 4)
          to label %80 unwind label %.loopexit, !llfi_index !577

; <label>:80                                      ; preds = %78
  %81 = invoke %"class.std::basic_ostream"* @_ZNSo5writeEPKcl(%"class.std::basic_ostream"* %17, i8* %77, i64 4)
          to label %82 unwind label %.loopexit, !llfi_index !578

; <label>:82                                      ; preds = %80
  %83 = invoke %"class.std::basic_ostream"* @_ZNSo5writeEPKcl(%"class.std::basic_ostream"* %17, i8* %77, i64 4)
          to label %84 unwind label %.loopexit, !llfi_index !579

; <label>:84                                      ; preds = %82
  %85 = invoke %"class.std::basic_ostream"* @_ZNSo5writeEPKcl(%"class.std::basic_ostream"* %17, i8* %77, i64 4)
          to label %86 unwind label %.loopexit, !llfi_index !580

; <label>:86                                      ; preds = %84
  %87 = invoke %"class.std::basic_ostream"* @_ZNSo5writeEPKcl(%"class.std::basic_ostream"* %17, i8* %77, i64 4)
          to label %88 unwind label %.loopexit, !llfi_index !581

; <label>:88                                      ; preds = %86
  %89 = invoke %"class.std::basic_ostream"* @_ZNSo5writeEPKcl(%"class.std::basic_ostream"* %17, i8* %77, i64 4)
          to label %90 unwind label %.loopexit, !llfi_index !582

; <label>:90                                      ; preds = %88
  %91 = invoke %"class.std::basic_ostream"* @_ZNSo5writeEPKcl(%"class.std::basic_ostream"* %17, i8* %77, i64 4)
          to label %92 unwind label %.loopexit, !llfi_index !583

; <label>:92                                      ; preds = %90
  %93 = invoke %"class.std::basic_ostream"* @_ZNSo5writeEPKcl(%"class.std::basic_ostream"* %17, i8* %77, i64 4)
          to label %94 unwind label %.loopexit, !llfi_index !584

; <label>:94                                      ; preds = %92
  %95 = invoke %"class.std::basic_ostream"* @_ZNSo5writeEPKcl(%"class.std::basic_ostream"* %17, i8* %77, i64 4)
          to label %96 unwind label %.loopexit, !llfi_index !585

; <label>:96                                      ; preds = %94
  %97 = add nsw i32 %i1.02, 1, !llfi_index !586
  %98 = icmp slt i32 %97, %75, !llfi_index !587
  br i1 %98, label %78, label %._crit_edge, !llfi_index !588

._crit_edge:                                      ; preds = %96, %73
  call void @_ZNSt14basic_ofstreamIcSt11char_traitsIcEED1Ev(%"class.std::basic_ofstream"* %file), !llfi_index !589
  call void @llvm.lifetime.end(i64 512, i8* %5) #1, !llfi_index !590
  ret void, !llfi_index !591

; <label>:99                                      ; preds = %.nonloopexit
  resume { i8*, i32 } %lpad.phi, !llfi_index !592

; <label>:100                                     ; preds = %.nonloopexit
  %101 = landingpad { i8*, i32 } personality i8* bitcast (i32 (...)* @__gxx_personality_v0 to i8*)
          catch i8* null, !llfi_index !593
  %102 = extractvalue { i8*, i32 } %101, 0, !llfi_index !594
  call void @__clang_call_terminate(i8* %102) #18, !llfi_index !595
  unreachable, !llfi_index !596
}

; Function Attrs: uwtable
define available_externally void @_ZNSt14basic_ofstreamIcSt11char_traitsIcEEC1EPKcSt13_Ios_Openmode(%"class.std::basic_ofstream"* %this, i8* %__s, i32 %__mode) unnamed_addr #4 align 2 {
  %1 = bitcast %"class.std::basic_ofstream"* %this to i8*, !llfi_index !597
  %2 = getelementptr inbounds %"class.std::basic_ofstream"* %this, i64 0, i32 2, !llfi_index !598
  tail call void @_ZNSt9basic_iosIcSt11char_traitsIcEEC2Ev(%"class.std::basic_ios"* %2), !llfi_index !599
  %3 = bitcast %"class.std::basic_ofstream"* %this to %"class.std::basic_ostream"*, !llfi_index !600
  invoke void @_ZNSoC2Ev(%"class.std::basic_ostream"* %3, i8** getelementptr inbounds ([4 x i8*]* @_ZTTSt14basic_ofstreamIcSt11char_traitsIcEE, i64 0, i64 1))
          to label %4 unwind label %19, !llfi_index !601

; <label>:4                                       ; preds = %0
  %5 = getelementptr inbounds %"class.std::basic_ofstream"* %this, i64 0, i32 0, i32 0, !llfi_index !602
  store i32 (...)** bitcast (i8** getelementptr inbounds ([10 x i8*]* @_ZTVSt14basic_ofstreamIcSt11char_traitsIcEE, i64 0, i64 3) to i32 (...)**), i32 (...)*** %5, align 8, !tbaa !46, !llfi_index !603
  %6 = getelementptr inbounds %"class.std::basic_ios"* %2, i64 0, i32 0, i32 0, !llfi_index !604
  store i32 (...)** bitcast (i8** getelementptr inbounds ([10 x i8*]* @_ZTVSt14basic_ofstreamIcSt11char_traitsIcEE, i64 0, i64 8) to i32 (...)**), i32 (...)*** %6, align 8, !tbaa !46, !llfi_index !605
  %7 = getelementptr inbounds %"class.std::basic_ofstream"* %this, i64 0, i32 1, !llfi_index !606
  invoke void @_ZNSt13basic_filebufIcSt11char_traitsIcEEC1Ev(%"class.std::basic_filebuf"* %7)
          to label %8 unwind label %23, !llfi_index !607

; <label>:8                                       ; preds = %4
  %9 = bitcast %"class.std::basic_ofstream"* %this to i8**, !llfi_index !608
  %10 = load i8** %9, align 8, !tbaa !46, !llfi_index !609
  %11 = getelementptr i8* %10, i64 -24, !llfi_index !610
  %12 = bitcast i8* %11 to i64*, !llfi_index !611
  %13 = load i64* %12, align 8, !llfi_index !612
  %14 = getelementptr inbounds i8* %1, i64 %13, !llfi_index !613
  %15 = bitcast i8* %14 to %"class.std::basic_ios"*, !llfi_index !614
  %16 = getelementptr inbounds %"class.std::basic_filebuf"* %7, i64 0, i32 0, !llfi_index !615
  invoke void @_ZNSt9basic_iosIcSt11char_traitsIcEE4initEPSt15basic_streambufIcS1_E(%"class.std::basic_ios"* %15, %"class.std::basic_streambuf"* %16)
          to label %17 unwind label %27, !llfi_index !616

; <label>:17                                      ; preds = %8
  invoke void @_ZNSt14basic_ofstreamIcSt11char_traitsIcEE4openEPKcSt13_Ios_Openmode(%"class.std::basic_ofstream"* %this, i8* %__s, i32 %__mode)
          to label %18 unwind label %27, !llfi_index !617

; <label>:18                                      ; preds = %17
  ret void, !llfi_index !618

; <label>:19                                      ; preds = %0
  %20 = landingpad { i8*, i32 } personality i8* bitcast (i32 (...)* @__gxx_personality_v0 to i8*)
          cleanup, !llfi_index !619
  %21 = extractvalue { i8*, i32 } %20, 0, !llfi_index !620
  %22 = extractvalue { i8*, i32 } %20, 1, !llfi_index !621
  br label %31, !llfi_index !622

; <label>:23                                      ; preds = %4
  %24 = landingpad { i8*, i32 } personality i8* bitcast (i32 (...)* @__gxx_personality_v0 to i8*)
          cleanup, !llfi_index !623
  %25 = extractvalue { i8*, i32 } %24, 0, !llfi_index !624
  %26 = extractvalue { i8*, i32 } %24, 1, !llfi_index !625
  br label %31, !llfi_index !626

; <label>:27                                      ; preds = %17, %8
  %28 = landingpad { i8*, i32 } personality i8* bitcast (i32 (...)* @__gxx_personality_v0 to i8*)
          cleanup, !llfi_index !627
  %29 = extractvalue { i8*, i32 } %28, 0, !llfi_index !628
  %30 = extractvalue { i8*, i32 } %28, 1, !llfi_index !629
  invoke void @_ZNSt13basic_filebufIcSt11char_traitsIcEED1Ev(%"class.std::basic_filebuf"* %7)
          to label %31 unwind label %35, !llfi_index !630

; <label>:31                                      ; preds = %27, %23, %19
  %.12 = phi i8* [ %21, %19 ], [ %29, %27 ], [ %25, %23 ], !llfi_index !631
  %.1 = phi i32 [ %22, %19 ], [ %30, %27 ], [ %26, %23 ], !llfi_index !632
  invoke void @_ZNSt9basic_iosIcSt11char_traitsIcEED2Ev(%"class.std::basic_ios"* %2)
          to label %32 unwind label %35, !llfi_index !633

; <label>:32                                      ; preds = %31
  %33 = insertvalue { i8*, i32 } undef, i8* %.12, 0, !llfi_index !634
  %34 = insertvalue { i8*, i32 } %33, i32 %.1, 1, !llfi_index !635
  resume { i8*, i32 } %34, !llfi_index !636

; <label>:35                                      ; preds = %31, %27
  %36 = landingpad { i8*, i32 } personality i8* bitcast (i32 (...)* @__gxx_personality_v0 to i8*)
          catch i8* null, !llfi_index !637
  %37 = extractvalue { i8*, i32 } %36, 0, !llfi_index !638
  tail call void @__clang_call_terminate(i8* %37) #18, !llfi_index !639
  unreachable, !llfi_index !640
}

declare %"class.std::basic_ostream"* @_ZNSo5writeEPKcl(%"class.std::basic_ostream"*, i8*, i64) #0

; Function Attrs: uwtable
define available_externally void @_ZNSt14basic_ofstreamIcSt11char_traitsIcEED1Ev(%"class.std::basic_ofstream"* %this) unnamed_addr #4 align 2 {
  invoke void @_ZNSt14basic_ofstreamIcSt11char_traitsIcEED2Ev(%"class.std::basic_ofstream"* %this, i8** getelementptr inbounds ([4 x i8*]* @_ZTTSt14basic_ofstreamIcSt11char_traitsIcEE, i64 0, i64 0))
          to label %1 unwind label %3, !llfi_index !641

; <label>:1                                       ; preds = %0
  %2 = getelementptr inbounds %"class.std::basic_ofstream"* %this, i64 0, i32 2, !llfi_index !642
  tail call void @_ZNSt9basic_iosIcSt11char_traitsIcEED2Ev(%"class.std::basic_ios"* %2), !llfi_index !643
  ret void, !llfi_index !644

; <label>:3                                       ; preds = %0
  %4 = landingpad { i8*, i32 } personality i8* bitcast (i32 (...)* @__gxx_personality_v0 to i8*)
          cleanup, !llfi_index !645
  %5 = getelementptr inbounds %"class.std::basic_ofstream"* %this, i64 0, i32 2, !llfi_index !646
  invoke void @_ZNSt9basic_iosIcSt11char_traitsIcEED2Ev(%"class.std::basic_ios"* %5)
          to label %6 unwind label %7, !llfi_index !647

; <label>:6                                       ; preds = %3
  resume { i8*, i32 } %4, !llfi_index !648

; <label>:7                                       ; preds = %3
  %8 = landingpad { i8*, i32 } personality i8* bitcast (i32 (...)* @__gxx_personality_v0 to i8*)
          catch i8* null, !llfi_index !649
  %9 = extractvalue { i8*, i32 } %8, 0, !llfi_index !650
  tail call void @__clang_call_terminate(i8* %9) #18, !llfi_index !651
  unreachable, !llfi_index !652
}

; Function Attrs: nounwind uwtable
define void @_Z10CleanUpSimv() #2 {
  %1 = load %struct.Cell** @cells, align 8, !tbaa !167, !llfi_index !653
  %2 = icmp eq %struct.Cell* %1, null, !llfi_index !654
  br i1 %2, label %5, label %3, !llfi_index !655

; <label>:3                                       ; preds = %0
  %4 = bitcast %struct.Cell* %1 to i8*, !llfi_index !656
  tail call void @_ZdaPv(i8* %4) #20, !llfi_index !657
  br label %5, !llfi_index !658

; <label>:5                                       ; preds = %3, %0
  %6 = load %struct.Cell** @cells2, align 8, !tbaa !167, !llfi_index !659
  %7 = icmp eq %struct.Cell* %6, null, !llfi_index !660
  br i1 %7, label %10, label %8, !llfi_index !661

; <label>:8                                       ; preds = %5
  %9 = bitcast %struct.Cell* %6 to i8*, !llfi_index !662
  tail call void @_ZdaPv(i8* %9) #20, !llfi_index !663
  br label %10, !llfi_index !664

; <label>:10                                      ; preds = %8, %5
  %11 = load i32** @cnumPars, align 8, !tbaa !167, !llfi_index !665
  %12 = icmp eq i32* %11, null, !llfi_index !666
  br i1 %12, label %15, label %13, !llfi_index !667

; <label>:13                                      ; preds = %10
  %14 = bitcast i32* %11 to i8*, !llfi_index !668
  tail call void @_ZdaPv(i8* %14) #20, !llfi_index !669
  br label %15, !llfi_index !670

; <label>:15                                      ; preds = %13, %10
  %16 = load i32** @cnumPars2, align 8, !tbaa !167, !llfi_index !671
  %17 = icmp eq i32* %16, null, !llfi_index !672
  br i1 %17, label %20, label %18, !llfi_index !673

; <label>:18                                      ; preds = %15
  %19 = bitcast i32* %16 to i8*, !llfi_index !674
  tail call void @_ZdaPv(i8* %19) #20, !llfi_index !675
  br label %20, !llfi_index !676

; <label>:20                                      ; preds = %18, %15
  ret void, !llfi_index !677
}

; Function Attrs: nounwind uwtable
define void @_Z11RebuildGridv() #2 {
  %1 = load i32** @cnumPars, align 8, !tbaa !167, !llfi_index !678
  %2 = bitcast i32* %1 to i8*, !llfi_index !679
  %3 = load i32* @numCells, align 4, !tbaa !62, !llfi_index !680
  %4 = sext i32 %3 to i64, !llfi_index !681
  %5 = shl nsw i64 %4, 2, !llfi_index !682
  tail call void @llvm.memset.p0i8.i64(i8* %2, i8 0, i64 %5, i32 4, i1 false), !llfi_index !683
  %6 = load i32* @numCells, align 4, !tbaa !62, !llfi_index !684
  %7 = icmp sgt i32 %6, 0, !llfi_index !685
  br i1 %7, label %.lr.ph6, label %._crit_edge7, !llfi_index !686

.lr.ph6:                                          ; preds = %0
  %8 = load %struct.Cell** @cells2, align 8, !tbaa !167, !llfi_index !687
  %9 = load i32** @cnumPars2, align 8, !tbaa !167, !llfi_index !688
  %10 = load %struct.Cell** @cells, align 8, !tbaa !167, !llfi_index !689
  %11 = load i32** @cnumPars, align 8, !tbaa !167, !llfi_index !690
  br label %12, !llfi_index !691

; <label>:12                                      ; preds = %._crit_edge, %.lr.ph6
  %indvars.iv8 = phi i64 [ 0, %.lr.ph6 ], [ %indvars.iv.next9, %._crit_edge ], !llfi_index !692
  %13 = getelementptr inbounds i32* %9, i64 %indvars.iv8, !llfi_index !693
  %14 = load i32* %13, align 4, !tbaa !62, !llfi_index !694
  %15 = icmp sgt i32 %14, 0, !llfi_index !695
  br i1 %15, label %.lr.ph, label %._crit_edge, !llfi_index !696

.lr.ph:                                           ; preds = %54, %12
  %indvars.iv = phi i64 [ %indvars.iv.next, %54 ], [ 0, %12 ], !llfi_index !697
  %16 = getelementptr inbounds %struct.Cell* %8, i64 %indvars.iv8, i32 0, i64 %indvars.iv, i32 0, !llfi_index !698
  %17 = load float* %16, align 4, !tbaa !8, !llfi_index !699
  %18 = load float* getelementptr inbounds (%class.Vec3* @_ZL9domainMin, i64 0, i32 0), align 4, !tbaa !8, !llfi_index !700
  %19 = fsub float %17, %18, !llfi_index !701
  %20 = load float* getelementptr inbounds (%class.Vec3* @delta, i64 0, i32 0), align 4, !tbaa !8, !llfi_index !702
  %21 = fdiv float %19, %20, !llfi_index !703
  %22 = fptosi float %21 to i32, !llfi_index !704
  %23 = getelementptr inbounds %struct.Cell* %8, i64 %indvars.iv8, i32 0, i64 %indvars.iv, i32 1, !llfi_index !705
  %24 = load float* %23, align 4, !tbaa !15, !llfi_index !706
  %25 = load float* getelementptr inbounds (%class.Vec3* @_ZL9domainMin, i64 0, i32 1), align 4, !tbaa !15, !llfi_index !707
  %26 = fsub float %24, %25, !llfi_index !708
  %27 = load float* getelementptr inbounds (%class.Vec3* @delta, i64 0, i32 1), align 4, !tbaa !15, !llfi_index !709
  %28 = fdiv float %26, %27, !llfi_index !710
  %29 = fptosi float %28 to i32, !llfi_index !711
  %30 = getelementptr inbounds %struct.Cell* %8, i64 %indvars.iv8, i32 0, i64 %indvars.iv, i32 2, !llfi_index !712
  %31 = load float* %30, align 4, !tbaa !18, !llfi_index !713
  %32 = load float* getelementptr inbounds (%class.Vec3* @_ZL9domainMin, i64 0, i32 2), align 4, !tbaa !18, !llfi_index !714
  %33 = fsub float %31, %32, !llfi_index !715
  %34 = load float* getelementptr inbounds (%class.Vec3* @delta, i64 0, i32 2), align 4, !tbaa !18, !llfi_index !716
  %35 = fdiv float %33, %34, !llfi_index !717
  %36 = fptosi float %35 to i32, !llfi_index !718
  %37 = icmp slt i32 %22, 0, !llfi_index !719
  br i1 %37, label %42, label %38, !llfi_index !720

; <label>:38                                      ; preds = %.lr.ph
  %39 = load i32* @nx, align 4, !tbaa !62, !llfi_index !721
  %40 = add nsw i32 %39, -1, !llfi_index !722
  %41 = icmp sgt i32 %22, %40, !llfi_index !723
  %. = select i1 %41, i32 %40, i32 %22, !llfi_index !724
  br label %42, !llfi_index !725

; <label>:42                                      ; preds = %38, %.lr.ph
  %ci.0 = phi i32 [ 0, %.lr.ph ], [ %., %38 ], !llfi_index !726
  %43 = icmp slt i32 %29, 0, !llfi_index !727
  br i1 %43, label %48, label %44, !llfi_index !728

; <label>:44                                      ; preds = %42
  %45 = load i32* @ny, align 4, !tbaa !62, !llfi_index !729
  %46 = add nsw i32 %45, -1, !llfi_index !730
  %47 = icmp sgt i32 %29, %46, !llfi_index !731
  %.1 = select i1 %47, i32 %46, i32 %29, !llfi_index !732
  br label %48, !llfi_index !733

; <label>:48                                      ; preds = %44, %42
  %cj.0 = phi i32 [ 0, %42 ], [ %.1, %44 ], !llfi_index !734
  %49 = icmp slt i32 %36, 0, !llfi_index !735
  br i1 %49, label %54, label %50, !llfi_index !736

; <label>:50                                      ; preds = %48
  %51 = load i32* @nz, align 4, !tbaa !62, !llfi_index !737
  %52 = add nsw i32 %51, -1, !llfi_index !738
  %53 = icmp sgt i32 %36, %52, !llfi_index !739
  %.2 = select i1 %53, i32 %52, i32 %36, !llfi_index !740
  br label %54, !llfi_index !741

; <label>:54                                      ; preds = %50, %48
  %ck.0 = phi i32 [ 0, %48 ], [ %.2, %50 ], !llfi_index !742
  %55 = load i32* @ny, align 4, !tbaa !62, !llfi_index !743
  %56 = mul nsw i32 %55, %ck.0, !llfi_index !744
  %57 = add nsw i32 %56, %cj.0, !llfi_index !745
  %58 = load i32* @nx, align 4, !tbaa !62, !llfi_index !746
  %59 = mul nsw i32 %57, %58, !llfi_index !747
  %60 = add nsw i32 %59, %ci.0, !llfi_index !748
  %61 = sext i32 %60 to i64, !llfi_index !749
  %62 = getelementptr inbounds i32* %11, i64 %61, !llfi_index !750
  %63 = load i32* %62, align 4, !tbaa !62, !llfi_index !751
  %64 = load float* %16, align 4, !tbaa !8, !llfi_index !752
  %65 = sext i32 %63 to i64, !llfi_index !753
  %66 = getelementptr inbounds %struct.Cell* %10, i64 %61, i32 0, i64 %65, i32 0, !llfi_index !754
  store float %64, float* %66, align 4, !tbaa !8, !llfi_index !755
  %67 = load float* %23, align 4, !tbaa !15, !llfi_index !756
  %68 = getelementptr inbounds %struct.Cell* %10, i64 %61, i32 0, i64 %65, i32 1, !llfi_index !757
  store float %67, float* %68, align 4, !tbaa !15, !llfi_index !758
  %69 = load float* %30, align 4, !tbaa !18, !llfi_index !759
  %70 = getelementptr inbounds %struct.Cell* %10, i64 %61, i32 0, i64 %65, i32 2, !llfi_index !760
  store float %69, float* %70, align 4, !tbaa !18, !llfi_index !761
  %71 = getelementptr inbounds %struct.Cell* %8, i64 %indvars.iv8, i32 1, i64 %indvars.iv, i32 0, !llfi_index !762
  %72 = load float* %71, align 4, !tbaa !8, !llfi_index !763
  %73 = getelementptr inbounds %struct.Cell* %10, i64 %61, i32 1, i64 %65, i32 0, !llfi_index !764
  store float %72, float* %73, align 4, !tbaa !8, !llfi_index !765
  %74 = getelementptr inbounds %struct.Cell* %8, i64 %indvars.iv8, i32 1, i64 %indvars.iv, i32 1, !llfi_index !766
  %75 = load float* %74, align 4, !tbaa !15, !llfi_index !767
  %76 = getelementptr inbounds %struct.Cell* %10, i64 %61, i32 1, i64 %65, i32 1, !llfi_index !768
  store float %75, float* %76, align 4, !tbaa !15, !llfi_index !769
  %77 = getelementptr inbounds %struct.Cell* %8, i64 %indvars.iv8, i32 1, i64 %indvars.iv, i32 2, !llfi_index !770
  %78 = load float* %77, align 4, !tbaa !18, !llfi_index !771
  %79 = getelementptr inbounds %struct.Cell* %10, i64 %61, i32 1, i64 %65, i32 2, !llfi_index !772
  store float %78, float* %79, align 4, !tbaa !18, !llfi_index !773
  %80 = getelementptr inbounds %struct.Cell* %8, i64 %indvars.iv8, i32 2, i64 %indvars.iv, i32 0, !llfi_index !774
  %81 = load float* %80, align 4, !tbaa !8, !llfi_index !775
  %82 = getelementptr inbounds %struct.Cell* %10, i64 %61, i32 2, i64 %65, i32 0, !llfi_index !776
  store float %81, float* %82, align 4, !tbaa !8, !llfi_index !777
  %83 = getelementptr inbounds %struct.Cell* %8, i64 %indvars.iv8, i32 2, i64 %indvars.iv, i32 1, !llfi_index !778
  %84 = load float* %83, align 4, !tbaa !15, !llfi_index !779
  %85 = getelementptr inbounds %struct.Cell* %10, i64 %61, i32 2, i64 %65, i32 1, !llfi_index !780
  store float %84, float* %85, align 4, !tbaa !15, !llfi_index !781
  %86 = getelementptr inbounds %struct.Cell* %8, i64 %indvars.iv8, i32 2, i64 %indvars.iv, i32 2, !llfi_index !782
  %87 = load float* %86, align 4, !tbaa !18, !llfi_index !783
  %88 = getelementptr inbounds %struct.Cell* %10, i64 %61, i32 2, i64 %65, i32 2, !llfi_index !784
  store float %87, float* %88, align 4, !tbaa !18, !llfi_index !785
  %89 = getelementptr inbounds i32* %11, i64 %61, !llfi_index !786
  %90 = load i32* %89, align 4, !tbaa !62, !llfi_index !787
  %91 = add nsw i32 %90, 1, !llfi_index !788
  store i32 %91, i32* %89, align 4, !tbaa !62, !llfi_index !789
  %indvars.iv.next = add nuw nsw i64 %indvars.iv, 1, !llfi_index !790
  %lftr.wideiv = trunc i64 %indvars.iv.next to i32, !llfi_index !791
  %exitcond = icmp eq i32 %lftr.wideiv, %14, !llfi_index !792
  br i1 %exitcond, label %._crit_edge, label %.lr.ph, !llfi_index !793

._crit_edge:                                      ; preds = %54, %12
  %indvars.iv.next9 = add nuw nsw i64 %indvars.iv8, 1, !llfi_index !794
  %92 = load i32* @numCells, align 4, !tbaa !62, !llfi_index !795
  %93 = trunc i64 %indvars.iv.next9 to i32, !llfi_index !796
  %94 = icmp slt i32 %93, %92, !llfi_index !797
  br i1 %94, label %12, label %._crit_edge7, !llfi_index !798

._crit_edge7:                                     ; preds = %._crit_edge, %0
  ret void, !llfi_index !799
}

; Function Attrs: nounwind uwtable
define i32 @_Z16GetNeighborCellsiiiPi(i32 %ci, i32 %cj, i32 %ck, i32* nocapture %neighCells) #2 {
  %1 = load i32** @cnumPars, align 8, !tbaa !167, !llfi_index !800
  br label %.preheader8, !llfi_index !801

.preheader8:                                      ; preds = %34, %0
  %numNeighCells.012 = phi i32 [ 0, %0 ], [ %numNeighCells.3, %34 ], !llfi_index !802
  %di.011 = phi i32 [ -1, %0 ], [ %35, %34 ], !llfi_index !803
  %2 = add nsw i32 %di.011, %ci, !llfi_index !804
  %3 = icmp sgt i32 %2, -1, !llfi_index !805
  br label %.preheader, !llfi_index !806

.preheader:                                       ; preds = %32, %.preheader8
  %numNeighCells.110 = phi i32 [ %numNeighCells.012, %.preheader8 ], [ %numNeighCells.3, %32 ], !llfi_index !807
  %dj.09 = phi i32 [ -1, %.preheader8 ], [ %33, %32 ], !llfi_index !808
  %4 = add nsw i32 %dj.09, %cj, !llfi_index !809
  %5 = icmp sgt i32 %4, -1, !llfi_index !810
  br label %6, !llfi_index !811

; <label>:6                                       ; preds = %30, %.preheader
  %numNeighCells.27 = phi i32 [ %numNeighCells.110, %.preheader ], [ %numNeighCells.3, %30 ], !llfi_index !812
  %dk.06 = phi i32 [ -1, %.preheader ], [ %31, %30 ], !llfi_index !813
  %7 = add nsw i32 %dk.06, %ck, !llfi_index !814
  br i1 %3, label %8, label %30, !llfi_index !815

; <label>:8                                       ; preds = %6
  %9 = load i32* @nx, align 4, !tbaa !62, !llfi_index !816
  %10 = icmp slt i32 %2, %9, !llfi_index !817
  %or.cond = and i1 %10, %5, !llfi_index !818
  br i1 %or.cond, label %11, label %30, !llfi_index !819

; <label>:11                                      ; preds = %8
  %12 = load i32* @ny, align 4, !tbaa !62, !llfi_index !820
  %13 = icmp slt i32 %4, %12, !llfi_index !821
  %14 = icmp sgt i32 %7, -1, !llfi_index !822
  %or.cond3 = and i1 %13, %14, !llfi_index !823
  %15 = load i32* @nz, align 4, !tbaa !62, !llfi_index !824
  %16 = icmp slt i32 %7, %15, !llfi_index !825
  %or.cond5 = and i1 %or.cond3, %16, !llfi_index !826
  br i1 %or.cond5, label %17, label %30, !llfi_index !827

; <label>:17                                      ; preds = %11
  %18 = mul nsw i32 %12, %7, !llfi_index !828
  %19 = add nsw i32 %18, %4, !llfi_index !829
  %20 = mul nsw i32 %19, %9, !llfi_index !830
  %21 = add nsw i32 %20, %2, !llfi_index !831
  %22 = sext i32 %21 to i64, !llfi_index !832
  %23 = getelementptr inbounds i32* %1, i64 %22, !llfi_index !833
  %24 = load i32* %23, align 4, !tbaa !62, !llfi_index !834
  %25 = icmp eq i32 %24, 0, !llfi_index !835
  br i1 %25, label %30, label %26, !llfi_index !836

; <label>:26                                      ; preds = %17
  %27 = sext i32 %numNeighCells.27 to i64, !llfi_index !837
  %28 = getelementptr inbounds i32* %neighCells, i64 %27, !llfi_index !838
  store i32 %21, i32* %28, align 4, !tbaa !62, !llfi_index !839
  %29 = add nsw i32 %numNeighCells.27, 1, !llfi_index !840
  br label %30, !llfi_index !841

; <label>:30                                      ; preds = %26, %17, %11, %8, %6
  %numNeighCells.3 = phi i32 [ %29, %26 ], [ %numNeighCells.27, %17 ], [ %numNeighCells.27, %11 ], [ %numNeighCells.27, %8 ], [ %numNeighCells.27, %6 ], !llfi_index !842
  %31 = add nsw i32 %dk.06, 1, !llfi_index !843
  %exitcond = icmp eq i32 %31, 2, !llfi_index !844
  br i1 %exitcond, label %32, label %6, !llfi_index !845

; <label>:32                                      ; preds = %30
  %33 = add nsw i32 %dj.09, 1, !llfi_index !846
  %exitcond13 = icmp eq i32 %33, 2, !llfi_index !847
  br i1 %exitcond13, label %34, label %.preheader, !llfi_index !848

; <label>:34                                      ; preds = %32
  %35 = add nsw i32 %di.011, 1, !llfi_index !849
  %exitcond14 = icmp eq i32 %35, 2, !llfi_index !850
  br i1 %exitcond14, label %36, label %.preheader8, !llfi_index !851

; <label>:36                                      ; preds = %34
  ret i32 %numNeighCells.3, !llfi_index !852
}

; Function Attrs: nounwind uwtable
define void @_Z13ComputeForcesv() #2 {
  %neighCells = alloca [27 x i32], align 16, !llfi_index !853
  %1 = alloca %class.Vec3, align 8, !llfi_index !854
  %disp = alloca %class.Vec3, align 8, !llfi_index !855
  %distSq19 = alloca float, align 4, !llfi_index !856
  %2 = alloca float, align 4, !llfi_index !857
  %acc = alloca %class.Vec3, align 8, !llfi_index !858
  %3 = alloca %class.Vec3, align 8, !llfi_index !859
  %4 = alloca %class.Vec3, align 8, !llfi_index !860
  %5 = alloca %class.Vec3, align 8, !llfi_index !861
  %6 = alloca %class.Vec3, align 8, !llfi_index !862
  %7 = alloca %class.Vec3, align 8, !llfi_index !863
  %8 = load i32* @numCells, align 4, !tbaa !62, !llfi_index !864
  %9 = icmp sgt i32 %8, 0, !llfi_index !865
  br i1 %9, label %.lr.ph90, label %._crit_edge91, !llfi_index !866

.lr.ph90:                                         ; preds = %0
  %10 = load %struct.Cell** @cells, align 8, !tbaa !167, !llfi_index !867
  %11 = load i32** @cnumPars, align 8, !tbaa !167, !llfi_index !868
  br label %12, !llfi_index !869

; <label>:12                                      ; preds = %._crit_edge87, %.lr.ph90
  %indvars.iv128 = phi i64 [ 0, %.lr.ph90 ], [ %indvars.iv.next129, %._crit_edge87 ], !llfi_index !870
  %13 = getelementptr inbounds i32* %11, i64 %indvars.iv128, !llfi_index !871
  %14 = load i32* %13, align 4, !tbaa !62, !llfi_index !872
  %15 = icmp sgt i32 %14, 0, !llfi_index !873
  br i1 %15, label %.lr.ph86, label %._crit_edge87, !llfi_index !874

.lr.ph86:                                         ; preds = %.lr.ph86, %12
  %indvars.iv123 = phi i64 [ %indvars.iv.next124, %.lr.ph86 ], [ 0, %12 ], !llfi_index !875
  %16 = getelementptr inbounds %struct.Cell* %10, i64 %indvars.iv128, i32 4, i64 %indvars.iv123, !llfi_index !876
  store float 0.000000e+00, float* %16, align 4, !tbaa !66, !llfi_index !877
  %17 = getelementptr inbounds %struct.Cell* %10, i64 %indvars.iv128, i32 3, i64 %indvars.iv123, !llfi_index !878
  %18 = bitcast %class.Vec3* %17 to i8*, !llfi_index !879
  call void @llvm.memcpy.p0i8.p0i8.i64(i8* %18, i8* bitcast (%class.Vec3* @_ZL20externalAcceleration to i8*), i64 12, i32 4, i1 false), !tbaa.struct !880, !llfi_index !881
  %indvars.iv.next124 = add nuw nsw i64 %indvars.iv123, 1, !llfi_index !882
  %lftr.wideiv125 = trunc i64 %indvars.iv.next124 to i32, !llfi_index !883
  %exitcond126 = icmp eq i32 %lftr.wideiv125, %14, !llfi_index !884
  br i1 %exitcond126, label %._crit_edge87, label %.lr.ph86, !llfi_index !885

._crit_edge87:                                    ; preds = %.lr.ph86, %12
  %indvars.iv.next129 = add nuw nsw i64 %indvars.iv128, 1, !llfi_index !886
  %19 = load i32* @numCells, align 4, !tbaa !62, !llfi_index !887
  %20 = trunc i64 %indvars.iv.next129 to i32, !llfi_index !888
  %21 = icmp slt i32 %20, %19, !llfi_index !889
  br i1 %21, label %12, label %._crit_edge91, !llfi_index !890

._crit_edge91:                                    ; preds = %._crit_edge87, %0
  %22 = bitcast [27 x i32]* %neighCells to i8*, !llfi_index !891
  call void @llvm.lifetime.start(i64 108, i8* %22) #1, !llfi_index !892
  %23 = load i32* @nz, align 4, !tbaa !62, !llfi_index !893
  %24 = icmp sgt i32 %23, 0, !llfi_index !894
  br i1 %24, label %.preheader76.lr.ph, label %._crit_edge83, !llfi_index !895

.preheader76.lr.ph:                               ; preds = %._crit_edge91
  %25 = getelementptr inbounds [27 x i32]* %neighCells, i64 0, i64 0, !llfi_index !896
  %26 = bitcast %class.Vec3* %1 to <2 x float>*, !llfi_index !897
  %27 = getelementptr inbounds %class.Vec3* %1, i64 0, i32 2, !llfi_index !898
  br label %.preheader76, !llfi_index !899

.preheader76:                                     ; preds = %._crit_edge79, %.preheader76.lr.ph
  %cindex.082 = phi i32 [ 0, %.preheader76.lr.ph ], [ %cindex.1.lcssa, %._crit_edge79 ], !llfi_index !900
  %ck.081 = phi i32 [ 0, %.preheader76.lr.ph ], [ %80, %._crit_edge79 ], !llfi_index !901
  %28 = load i32* @ny, align 4, !tbaa !62, !llfi_index !902
  %29 = icmp sgt i32 %28, 0, !llfi_index !903
  br i1 %29, label %.preheader70, label %._crit_edge79, !llfi_index !904

.preheader70:                                     ; preds = %._crit_edge74, %.preheader76
  %cindex.178 = phi i32 [ %cindex.2.lcssa, %._crit_edge74 ], [ %cindex.082, %.preheader76 ], !llfi_index !905
  %cj.077 = phi i32 [ %77, %._crit_edge74 ], [ 0, %.preheader76 ], !llfi_index !906
  %30 = load i32* @nx, align 4, !tbaa !62, !llfi_index !907
  %31 = icmp sgt i32 %30, 0, !llfi_index !908
  br i1 %31, label %.lr.ph73, label %._crit_edge74, !llfi_index !909

.lr.ph73:                                         ; preds = %.preheader70
  %32 = sext i32 %cindex.178 to i64, !llfi_index !910
  br label %33, !llfi_index !911

; <label>:33                                      ; preds = %.loopexit68, %.lr.ph73
  %indvars.iv121 = phi i64 [ %32, %.lr.ph73 ], [ %indvars.iv.next122, %.loopexit68 ], !llfi_index !912
  %cindex.272 = phi i32 [ %cindex.178, %.lr.ph73 ], [ %74, %.loopexit68 ], !llfi_index !913
  %ci.071 = phi i32 [ 0, %.lr.ph73 ], [ %73, %.loopexit68 ], !llfi_index !914
  %34 = load i32** @cnumPars, align 8, !tbaa !167, !llfi_index !915
  %35 = getelementptr inbounds i32* %34, i64 %indvars.iv121, !llfi_index !916
  %36 = load i32* %35, align 4, !tbaa !62, !llfi_index !917
  %37 = icmp eq i32 %36, 0, !llfi_index !918
  br i1 %37, label %.loopexit68, label %38, !llfi_index !919

; <label>:38                                      ; preds = %33
  %39 = call i32 @_Z16GetNeighborCellsiiiPi(i32 %ci.071, i32 %cj.077, i32 %ck.081, i32* %25), !llfi_index !920
  %40 = load %struct.Cell** @cells, align 8, !tbaa !167, !llfi_index !921
  %41 = icmp sgt i32 %36, 0, !llfi_index !922
  br i1 %41, label %.preheader64.lr.ph, label %.loopexit68, !llfi_index !923

.preheader64.lr.ph:                               ; preds = %38
  %42 = icmp sgt i32 %39, 0, !llfi_index !924
  br label %.preheader64, !llfi_index !925

.preheader64:                                     ; preds = %._crit_edge67, %.preheader64.lr.ph
  %indvars.iv116 = phi i64 [ 0, %.preheader64.lr.ph ], [ %indvars.iv.next117, %._crit_edge67 ], !llfi_index !926
  br i1 %42, label %.lr.ph66, label %._crit_edge67, !llfi_index !927

.lr.ph66:                                         ; preds = %.preheader64
  %43 = getelementptr inbounds %struct.Cell* %40, i64 %indvars.iv121, i32 0, i64 %indvars.iv116, !llfi_index !928
  %44 = getelementptr inbounds %struct.Cell* %40, i64 %indvars.iv121, i32 4, i64 %indvars.iv116, !llfi_index !929
  br label %45, !llfi_index !930

; <label>:45                                      ; preds = %._crit_edge63, %.lr.ph66
  %indvars.iv112 = phi i64 [ 0, %.lr.ph66 ], [ %indvars.iv.next113, %._crit_edge63 ], !llfi_index !931
  %46 = getelementptr inbounds [27 x i32]* %neighCells, i64 0, i64 %indvars.iv112, !llfi_index !932
  %47 = load i32* %46, align 4, !tbaa !62, !llfi_index !933
  %48 = sext i32 %47 to i64, !llfi_index !934
  %49 = load %struct.Cell** @cells, align 8, !tbaa !167, !llfi_index !935
  %50 = load i32** @cnumPars, align 8, !tbaa !167, !llfi_index !936
  %51 = getelementptr inbounds i32* %50, i64 %48, !llfi_index !937
  %52 = load i32* %51, align 4, !tbaa !62, !llfi_index !938
  %53 = icmp sgt i32 %52, 0, !llfi_index !939
  br i1 %53, label %.lr.ph62, label %._crit_edge63, !llfi_index !940

.lr.ph62:                                         ; preds = %72, %45
  %indvars.iv108 = phi i64 [ %indvars.iv.next109, %72 ], [ 0, %45 ], !llfi_index !941
  %54 = getelementptr inbounds %struct.Cell* %49, i64 %48, i32 0, i64 %indvars.iv108, !llfi_index !942
  %55 = icmp ult %class.Vec3* %54, %43, !llfi_index !943
  br i1 %55, label %56, label %72, !llfi_index !944

; <label>:56                                      ; preds = %.lr.ph62
  %57 = call { <2 x float>, float } @_ZNK4Vec3miERKS_(%class.Vec3* %43, %class.Vec3* %54), !llfi_index !945
  %58 = extractvalue { <2 x float>, float } %57, 0, !llfi_index !946
  %59 = extractvalue { <2 x float>, float } %57, 1, !llfi_index !947
  store <2 x float> %58, <2 x float>* %26, align 8, !llfi_index !948
  store float %59, float* %27, align 8, !llfi_index !949
  %60 = call float @_ZNK4Vec311GetLengthSqEv(%class.Vec3* %1), !llfi_index !950
  %61 = load float* @hSq, align 4, !tbaa !66, !llfi_index !951
  %62 = fcmp olt float %60, %61, !llfi_index !952
  br i1 %62, label %63, label %72, !llfi_index !953

; <label>:63                                      ; preds = %56
  %64 = fsub float %61, %60, !llfi_index !954
  %65 = fmul float %64, %64, !llfi_index !955
  %66 = fmul float %64, %65, !llfi_index !956
  %67 = load float* %44, align 4, !tbaa !66, !llfi_index !957
  %68 = fadd float %66, %67, !llfi_index !958
  store float %68, float* %44, align 4, !tbaa !66, !llfi_index !959
  %69 = getelementptr inbounds %struct.Cell* %49, i64 %48, i32 4, i64 %indvars.iv108, !llfi_index !960
  %70 = load float* %69, align 4, !tbaa !66, !llfi_index !961
  %71 = fadd float %66, %70, !llfi_index !962
  store float %71, float* %69, align 4, !tbaa !66, !llfi_index !963
  br label %72, !llfi_index !964

; <label>:72                                      ; preds = %63, %56, %.lr.ph62
  %indvars.iv.next109 = add nuw nsw i64 %indvars.iv108, 1, !llfi_index !965
  %lftr.wideiv110 = trunc i64 %indvars.iv.next109 to i32, !llfi_index !966
  %exitcond111 = icmp eq i32 %lftr.wideiv110, %52, !llfi_index !967
  br i1 %exitcond111, label %._crit_edge63, label %.lr.ph62, !llfi_index !968

._crit_edge63:                                    ; preds = %72, %45
  %indvars.iv.next113 = add nuw nsw i64 %indvars.iv112, 1, !llfi_index !969
  %lftr.wideiv114 = trunc i64 %indvars.iv.next113 to i32, !llfi_index !970
  %exitcond115 = icmp eq i32 %lftr.wideiv114, %39, !llfi_index !971
  br i1 %exitcond115, label %._crit_edge67, label %45, !llfi_index !972

._crit_edge67:                                    ; preds = %._crit_edge63, %.preheader64
  %indvars.iv.next117 = add nuw nsw i64 %indvars.iv116, 1, !llfi_index !973
  %lftr.wideiv118 = trunc i64 %indvars.iv.next117 to i32, !llfi_index !974
  %exitcond119 = icmp eq i32 %lftr.wideiv118, %36, !llfi_index !975
  br i1 %exitcond119, label %.loopexit68, label %.preheader64, !llfi_index !976

.loopexit68:                                      ; preds = %._crit_edge67, %38, %33
  %73 = add nsw i32 %ci.071, 1, !llfi_index !977
  %indvars.iv.next122 = add nsw i64 %indvars.iv121, 1, !llfi_index !978
  %74 = add nsw i32 %cindex.272, 1, !llfi_index !979
  %75 = load i32* @nx, align 4, !tbaa !62, !llfi_index !980
  %76 = icmp slt i32 %73, %75, !llfi_index !981
  br i1 %76, label %33, label %._crit_edge74, !llfi_index !982

._crit_edge74:                                    ; preds = %.loopexit68, %.preheader70
  %cindex.2.lcssa = phi i32 [ %cindex.178, %.preheader70 ], [ %74, %.loopexit68 ], !llfi_index !983
  %77 = add nsw i32 %cj.077, 1, !llfi_index !984
  %78 = load i32* @ny, align 4, !tbaa !62, !llfi_index !985
  %79 = icmp slt i32 %77, %78, !llfi_index !986
  br i1 %79, label %.preheader70, label %._crit_edge79, !llfi_index !987

._crit_edge79:                                    ; preds = %._crit_edge74, %.preheader76
  %cindex.1.lcssa = phi i32 [ %cindex.082, %.preheader76 ], [ %cindex.2.lcssa, %._crit_edge74 ], !llfi_index !988
  %80 = add nsw i32 %ck.081, 1, !llfi_index !989
  %81 = load i32* @nz, align 4, !tbaa !62, !llfi_index !990
  %82 = icmp slt i32 %80, %81, !llfi_index !991
  br i1 %82, label %.preheader76, label %._crit_edge83, !llfi_index !992

._crit_edge83:                                    ; preds = %._crit_edge79, %._crit_edge91
  %83 = load float* @hSq, align 4, !tbaa !66, !llfi_index !993
  %84 = fmul float %83, %83, !llfi_index !994
  %85 = fmul float %83, %84, !llfi_index !995
  %86 = load i32* @numCells, align 4, !tbaa !62, !llfi_index !996
  %87 = icmp sgt i32 %86, 0, !llfi_index !997
  br i1 %87, label %.lr.ph59, label %.preheader49, !llfi_index !998

.lr.ph59:                                         ; preds = %._crit_edge83
  %88 = load %struct.Cell** @cells, align 8, !tbaa !167, !llfi_index !999
  %89 = load i32** @cnumPars, align 8, !tbaa !167, !llfi_index !1000
  %90 = load i32* @numCells, align 4, !tbaa !62, !llfi_index !1001
  br label %108, !llfi_index !1002

.preheader49:                                     ; preds = %._crit_edge56, %._crit_edge83
  %91 = load i32* @nz, align 4, !tbaa !62, !llfi_index !1003
  %92 = icmp sgt i32 %91, 0, !llfi_index !1004
  br i1 %92, label %.preheader44.lr.ph, label %._crit_edge52, !llfi_index !1005

.preheader44.lr.ph:                               ; preds = %.preheader49
  %93 = getelementptr inbounds [27 x i32]* %neighCells, i64 0, i64 0, !llfi_index !1006
  %94 = bitcast %class.Vec3* %disp to <2 x float>*, !llfi_index !1007
  %95 = getelementptr inbounds %class.Vec3* %disp, i64 0, i32 2, !llfi_index !1008
  %96 = bitcast %class.Vec3* %3 to <2 x float>*, !llfi_index !1009
  %97 = getelementptr inbounds %class.Vec3* %3, i64 0, i32 2, !llfi_index !1010
  %98 = bitcast %class.Vec3* %4 to <2 x float>*, !llfi_index !1011
  %99 = getelementptr inbounds %class.Vec3* %4, i64 0, i32 2, !llfi_index !1012
  %100 = bitcast %class.Vec3* %acc to <2 x float>*, !llfi_index !1013
  %101 = getelementptr inbounds %class.Vec3* %acc, i64 0, i32 2, !llfi_index !1014
  %102 = bitcast %class.Vec3* %6 to <2 x float>*, !llfi_index !1015
  %103 = getelementptr inbounds %class.Vec3* %6, i64 0, i32 2, !llfi_index !1016
  %104 = bitcast %class.Vec3* %7 to <2 x float>*, !llfi_index !1017
  %105 = getelementptr inbounds %class.Vec3* %7, i64 0, i32 2, !llfi_index !1018
  %106 = bitcast %class.Vec3* %5 to <2 x float>*, !llfi_index !1019
  %107 = getelementptr inbounds %class.Vec3* %5, i64 0, i32 2, !llfi_index !1020
  br label %.preheader44, !llfi_index !1021

; <label>:108                                     ; preds = %._crit_edge56, %.lr.ph59
  %indvars.iv106 = phi i64 [ 0, %.lr.ph59 ], [ %indvars.iv.next107, %._crit_edge56 ], !llfi_index !1022
  %109 = getelementptr inbounds i32* %89, i64 %indvars.iv106, !llfi_index !1023
  %110 = load i32* %109, align 4, !tbaa !62, !llfi_index !1024
  %111 = icmp sgt i32 %110, 0, !llfi_index !1025
  br i1 %111, label %.lr.ph55, label %._crit_edge56, !llfi_index !1026

.lr.ph55:                                         ; preds = %.lr.ph55, %108
  %indvars.iv102 = phi i64 [ %indvars.iv.next103, %.lr.ph55 ], [ 0, %108 ], !llfi_index !1027
  %112 = getelementptr inbounds %struct.Cell* %88, i64 %indvars.iv106, i32 4, i64 %indvars.iv102, !llfi_index !1028
  %113 = load float* %112, align 4, !tbaa !66, !llfi_index !1029
  %114 = fadd float %85, %113, !llfi_index !1030
  store float %114, float* %112, align 4, !tbaa !66, !llfi_index !1031
  %115 = load float* @densityCoeff, align 4, !tbaa !66, !llfi_index !1032
  %116 = fmul float %114, %115, !llfi_index !1033
  store float %116, float* %112, align 4, !tbaa !66, !llfi_index !1034
  %indvars.iv.next103 = add nuw nsw i64 %indvars.iv102, 1, !llfi_index !1035
  %lftr.wideiv104 = trunc i64 %indvars.iv.next103 to i32, !llfi_index !1036
  %exitcond105 = icmp eq i32 %lftr.wideiv104, %110, !llfi_index !1037
  br i1 %exitcond105, label %._crit_edge56, label %.lr.ph55, !llfi_index !1038

._crit_edge56:                                    ; preds = %.lr.ph55, %108
  %indvars.iv.next107 = add nuw nsw i64 %indvars.iv106, 1, !llfi_index !1039
  %117 = trunc i64 %indvars.iv.next107 to i32, !llfi_index !1040
  %118 = icmp slt i32 %117, %90, !llfi_index !1041
  br i1 %118, label %108, label %.preheader49, !llfi_index !1042

.preheader44:                                     ; preds = %._crit_edge47, %.preheader44.lr.ph
  %cindex.351 = phi i32 [ 0, %.preheader44.lr.ph ], [ %cindex.4.lcssa, %._crit_edge47 ], !llfi_index !1043
  %ck7.050 = phi i32 [ 0, %.preheader44.lr.ph ], [ %206, %._crit_edge47 ], !llfi_index !1044
  %119 = load i32* @ny, align 4, !tbaa !62, !llfi_index !1045
  %120 = icmp sgt i32 %119, 0, !llfi_index !1046
  br i1 %120, label %.preheader39, label %._crit_edge47, !llfi_index !1047

.preheader39:                                     ; preds = %._crit_edge43, %.preheader44
  %cindex.446 = phi i32 [ %cindex.5.lcssa, %._crit_edge43 ], [ %cindex.351, %.preheader44 ], !llfi_index !1048
  %cj8.045 = phi i32 [ %203, %._crit_edge43 ], [ 0, %.preheader44 ], !llfi_index !1049
  %121 = load i32* @nx, align 4, !tbaa !62, !llfi_index !1050
  %122 = icmp sgt i32 %121, 0, !llfi_index !1051
  br i1 %122, label %.lr.ph42, label %._crit_edge43, !llfi_index !1052

.lr.ph42:                                         ; preds = %.preheader39
  %123 = sext i32 %cindex.446 to i64, !llfi_index !1053
  br label %124, !llfi_index !1054

; <label>:124                                     ; preds = %.loopexit, %.lr.ph42
  %indvars.iv100 = phi i64 [ %123, %.lr.ph42 ], [ %indvars.iv.next101, %.loopexit ], !llfi_index !1055
  %cindex.541 = phi i32 [ %cindex.446, %.lr.ph42 ], [ %200, %.loopexit ], !llfi_index !1056
  %ci9.040 = phi i32 [ 0, %.lr.ph42 ], [ %199, %.loopexit ], !llfi_index !1057
  %125 = load i32** @cnumPars, align 8, !tbaa !167, !llfi_index !1058
  %126 = getelementptr inbounds i32* %125, i64 %indvars.iv100, !llfi_index !1059
  %127 = load i32* %126, align 4, !tbaa !62, !llfi_index !1060
  %128 = icmp eq i32 %127, 0, !llfi_index !1061
  br i1 %128, label %.loopexit, label %129, !llfi_index !1062

; <label>:129                                     ; preds = %124
  %130 = call i32 @_Z16GetNeighborCellsiiiPi(i32 %ci9.040, i32 %cj8.045, i32 %ck7.050, i32* %93), !llfi_index !1063
  %131 = load %struct.Cell** @cells, align 8, !tbaa !167, !llfi_index !1064
  %132 = icmp sgt i32 %127, 0, !llfi_index !1065
  br i1 %132, label %.preheader.lr.ph, label %.loopexit, !llfi_index !1066

.preheader.lr.ph:                                 ; preds = %129
  %133 = icmp sgt i32 %130, 0, !llfi_index !1067
  br label %.preheader, !llfi_index !1068

.preheader:                                       ; preds = %._crit_edge37, %.preheader.lr.ph
  %indvars.iv96 = phi i64 [ 0, %.preheader.lr.ph ], [ %indvars.iv.next97, %._crit_edge37 ], !llfi_index !1069
  br i1 %133, label %.lr.ph36, label %._crit_edge37, !llfi_index !1070

.lr.ph36:                                         ; preds = %.preheader
  %134 = getelementptr inbounds %struct.Cell* %131, i64 %indvars.iv100, i32 0, i64 %indvars.iv96, !llfi_index !1071
  %135 = getelementptr inbounds %struct.Cell* %131, i64 %indvars.iv100, i32 4, i64 %indvars.iv96, !llfi_index !1072
  %136 = getelementptr inbounds %struct.Cell* %131, i64 %indvars.iv100, i32 2, i64 %indvars.iv96, !llfi_index !1073
  %137 = getelementptr inbounds %struct.Cell* %131, i64 %indvars.iv100, i32 3, i64 %indvars.iv96, !llfi_index !1074
  br label %138, !llfi_index !1075

; <label>:138                                     ; preds = %._crit_edge, %.lr.ph36
  %indvars.iv92 = phi i64 [ 0, %.lr.ph36 ], [ %indvars.iv.next93, %._crit_edge ], !llfi_index !1076
  %139 = getelementptr inbounds [27 x i32]* %neighCells, i64 0, i64 %indvars.iv92, !llfi_index !1077
  %140 = load i32* %139, align 4, !tbaa !62, !llfi_index !1078
  %141 = sext i32 %140 to i64, !llfi_index !1079
  %142 = load %struct.Cell** @cells, align 8, !tbaa !167, !llfi_index !1080
  %143 = load i32** @cnumPars, align 8, !tbaa !167, !llfi_index !1081
  %144 = getelementptr inbounds i32* %143, i64 %141, !llfi_index !1082
  %145 = load i32* %144, align 4, !tbaa !62, !llfi_index !1083
  %146 = icmp sgt i32 %145, 0, !llfi_index !1084
  br i1 %146, label %.lr.ph, label %._crit_edge, !llfi_index !1085

.lr.ph:                                           ; preds = %198, %138
  %indvars.iv = phi i64 [ %indvars.iv.next, %198 ], [ 0, %138 ], !llfi_index !1086
  %147 = getelementptr inbounds %struct.Cell* %142, i64 %141, i32 0, i64 %indvars.iv, !llfi_index !1087
  %148 = icmp ult %class.Vec3* %147, %134, !llfi_index !1088
  br i1 %148, label %149, label %198, !llfi_index !1089

; <label>:149                                     ; preds = %.lr.ph
  %150 = call { <2 x float>, float } @_ZNK4Vec3miERKS_(%class.Vec3* %134, %class.Vec3* %147), !llfi_index !1090
  %151 = extractvalue { <2 x float>, float } %150, 0, !llfi_index !1091
  %152 = extractvalue { <2 x float>, float } %150, 1, !llfi_index !1092
  store <2 x float> %151, <2 x float>* %94, align 8, !llfi_index !1093
  store float %152, float* %95, align 8, !llfi_index !1094
  %153 = call float @_ZNK4Vec311GetLengthSqEv(%class.Vec3* %disp), !llfi_index !1095
  store float %153, float* %distSq19, align 4, !tbaa !66, !llfi_index !1096
  %154 = load float* @hSq, align 4, !tbaa !66, !llfi_index !1097
  %155 = fcmp olt float %153, %154, !llfi_index !1098
  br i1 %155, label %156, label %198, !llfi_index !1099

; <label>:156                                     ; preds = %149
  store float 0x3D71979980000000, float* %2, align 4, !tbaa !66, !llfi_index !1100
  %157 = call float* @_ZSt3maxIfERKT_S2_S2_(float* %distSq19, float* %2), !llfi_index !1101
  %158 = load float* %157, align 4, !tbaa !66, !llfi_index !1102
  %159 = call float @sqrtf(float %158) #1, !llfi_index !1103
  %160 = load float* @h, align 4, !tbaa !66, !llfi_index !1104
  %161 = fsub float %160, %159, !llfi_index !1105
  %162 = load float* @pressureCoeff, align 4, !tbaa !66, !llfi_index !1106
  %163 = call { <2 x float>, float } @_ZNK4Vec3mlEf(%class.Vec3* %disp, float %162), !llfi_index !1107
  %164 = extractvalue { <2 x float>, float } %163, 0, !llfi_index !1108
  %165 = extractvalue { <2 x float>, float } %163, 1, !llfi_index !1109
  store <2 x float> %164, <2 x float>* %96, align 8, !llfi_index !1110
  store float %165, float* %97, align 8, !llfi_index !1111
  %166 = fmul float %161, %161, !llfi_index !1112
  %167 = fdiv float %166, %159, !llfi_index !1113
  %168 = call { <2 x float>, float } @_ZNK4Vec3mlEf(%class.Vec3* %3, float %167), !llfi_index !1114
  %169 = extractvalue { <2 x float>, float } %168, 0, !llfi_index !1115
  %170 = extractvalue { <2 x float>, float } %168, 1, !llfi_index !1116
  store <2 x float> %169, <2 x float>* %98, align 8, !llfi_index !1117
  store float %170, float* %99, align 8, !llfi_index !1118
  %171 = load float* %135, align 4, !tbaa !66, !llfi_index !1119
  %172 = getelementptr inbounds %struct.Cell* %142, i64 %141, i32 4, i64 %indvars.iv, !llfi_index !1120
  %173 = load float* %172, align 4, !tbaa !66, !llfi_index !1121
  %174 = fadd float %171, %173, !llfi_index !1122
  %175 = fadd float %174, -2.000000e+03, !llfi_index !1123
  %176 = call { <2 x float>, float } @_ZNK4Vec3mlEf(%class.Vec3* %4, float %175), !llfi_index !1124
  %177 = extractvalue { <2 x float>, float } %176, 0, !llfi_index !1125
  %178 = extractvalue { <2 x float>, float } %176, 1, !llfi_index !1126
  store <2 x float> %177, <2 x float>* %100, align 8, !llfi_index !1127
  store float %178, float* %101, align 8, !llfi_index !1128
  %179 = getelementptr inbounds %struct.Cell* %142, i64 %141, i32 2, i64 %indvars.iv, !llfi_index !1129
  %180 = call { <2 x float>, float } @_ZNK4Vec3miERKS_(%class.Vec3* %179, %class.Vec3* %136), !llfi_index !1130
  %181 = extractvalue { <2 x float>, float } %180, 0, !llfi_index !1131
  %182 = extractvalue { <2 x float>, float } %180, 1, !llfi_index !1132
  store <2 x float> %181, <2 x float>* %102, align 8, !llfi_index !1133
  store float %182, float* %103, align 8, !llfi_index !1134
  %183 = load float* @viscosityCoeff, align 4, !tbaa !66, !llfi_index !1135
  %184 = call { <2 x float>, float } @_ZNK4Vec3mlEf(%class.Vec3* %6, float %183), !llfi_index !1136
  %185 = extractvalue { <2 x float>, float } %184, 0, !llfi_index !1137
  %186 = extractvalue { <2 x float>, float } %184, 1, !llfi_index !1138
  store <2 x float> %185, <2 x float>* %104, align 8, !llfi_index !1139
  store float %186, float* %105, align 8, !llfi_index !1140
  %187 = call { <2 x float>, float } @_ZNK4Vec3mlEf(%class.Vec3* %7, float %161), !llfi_index !1141
  %188 = extractvalue { <2 x float>, float } %187, 0, !llfi_index !1142
  %189 = extractvalue { <2 x float>, float } %187, 1, !llfi_index !1143
  store <2 x float> %188, <2 x float>* %106, align 8, !llfi_index !1144
  store float %189, float* %107, align 8, !llfi_index !1145
  %190 = call %class.Vec3* @_ZN4Vec3pLERKS_(%class.Vec3* %acc, %class.Vec3* %5), !llfi_index !1146
  %191 = load float* %135, align 4, !tbaa !66, !llfi_index !1147
  %192 = load float* %172, align 4, !tbaa !66, !llfi_index !1148
  %193 = fmul float %191, %192, !llfi_index !1149
  %194 = call %class.Vec3* @_ZN4Vec3dVEf(%class.Vec3* %acc, float %193), !llfi_index !1150
  %195 = call %class.Vec3* @_ZN4Vec3pLERKS_(%class.Vec3* %137, %class.Vec3* %acc), !llfi_index !1151
  %196 = getelementptr inbounds %struct.Cell* %142, i64 %141, i32 3, i64 %indvars.iv, !llfi_index !1152
  %197 = call %class.Vec3* @_ZN4Vec3mIERKS_(%class.Vec3* %196, %class.Vec3* %acc), !llfi_index !1153
  br label %198, !llfi_index !1154

; <label>:198                                     ; preds = %156, %149, %.lr.ph
  %indvars.iv.next = add nuw nsw i64 %indvars.iv, 1, !llfi_index !1155
  %lftr.wideiv = trunc i64 %indvars.iv.next to i32, !llfi_index !1156
  %exitcond = icmp eq i32 %lftr.wideiv, %145, !llfi_index !1157
  br i1 %exitcond, label %._crit_edge, label %.lr.ph, !llfi_index !1158

._crit_edge:                                      ; preds = %198, %138
  %indvars.iv.next93 = add nuw nsw i64 %indvars.iv92, 1, !llfi_index !1159
  %lftr.wideiv94 = trunc i64 %indvars.iv.next93 to i32, !llfi_index !1160
  %exitcond95 = icmp eq i32 %lftr.wideiv94, %130, !llfi_index !1161
  br i1 %exitcond95, label %._crit_edge37, label %138, !llfi_index !1162

._crit_edge37:                                    ; preds = %._crit_edge, %.preheader
  %indvars.iv.next97 = add nuw nsw i64 %indvars.iv96, 1, !llfi_index !1163
  %lftr.wideiv98 = trunc i64 %indvars.iv.next97 to i32, !llfi_index !1164
  %exitcond99 = icmp eq i32 %lftr.wideiv98, %127, !llfi_index !1165
  br i1 %exitcond99, label %.loopexit, label %.preheader, !llfi_index !1166

.loopexit:                                        ; preds = %._crit_edge37, %129, %124
  %199 = add nsw i32 %ci9.040, 1, !llfi_index !1167
  %indvars.iv.next101 = add nsw i64 %indvars.iv100, 1, !llfi_index !1168
  %200 = add nsw i32 %cindex.541, 1, !llfi_index !1169
  %201 = load i32* @nx, align 4, !tbaa !62, !llfi_index !1170
  %202 = icmp slt i32 %199, %201, !llfi_index !1171
  br i1 %202, label %124, label %._crit_edge43, !llfi_index !1172

._crit_edge43:                                    ; preds = %.loopexit, %.preheader39
  %cindex.5.lcssa = phi i32 [ %cindex.446, %.preheader39 ], [ %200, %.loopexit ], !llfi_index !1173
  %203 = add nsw i32 %cj8.045, 1, !llfi_index !1174
  %204 = load i32* @ny, align 4, !tbaa !62, !llfi_index !1175
  %205 = icmp slt i32 %203, %204, !llfi_index !1176
  br i1 %205, label %.preheader39, label %._crit_edge47, !llfi_index !1177

._crit_edge47:                                    ; preds = %._crit_edge43, %.preheader44
  %cindex.4.lcssa = phi i32 [ %cindex.351, %.preheader44 ], [ %cindex.5.lcssa, %._crit_edge43 ], !llfi_index !1178
  %206 = add nsw i32 %ck7.050, 1, !llfi_index !1179
  %207 = load i32* @nz, align 4, !tbaa !62, !llfi_index !1180
  %208 = icmp slt i32 %206, %207, !llfi_index !1181
  br i1 %208, label %.preheader44, label %._crit_edge52, !llfi_index !1182

._crit_edge52:                                    ; preds = %._crit_edge47, %.preheader49
  call void @llvm.lifetime.end(i64 108, i8* %22) #1, !llfi_index !1183
  ret void, !llfi_index !1184
}

; Function Attrs: nounwind readonly uwtable
define linkonce_odr float @_ZNK4Vec311GetLengthSqEv(%class.Vec3* nocapture readonly %this) #6 align 2 {
  %1 = getelementptr inbounds %class.Vec3* %this, i64 0, i32 0, !llfi_index !1185
  %2 = load float* %1, align 4, !tbaa !8, !llfi_index !1186
  %3 = fmul float %2, %2, !llfi_index !1187
  %4 = getelementptr inbounds %class.Vec3* %this, i64 0, i32 1, !llfi_index !1188
  %5 = load float* %4, align 4, !tbaa !15, !llfi_index !1189
  %6 = fmul float %5, %5, !llfi_index !1190
  %7 = fadd float %3, %6, !llfi_index !1191
  %8 = getelementptr inbounds %class.Vec3* %this, i64 0, i32 2, !llfi_index !1192
  %9 = load float* %8, align 4, !tbaa !18, !llfi_index !1193
  %10 = fmul float %9, %9, !llfi_index !1194
  %11 = fadd float %7, %10, !llfi_index !1195
  ret float %11, !llfi_index !1196
}

; Function Attrs: nounwind
declare float @sqrtf(float) #9

; Function Attrs: inlinehint nounwind readonly uwtable
define linkonce_odr float* @_ZSt3maxIfERKT_S2_S2_(float* readonly %__a, float* readonly %__b) #15 {
  %1 = load float* %__a, align 4, !tbaa !66, !llfi_index !1197
  %2 = load float* %__b, align 4, !tbaa !66, !llfi_index !1198
  %3 = fcmp olt float %1, %2, !llfi_index !1199
  %__b.__a = select i1 %3, float* %__b, float* %__a, !llfi_index !1200
  ret float* %__b.__a, !llfi_index !1201
}

; Function Attrs: nounwind uwtable
define linkonce_odr { <2 x float>, float } @_ZNK4Vec3mlEf(%class.Vec3* nocapture readonly %this, float %s) #2 align 2 {
  %1 = alloca %class.Vec3, align 8, !llfi_index !1202
  %2 = getelementptr inbounds %class.Vec3* %this, i64 0, i32 0, !llfi_index !1203
  %3 = load float* %2, align 4, !tbaa !8, !llfi_index !1204
  %4 = fmul float %3, %s, !llfi_index !1205
  %5 = getelementptr inbounds %class.Vec3* %this, i64 0, i32 1, !llfi_index !1206
  %6 = load float* %5, align 4, !tbaa !15, !llfi_index !1207
  %7 = fmul float %6, %s, !llfi_index !1208
  %8 = getelementptr inbounds %class.Vec3* %this, i64 0, i32 2, !llfi_index !1209
  %9 = load float* %8, align 4, !tbaa !18, !llfi_index !1210
  %10 = fmul float %9, %s, !llfi_index !1211
  call void @_ZN4Vec3C2Efff(%class.Vec3* %1, float %4, float %7, float %10), !llfi_index !1212
  %11 = bitcast %class.Vec3* %1 to <2 x float>*, !llfi_index !1213
  %12 = load <2 x float>* %11, align 8, !llfi_index !1214
  %13 = getelementptr inbounds %class.Vec3* %1, i64 0, i32 2, !llfi_index !1215
  %14 = load float* %13, align 8, !llfi_index !1216
  %15 = insertvalue { <2 x float>, float } undef, <2 x float> %12, 0, !llfi_index !1217
  %16 = insertvalue { <2 x float>, float } %15, float %14, 1, !llfi_index !1218
  ret { <2 x float>, float } %16, !llfi_index !1219
}

; Function Attrs: nounwind uwtable
define linkonce_odr %class.Vec3* @_ZN4Vec3pLERKS_(%class.Vec3* %this, %class.Vec3* nocapture readonly %v) #2 align 2 {
  %1 = getelementptr inbounds %class.Vec3* %v, i64 0, i32 0, !llfi_index !1220
  %2 = load float* %1, align 4, !tbaa !8, !llfi_index !1221
  %3 = getelementptr inbounds %class.Vec3* %this, i64 0, i32 0, !llfi_index !1222
  %4 = load float* %3, align 4, !tbaa !8, !llfi_index !1223
  %5 = fadd float %2, %4, !llfi_index !1224
  store float %5, float* %3, align 4, !tbaa !8, !llfi_index !1225
  %6 = getelementptr inbounds %class.Vec3* %v, i64 0, i32 1, !llfi_index !1226
  %7 = load float* %6, align 4, !tbaa !15, !llfi_index !1227
  %8 = getelementptr inbounds %class.Vec3* %this, i64 0, i32 1, !llfi_index !1228
  %9 = load float* %8, align 4, !tbaa !15, !llfi_index !1229
  %10 = fadd float %7, %9, !llfi_index !1230
  store float %10, float* %8, align 4, !tbaa !15, !llfi_index !1231
  %11 = getelementptr inbounds %class.Vec3* %v, i64 0, i32 2, !llfi_index !1232
  %12 = load float* %11, align 4, !tbaa !18, !llfi_index !1233
  %13 = getelementptr inbounds %class.Vec3* %this, i64 0, i32 2, !llfi_index !1234
  %14 = load float* %13, align 4, !tbaa !18, !llfi_index !1235
  %15 = fadd float %12, %14, !llfi_index !1236
  store float %15, float* %13, align 4, !tbaa !18, !llfi_index !1237
  ret %class.Vec3* %this, !llfi_index !1238
}

; Function Attrs: nounwind uwtable
define linkonce_odr %class.Vec3* @_ZN4Vec3dVEf(%class.Vec3* %this, float %s) #2 align 2 {
  %1 = getelementptr inbounds %class.Vec3* %this, i64 0, i32 0, !llfi_index !1239
  %2 = load float* %1, align 4, !tbaa !8, !llfi_index !1240
  %3 = fdiv float %2, %s, !llfi_index !1241
  store float %3, float* %1, align 4, !tbaa !8, !llfi_index !1242
  %4 = getelementptr inbounds %class.Vec3* %this, i64 0, i32 1, !llfi_index !1243
  %5 = load float* %4, align 4, !tbaa !15, !llfi_index !1244
  %6 = fdiv float %5, %s, !llfi_index !1245
  store float %6, float* %4, align 4, !tbaa !15, !llfi_index !1246
  %7 = getelementptr inbounds %class.Vec3* %this, i64 0, i32 2, !llfi_index !1247
  %8 = load float* %7, align 4, !tbaa !18, !llfi_index !1248
  %9 = fdiv float %8, %s, !llfi_index !1249
  store float %9, float* %7, align 4, !tbaa !18, !llfi_index !1250
  ret %class.Vec3* %this, !llfi_index !1251
}

; Function Attrs: nounwind uwtable
define linkonce_odr %class.Vec3* @_ZN4Vec3mIERKS_(%class.Vec3* %this, %class.Vec3* nocapture readonly %v) #2 align 2 {
  %1 = getelementptr inbounds %class.Vec3* %v, i64 0, i32 0, !llfi_index !1252
  %2 = load float* %1, align 4, !tbaa !8, !llfi_index !1253
  %3 = getelementptr inbounds %class.Vec3* %this, i64 0, i32 0, !llfi_index !1254
  %4 = load float* %3, align 4, !tbaa !8, !llfi_index !1255
  %5 = fsub float %4, %2, !llfi_index !1256
  store float %5, float* %3, align 4, !tbaa !8, !llfi_index !1257
  %6 = getelementptr inbounds %class.Vec3* %v, i64 0, i32 1, !llfi_index !1258
  %7 = load float* %6, align 4, !tbaa !15, !llfi_index !1259
  %8 = getelementptr inbounds %class.Vec3* %this, i64 0, i32 1, !llfi_index !1260
  %9 = load float* %8, align 4, !tbaa !15, !llfi_index !1261
  %10 = fsub float %9, %7, !llfi_index !1262
  store float %10, float* %8, align 4, !tbaa !15, !llfi_index !1263
  %11 = getelementptr inbounds %class.Vec3* %v, i64 0, i32 2, !llfi_index !1264
  %12 = load float* %11, align 4, !tbaa !18, !llfi_index !1265
  %13 = getelementptr inbounds %class.Vec3* %this, i64 0, i32 2, !llfi_index !1266
  %14 = load float* %13, align 4, !tbaa !18, !llfi_index !1267
  %15 = fsub float %14, %12, !llfi_index !1268
  store float %15, float* %13, align 4, !tbaa !18, !llfi_index !1269
  ret %class.Vec3* %this, !llfi_index !1270
}

; Function Attrs: nounwind uwtable
define void @_Z17ProcessCollisionsv() #2 {
  %1 = alloca %class.Vec3, align 8, !llfi_index !1271
  %2 = load i32* @numCells, align 4, !tbaa !62, !llfi_index !1272
  %3 = icmp sgt i32 %2, 0, !llfi_index !1273
  br i1 %3, label %.lr.ph6, label %._crit_edge7, !llfi_index !1274

.lr.ph6:                                          ; preds = %0
  %4 = bitcast %class.Vec3* %1 to <2 x float>*, !llfi_index !1275
  %5 = getelementptr inbounds %class.Vec3* %1, i64 0, i32 2, !llfi_index !1276
  br label %6, !llfi_index !1277

; <label>:6                                       ; preds = %._crit_edge, %.lr.ph6
  %indvars.iv8 = phi i64 [ 0, %.lr.ph6 ], [ %indvars.iv.next9, %._crit_edge ], !llfi_index !1278
  %7 = load %struct.Cell** @cells, align 8, !tbaa !167, !llfi_index !1279
  %8 = load i32** @cnumPars, align 8, !tbaa !167, !llfi_index !1280
  %9 = getelementptr inbounds i32* %8, i64 %indvars.iv8, !llfi_index !1281
  %10 = load i32* %9, align 4, !tbaa !62, !llfi_index !1282
  %11 = icmp sgt i32 %10, 0, !llfi_index !1283
  br i1 %11, label %.lr.ph, label %._crit_edge, !llfi_index !1284

.lr.ph:                                           ; preds = %105, %6
  %indvars.iv = phi i64 [ %indvars.iv.next, %105 ], [ 0, %6 ], !llfi_index !1285
  %12 = getelementptr inbounds %struct.Cell* %7, i64 %indvars.iv8, i32 0, i64 %indvars.iv, !llfi_index !1286
  %13 = getelementptr inbounds %struct.Cell* %7, i64 %indvars.iv8, i32 1, i64 %indvars.iv, !llfi_index !1287
  %14 = tail call { <2 x float>, float } @_ZNK4Vec3mlEf(%class.Vec3* %13, float 0x3F747AE140000000), !llfi_index !1288
  %15 = extractvalue { <2 x float>, float } %14, 0, !llfi_index !1289
  %16 = extractvalue { <2 x float>, float } %14, 1, !llfi_index !1290
  store <2 x float> %15, <2 x float>* %4, align 8, !llfi_index !1291
  store float %16, float* %5, align 8, !llfi_index !1292
  %17 = call { <2 x float>, float } @_ZNK4Vec3plERKS_(%class.Vec3* %12, %class.Vec3* %1), !llfi_index !1293
  %18 = extractvalue { <2 x float>, float } %17, 0, !llfi_index !1294
  %19 = extractvalue { <2 x float>, float } %17, 1, !llfi_index !1295
  %20 = extractelement <2 x float> %18, i32 0, !llfi_index !1296
  %21 = load float* getelementptr inbounds (%class.Vec3* @_ZL9domainMin, i64 0, i32 0), align 4, !tbaa !8, !llfi_index !1297
  %22 = fsub float %20, %21, !llfi_index !1298
  %23 = fsub float 0x3F2A36E2E0000000, %22, !llfi_index !1299
  %24 = fcmp ogt float %23, 0x3DDB7CDFE0000000, !llfi_index !1300
  br i1 %24, label %25, label %34, !llfi_index !1301

; <label>:25                                      ; preds = %.lr.ph
  %26 = fmul float %23, 3.000000e+04, !llfi_index !1302
  %27 = getelementptr inbounds %struct.Cell* %7, i64 %indvars.iv8, i32 2, i64 %indvars.iv, i32 0, !llfi_index !1303
  %28 = load float* %27, align 4, !tbaa !8, !llfi_index !1304
  %29 = fmul float %28, 1.280000e+02, !llfi_index !1305
  %30 = fsub float %26, %29, !llfi_index !1306
  %31 = getelementptr inbounds %struct.Cell* %7, i64 %indvars.iv8, i32 3, i64 %indvars.iv, i32 0, !llfi_index !1307
  %32 = load float* %31, align 4, !tbaa !8, !llfi_index !1308
  %33 = fadd float %32, %30, !llfi_index !1309
  store float %33, float* %31, align 4, !tbaa !8, !llfi_index !1310
  br label %34, !llfi_index !1311

; <label>:34                                      ; preds = %25, %.lr.ph
  %35 = load float* getelementptr inbounds (%class.Vec3* @_ZL9domainMax, i64 0, i32 0), align 4, !tbaa !8, !llfi_index !1312
  %36 = fsub float %35, %20, !llfi_index !1313
  %37 = fsub float 0x3F2A36E2E0000000, %36, !llfi_index !1314
  %38 = fcmp ogt float %37, 0x3DDB7CDFE0000000, !llfi_index !1315
  br i1 %38, label %39, label %48, !llfi_index !1316

; <label>:39                                      ; preds = %34
  %40 = fmul float %37, 3.000000e+04, !llfi_index !1317
  %41 = getelementptr inbounds %struct.Cell* %7, i64 %indvars.iv8, i32 2, i64 %indvars.iv, i32 0, !llfi_index !1318
  %42 = load float* %41, align 4, !tbaa !8, !llfi_index !1319
  %43 = fmul float %42, 1.280000e+02, !llfi_index !1320
  %44 = fadd float %40, %43, !llfi_index !1321
  %45 = getelementptr inbounds %struct.Cell* %7, i64 %indvars.iv8, i32 3, i64 %indvars.iv, i32 0, !llfi_index !1322
  %46 = load float* %45, align 4, !tbaa !8, !llfi_index !1323
  %47 = fsub float %46, %44, !llfi_index !1324
  store float %47, float* %45, align 4, !tbaa !8, !llfi_index !1325
  br label %48, !llfi_index !1326

; <label>:48                                      ; preds = %39, %34
  %49 = extractelement <2 x float> %18, i32 1, !llfi_index !1327
  %50 = load float* getelementptr inbounds (%class.Vec3* @_ZL9domainMin, i64 0, i32 1), align 4, !tbaa !15, !llfi_index !1328
  %51 = fsub float %49, %50, !llfi_index !1329
  %52 = fsub float 0x3F2A36E2E0000000, %51, !llfi_index !1330
  %53 = fcmp ogt float %52, 0x3DDB7CDFE0000000, !llfi_index !1331
  br i1 %53, label %54, label %63, !llfi_index !1332

; <label>:54                                      ; preds = %48
  %55 = fmul float %52, 3.000000e+04, !llfi_index !1333
  %56 = getelementptr inbounds %struct.Cell* %7, i64 %indvars.iv8, i32 2, i64 %indvars.iv, i32 1, !llfi_index !1334
  %57 = load float* %56, align 4, !tbaa !15, !llfi_index !1335
  %58 = fmul float %57, 1.280000e+02, !llfi_index !1336
  %59 = fsub float %55, %58, !llfi_index !1337
  %60 = getelementptr inbounds %struct.Cell* %7, i64 %indvars.iv8, i32 3, i64 %indvars.iv, i32 1, !llfi_index !1338
  %61 = load float* %60, align 4, !tbaa !15, !llfi_index !1339
  %62 = fadd float %61, %59, !llfi_index !1340
  store float %62, float* %60, align 4, !tbaa !15, !llfi_index !1341
  br label %63, !llfi_index !1342

; <label>:63                                      ; preds = %54, %48
  %64 = load float* getelementptr inbounds (%class.Vec3* @_ZL9domainMax, i64 0, i32 1), align 4, !tbaa !15, !llfi_index !1343
  %65 = fsub float %64, %49, !llfi_index !1344
  %66 = fsub float 0x3F2A36E2E0000000, %65, !llfi_index !1345
  %67 = fcmp ogt float %66, 0x3DDB7CDFE0000000, !llfi_index !1346
  br i1 %67, label %68, label %77, !llfi_index !1347

; <label>:68                                      ; preds = %63
  %69 = fmul float %66, 3.000000e+04, !llfi_index !1348
  %70 = getelementptr inbounds %struct.Cell* %7, i64 %indvars.iv8, i32 2, i64 %indvars.iv, i32 1, !llfi_index !1349
  %71 = load float* %70, align 4, !tbaa !15, !llfi_index !1350
  %72 = fmul float %71, 1.280000e+02, !llfi_index !1351
  %73 = fadd float %69, %72, !llfi_index !1352
  %74 = getelementptr inbounds %struct.Cell* %7, i64 %indvars.iv8, i32 3, i64 %indvars.iv, i32 1, !llfi_index !1353
  %75 = load float* %74, align 4, !tbaa !15, !llfi_index !1354
  %76 = fsub float %75, %73, !llfi_index !1355
  store float %76, float* %74, align 4, !tbaa !15, !llfi_index !1356
  br label %77, !llfi_index !1357

; <label>:77                                      ; preds = %68, %63
  %78 = load float* getelementptr inbounds (%class.Vec3* @_ZL9domainMin, i64 0, i32 2), align 4, !tbaa !18, !llfi_index !1358
  %79 = fsub float %19, %78, !llfi_index !1359
  %80 = fsub float 0x3F2A36E2E0000000, %79, !llfi_index !1360
  %81 = fcmp ogt float %80, 0x3DDB7CDFE0000000, !llfi_index !1361
  br i1 %81, label %82, label %91, !llfi_index !1362

; <label>:82                                      ; preds = %77
  %83 = fmul float %80, 3.000000e+04, !llfi_index !1363
  %84 = getelementptr inbounds %struct.Cell* %7, i64 %indvars.iv8, i32 2, i64 %indvars.iv, i32 2, !llfi_index !1364
  %85 = load float* %84, align 4, !tbaa !18, !llfi_index !1365
  %86 = fmul float %85, 1.280000e+02, !llfi_index !1366
  %87 = fsub float %83, %86, !llfi_index !1367
  %88 = getelementptr inbounds %struct.Cell* %7, i64 %indvars.iv8, i32 3, i64 %indvars.iv, i32 2, !llfi_index !1368
  %89 = load float* %88, align 4, !tbaa !18, !llfi_index !1369
  %90 = fadd float %89, %87, !llfi_index !1370
  store float %90, float* %88, align 4, !tbaa !18, !llfi_index !1371
  br label %91, !llfi_index !1372

; <label>:91                                      ; preds = %82, %77
  %92 = load float* getelementptr inbounds (%class.Vec3* @_ZL9domainMax, i64 0, i32 2), align 4, !tbaa !18, !llfi_index !1373
  %93 = fsub float %92, %19, !llfi_index !1374
  %94 = fsub float 0x3F2A36E2E0000000, %93, !llfi_index !1375
  %95 = fcmp ogt float %94, 0x3DDB7CDFE0000000, !llfi_index !1376
  br i1 %95, label %96, label %105, !llfi_index !1377

; <label>:96                                      ; preds = %91
  %97 = fmul float %94, 3.000000e+04, !llfi_index !1378
  %98 = getelementptr inbounds %struct.Cell* %7, i64 %indvars.iv8, i32 2, i64 %indvars.iv, i32 2, !llfi_index !1379
  %99 = load float* %98, align 4, !tbaa !18, !llfi_index !1380
  %100 = fmul float %99, 1.280000e+02, !llfi_index !1381
  %101 = fadd float %97, %100, !llfi_index !1382
  %102 = getelementptr inbounds %struct.Cell* %7, i64 %indvars.iv8, i32 3, i64 %indvars.iv, i32 2, !llfi_index !1383
  %103 = load float* %102, align 4, !tbaa !18, !llfi_index !1384
  %104 = fsub float %103, %101, !llfi_index !1385
  store float %104, float* %102, align 4, !tbaa !18, !llfi_index !1386
  br label %105, !llfi_index !1387

; <label>:105                                     ; preds = %96, %91
  %indvars.iv.next = add nuw nsw i64 %indvars.iv, 1, !llfi_index !1388
  %lftr.wideiv = trunc i64 %indvars.iv.next to i32, !llfi_index !1389
  %exitcond = icmp eq i32 %lftr.wideiv, %10, !llfi_index !1390
  br i1 %exitcond, label %._crit_edge, label %.lr.ph, !llfi_index !1391

._crit_edge:                                      ; preds = %105, %6
  %indvars.iv.next9 = add nuw nsw i64 %indvars.iv8, 1, !llfi_index !1392
  %106 = load i32* @numCells, align 4, !tbaa !62, !llfi_index !1393
  %107 = trunc i64 %indvars.iv.next9 to i32, !llfi_index !1394
  %108 = icmp slt i32 %107, %106, !llfi_index !1395
  br i1 %108, label %6, label %._crit_edge7, !llfi_index !1396

._crit_edge7:                                     ; preds = %._crit_edge, %0
  ret void, !llfi_index !1397
}

; Function Attrs: nounwind uwtable
define linkonce_odr { <2 x float>, float } @_ZNK4Vec3plERKS_(%class.Vec3* nocapture readonly %this, %class.Vec3* nocapture readonly %v) #2 align 2 {
  %1 = alloca %class.Vec3, align 8, !llfi_index !1398
  %2 = getelementptr inbounds %class.Vec3* %this, i64 0, i32 0, !llfi_index !1399
  %3 = load float* %2, align 4, !tbaa !8, !llfi_index !1400
  %4 = getelementptr inbounds %class.Vec3* %v, i64 0, i32 0, !llfi_index !1401
  %5 = load float* %4, align 4, !tbaa !8, !llfi_index !1402
  %6 = fadd float %3, %5, !llfi_index !1403
  %7 = getelementptr inbounds %class.Vec3* %this, i64 0, i32 1, !llfi_index !1404
  %8 = load float* %7, align 4, !tbaa !15, !llfi_index !1405
  %9 = getelementptr inbounds %class.Vec3* %v, i64 0, i32 1, !llfi_index !1406
  %10 = load float* %9, align 4, !tbaa !15, !llfi_index !1407
  %11 = fadd float %8, %10, !llfi_index !1408
  %12 = getelementptr inbounds %class.Vec3* %this, i64 0, i32 2, !llfi_index !1409
  %13 = load float* %12, align 4, !tbaa !18, !llfi_index !1410
  %14 = getelementptr inbounds %class.Vec3* %v, i64 0, i32 2, !llfi_index !1411
  %15 = load float* %14, align 4, !tbaa !18, !llfi_index !1412
  %16 = fadd float %13, %15, !llfi_index !1413
  call void @_ZN4Vec3C2Efff(%class.Vec3* %1, float %6, float %11, float %16), !llfi_index !1414
  %17 = bitcast %class.Vec3* %1 to <2 x float>*, !llfi_index !1415
  %18 = load <2 x float>* %17, align 8, !llfi_index !1416
  %19 = getelementptr inbounds %class.Vec3* %1, i64 0, i32 2, !llfi_index !1417
  %20 = load float* %19, align 8, !llfi_index !1418
  %21 = insertvalue { <2 x float>, float } undef, <2 x float> %18, 0, !llfi_index !1419
  %22 = insertvalue { <2 x float>, float } %21, float %20, 1, !llfi_index !1420
  ret { <2 x float>, float } %22, !llfi_index !1421
}

; Function Attrs: nounwind uwtable
define void @_Z16AdvanceParticlesv() #2 {
  %v_half = alloca %class.Vec3, align 8, !llfi_index !1422
  %1 = alloca %class.Vec3, align 8, !llfi_index !1423
  %2 = alloca %class.Vec3, align 8, !llfi_index !1424
  %3 = load i32* @numCells, align 4, !tbaa !62, !llfi_index !1425
  %4 = icmp sgt i32 %3, 0, !llfi_index !1426
  br i1 %4, label %.lr.ph12, label %._crit_edge13, !llfi_index !1427

.lr.ph12:                                         ; preds = %0
  %5 = bitcast %class.Vec3* %1 to <2 x float>*, !llfi_index !1428
  %6 = getelementptr inbounds %class.Vec3* %1, i64 0, i32 2, !llfi_index !1429
  %7 = bitcast %class.Vec3* %v_half to i8*, !llfi_index !1430
  %8 = bitcast %class.Vec3* %v_half to <2 x float>*, !llfi_index !1431
  %9 = getelementptr inbounds %class.Vec3* %v_half, i64 0, i32 2, !llfi_index !1432
  %10 = bitcast %class.Vec3* %2 to <2 x float>*, !llfi_index !1433
  %11 = getelementptr inbounds %class.Vec3* %2, i64 0, i32 2, !llfi_index !1434
  br label %12, !llfi_index !1435

; <label>:12                                      ; preds = %._crit_edge, %.lr.ph12
  %indvars.iv14 = phi i64 [ 0, %.lr.ph12 ], [ %indvars.iv.next15, %._crit_edge ], !llfi_index !1436
  %13 = load %struct.Cell** @cells, align 8, !tbaa !167, !llfi_index !1437
  %14 = load i32** @cnumPars, align 8, !tbaa !167, !llfi_index !1438
  %15 = getelementptr inbounds i32* %14, i64 %indvars.iv14, !llfi_index !1439
  %16 = load i32* %15, align 4, !tbaa !62, !llfi_index !1440
  %17 = icmp sgt i32 %16, 0, !llfi_index !1441
  br i1 %17, label %.lr.ph, label %._crit_edge, !llfi_index !1442

.lr.ph:                                           ; preds = %.lr.ph, %12
  %indvars.iv = phi i64 [ %indvars.iv.next, %.lr.ph ], [ 0, %12 ], !llfi_index !1443
  %18 = getelementptr inbounds %struct.Cell* %13, i64 %indvars.iv14, i32 1, i64 %indvars.iv, !llfi_index !1444
  %19 = getelementptr inbounds %struct.Cell* %13, i64 %indvars.iv14, i32 3, i64 %indvars.iv, !llfi_index !1445
  %20 = tail call { <2 x float>, float } @_ZNK4Vec3mlEf(%class.Vec3* %19, float 0x3F747AE140000000), !llfi_index !1446
  %21 = extractvalue { <2 x float>, float } %20, 0, !llfi_index !1447
  %22 = extractvalue { <2 x float>, float } %20, 1, !llfi_index !1448
  store <2 x float> %21, <2 x float>* %5, align 8, !llfi_index !1449
  store float %22, float* %6, align 8, !llfi_index !1450
  %23 = call { <2 x float>, float } @_ZNK4Vec3plERKS_(%class.Vec3* %18, %class.Vec3* %1), !llfi_index !1451
  %24 = extractvalue { <2 x float>, float } %23, 0, !llfi_index !1452
  %25 = extractvalue { <2 x float>, float } %23, 1, !llfi_index !1453
  store <2 x float> %24, <2 x float>* %8, align 8, !llfi_index !1454
  store float %25, float* %9, align 8, !llfi_index !1455
  %26 = getelementptr inbounds %struct.Cell* %13, i64 %indvars.iv14, i32 0, i64 %indvars.iv, !llfi_index !1456
  %27 = call { <2 x float>, float } @_ZNK4Vec3mlEf(%class.Vec3* %v_half, float 0x3F747AE140000000), !llfi_index !1457
  %28 = extractvalue { <2 x float>, float } %27, 0, !llfi_index !1458
  %29 = extractvalue { <2 x float>, float } %27, 1, !llfi_index !1459
  store <2 x float> %28, <2 x float>* %10, align 8, !llfi_index !1460
  store float %29, float* %11, align 8, !llfi_index !1461
  %30 = call %class.Vec3* @_ZN4Vec3pLERKS_(%class.Vec3* %26, %class.Vec3* %2), !llfi_index !1462
  %31 = getelementptr inbounds %struct.Cell* %13, i64 %indvars.iv14, i32 2, i64 %indvars.iv, !llfi_index !1463
  %32 = call { <2 x float>, float } @_ZNK4Vec3plERKS_(%class.Vec3* %18, %class.Vec3* %v_half), !llfi_index !1464
  %33 = extractvalue { <2 x float>, float } %32, 0, !llfi_index !1465
  %34 = extractvalue { <2 x float>, float } %32, 1, !llfi_index !1466
  %35 = bitcast %class.Vec3* %31 to <2 x float>*, !llfi_index !1467
  store <2 x float> %33, <2 x float>* %35, align 4, !llfi_index !1468
  %36 = getelementptr inbounds %struct.Cell* %13, i64 %indvars.iv14, i32 2, i64 %indvars.iv, i32 2, !llfi_index !1469
  store float %34, float* %36, align 4, !llfi_index !1470
  %37 = tail call %class.Vec3* @_ZN4Vec3mLEf(%class.Vec3* %31, float 5.000000e-01), !llfi_index !1471
  %38 = bitcast %class.Vec3* %18 to i8*, !llfi_index !1472
  call void @llvm.memcpy.p0i8.p0i8.i64(i8* %38, i8* %7, i64 12, i32 4, i1 false), !tbaa.struct !880, !llfi_index !1473
  %indvars.iv.next = add nuw nsw i64 %indvars.iv, 1, !llfi_index !1474
  %lftr.wideiv = trunc i64 %indvars.iv.next to i32, !llfi_index !1475
  %exitcond = icmp eq i32 %lftr.wideiv, %16, !llfi_index !1476
  br i1 %exitcond, label %._crit_edge, label %.lr.ph, !llfi_index !1477

._crit_edge:                                      ; preds = %.lr.ph, %12
  %indvars.iv.next15 = add nuw nsw i64 %indvars.iv14, 1, !llfi_index !1478
  %39 = load i32* @numCells, align 4, !tbaa !62, !llfi_index !1479
  %40 = trunc i64 %indvars.iv.next15 to i32, !llfi_index !1480
  %41 = icmp slt i32 %40, %39, !llfi_index !1481
  br i1 %41, label %12, label %._crit_edge13, !llfi_index !1482

._crit_edge13:                                    ; preds = %._crit_edge, %0
  ret void, !llfi_index !1483
}

; Function Attrs: nounwind uwtable
define linkonce_odr %class.Vec3* @_ZN4Vec3mLEf(%class.Vec3* %this, float %s) #2 align 2 {
  %1 = getelementptr inbounds %class.Vec3* %this, i64 0, i32 0, !llfi_index !1484
  %2 = load float* %1, align 4, !tbaa !8, !llfi_index !1485
  %3 = fmul float %2, %s, !llfi_index !1486
  store float %3, float* %1, align 4, !tbaa !8, !llfi_index !1487
  %4 = getelementptr inbounds %class.Vec3* %this, i64 0, i32 1, !llfi_index !1488
  %5 = load float* %4, align 4, !tbaa !15, !llfi_index !1489
  %6 = fmul float %5, %s, !llfi_index !1490
  store float %6, float* %4, align 4, !tbaa !15, !llfi_index !1491
  %7 = getelementptr inbounds %class.Vec3* %this, i64 0, i32 2, !llfi_index !1492
  %8 = load float* %7, align 4, !tbaa !18, !llfi_index !1493
  %9 = fmul float %8, %s, !llfi_index !1494
  store float %9, float* %7, align 4, !tbaa !18, !llfi_index !1495
  ret %class.Vec3* %this, !llfi_index !1496
}

; Function Attrs: nounwind uwtable
define void @_Z12AdvanceFramev() #2 {
  tail call void @_Z11RebuildGridv(), !llfi_index !1497
  tail call void @_Z13ComputeForcesv(), !llfi_index !1498
  tail call void @_Z17ProcessCollisionsv(), !llfi_index !1499
  tail call void @_Z16AdvanceParticlesv(), !llfi_index !1500
  ret void, !llfi_index !1501
}

; Function Attrs: uwtable
define i32 @main(i32 %argc, i8** nocapture readonly %argv) #4 {
  %1 = tail call %"class.std::basic_ostream"* @_ZStlsISt11char_traitsIcEERSt13basic_ostreamIcT_ES5_PKc(%"class.std::basic_ostream"* @_ZSt4cout, i8* getelementptr inbounds ([23 x i8]* @.str17, i64 0, i64 0)), !llfi_index !1502
  %2 = tail call %"class.std::basic_ostream"* @_ZNSolsEPFRSoS_E(%"class.std::basic_ostream"* %1, %"class.std::basic_ostream"* (%"class.std::basic_ostream"*)* @_ZSt4endlIcSt11char_traitsIcEERSt13basic_ostreamIT_T0_ES6_), !llfi_index !1503
  %3 = tail call %"class.std::basic_ostream"* @_ZNSolsEPFRSoS_E(%"class.std::basic_ostream"* %2, %"class.std::basic_ostream"* (%"class.std::basic_ostream"*)* @_ZSt5flushIcSt11char_traitsIcEERSt13basic_ostreamIT_T0_ES6_), !llfi_index !1504
  %4 = and i32 %argc, -2, !llfi_index !1505
  %5 = icmp eq i32 %4, 4, !llfi_index !1506
  br i1 %5, label %12, label %6, !llfi_index !1507

; <label>:6                                       ; preds = %0
  %7 = tail call %"class.std::basic_ostream"* @_ZStlsISt11char_traitsIcEERSt13basic_ostreamIcT_ES5_PKc(%"class.std::basic_ostream"* @_ZSt4cout, i8* getelementptr inbounds ([8 x i8]* @.str18, i64 0, i64 0)), !llfi_index !1508
  %8 = load i8** %argv, align 8, !tbaa !167, !llfi_index !1509
  %9 = tail call %"class.std::basic_ostream"* @_ZStlsISt11char_traitsIcEERSt13basic_ostreamIcT_ES5_PKc(%"class.std::basic_ostream"* %7, i8* %8), !llfi_index !1510
  %10 = tail call %"class.std::basic_ostream"* @_ZStlsISt11char_traitsIcEERSt13basic_ostreamIcT_ES5_PKc(%"class.std::basic_ostream"* %9, i8* getelementptr inbounds ([65 x i8]* @.str19, i64 0, i64 0)), !llfi_index !1511
  %11 = tail call %"class.std::basic_ostream"* @_ZNSolsEPFRSoS_E(%"class.std::basic_ostream"* %10, %"class.std::basic_ostream"* (%"class.std::basic_ostream"*)* @_ZSt4endlIcSt11char_traitsIcEERSt13basic_ostreamIT_T0_ES6_), !llfi_index !1512
  br label %37, !llfi_index !1513

; <label>:12                                      ; preds = %0
  %13 = getelementptr inbounds i8** %argv, i64 1, !llfi_index !1514
  %14 = load i8** %13, align 8, !tbaa !167, !llfi_index !1515
  %15 = tail call i32 @atoi(i8* %14) #21, !llfi_index !1516
  %16 = getelementptr inbounds i8** %argv, i64 2, !llfi_index !1517
  %17 = load i8** %16, align 8, !tbaa !167, !llfi_index !1518
  %18 = tail call i32 @atoi(i8* %17) #21, !llfi_index !1519
  %19 = icmp eq i32 %15, 1, !llfi_index !1520
  br i1 %19, label %23, label %20, !llfi_index !1521

; <label>:20                                      ; preds = %12
  %21 = tail call %"class.std::basic_ostream"* @_ZStlsISt11char_traitsIcEERSt13basic_ostreamIcT_ES5_PKc(%"class.std::basic_ostream"* @_ZSt4cerr, i8* getelementptr inbounds ([39 x i8]* @.str20, i64 0, i64 0)), !llfi_index !1522
  %22 = tail call %"class.std::basic_ostream"* @_ZNSolsEPFRSoS_E(%"class.std::basic_ostream"* %21, %"class.std::basic_ostream"* (%"class.std::basic_ostream"*)* @_ZSt4endlIcSt11char_traitsIcEERSt13basic_ostreamIT_T0_ES6_), !llfi_index !1523
  br label %37, !llfi_index !1524

; <label>:23                                      ; preds = %12
  %24 = icmp slt i32 %18, 1, !llfi_index !1525
  br i1 %24, label %25, label %.lr.ph, !llfi_index !1526

; <label>:25                                      ; preds = %23
  %26 = tail call %"class.std::basic_ostream"* @_ZStlsISt11char_traitsIcEERSt13basic_ostreamIcT_ES5_PKc(%"class.std::basic_ostream"* @_ZSt4cerr, i8* getelementptr inbounds ([30 x i8]* @.str21, i64 0, i64 0)), !llfi_index !1527
  %27 = tail call %"class.std::basic_ostream"* @_ZNSolsEPFRSoS_E(%"class.std::basic_ostream"* %26, %"class.std::basic_ostream"* (%"class.std::basic_ostream"*)* @_ZSt4endlIcSt11char_traitsIcEERSt13basic_ostreamIT_T0_ES6_), !llfi_index !1528
  br label %37, !llfi_index !1529

.lr.ph:                                           ; preds = %23
  %28 = getelementptr inbounds i8** %argv, i64 3, !llfi_index !1530
  %29 = load i8** %28, align 8, !tbaa !167, !llfi_index !1531
  tail call void @_Z7InitSimPKc(i8* %29), !llfi_index !1532
  br label %30, !llfi_index !1533

; <label>:30                                      ; preds = %30, %.lr.ph
  %i.02 = phi i32 [ 0, %.lr.ph ], [ %31, %30 ], !llfi_index !1534
  tail call void @_Z12AdvanceFramev(), !llfi_index !1535
  %31 = add nsw i32 %i.02, 1, !llfi_index !1536
  %exitcond = icmp eq i32 %31, %18, !llfi_index !1537
  br i1 %exitcond, label %._crit_edge, label %30, !llfi_index !1538

._crit_edge:                                      ; preds = %30
  %32 = icmp sgt i32 %argc, 4, !llfi_index !1539
  br i1 %32, label %33, label %36, !llfi_index !1540

; <label>:33                                      ; preds = %._crit_edge
  %34 = getelementptr inbounds i8** %argv, i64 4, !llfi_index !1541
  %35 = load i8** %34, align 8, !tbaa !167, !llfi_index !1542
  tail call void @_Z8SaveFilePKc(i8* %35), !llfi_index !1543
  br label %36, !llfi_index !1544

; <label>:36                                      ; preds = %33, %._crit_edge
  tail call void @_Z10CleanUpSimv(), !llfi_index !1545
  br label %37, !llfi_index !1546

; <label>:37                                      ; preds = %36, %25, %20, %6
  %.0 = phi i32 [ -1, %6 ], [ -1, %20 ], [ -1, %25 ], [ 0, %36 ], !llfi_index !1547
  ret i32 %.0, !llfi_index !1548
}

; Function Attrs: inlinehint uwtable
define available_externally %"class.std::basic_ostream"* @_ZSt5flushIcSt11char_traitsIcEERSt13basic_ostreamIT_T0_ES6_(%"class.std::basic_ostream"* %__os) #5 {
  %1 = tail call %"class.std::basic_ostream"* @_ZNSo5flushEv(%"class.std::basic_ostream"* %__os), !llfi_index !1549
  ret %"class.std::basic_ostream"* %1, !llfi_index !1550
}

; Function Attrs: nounwind readonly
declare i32 @atoi(i8* nocapture) #16

declare %"class.std::basic_ostream"* @_ZNSo5flushEv(%"class.std::basic_ostream"*) #0

; Function Attrs: uwtable
define available_externally void @_ZNSt14basic_ofstreamIcSt11char_traitsIcEED2Ev(%"class.std::basic_ofstream"* %this, i8** nocapture readonly %vtt) unnamed_addr #4 align 2 {
  %1 = load i8** %vtt, align 8, !llfi_index !1551
  %2 = getelementptr inbounds %"class.std::basic_ofstream"* %this, i64 0, i32 0, i32 0, !llfi_index !1552
  %.c = bitcast i8* %1 to i32 (...)**, !llfi_index !1553
  store i32 (...)** %.c, i32 (...)*** %2, align 8, !tbaa !46, !llfi_index !1554
  %3 = getelementptr inbounds i8** %vtt, i64 3, !llfi_index !1555
  %4 = load i8** %3, align 8, !llfi_index !1556
  %5 = getelementptr i8* %1, i64 -24, !llfi_index !1557
  %6 = bitcast i8* %5 to i64*, !llfi_index !1558
  %7 = load i64* %6, align 8, !llfi_index !1559
  %8 = bitcast %"class.std::basic_ofstream"* %this to i8*, !llfi_index !1560
  %9 = getelementptr inbounds i8* %8, i64 %7, !llfi_index !1561
  %10 = bitcast i8* %9 to i8**, !llfi_index !1562
  store i8* %4, i8** %10, align 8, !tbaa !46, !llfi_index !1563
  %11 = getelementptr inbounds %"class.std::basic_ofstream"* %this, i64 0, i32 1, !llfi_index !1564
  invoke void @_ZNSt13basic_filebufIcSt11char_traitsIcEED1Ev(%"class.std::basic_filebuf"* %11)
          to label %12 unwind label %13, !llfi_index !1565

; <label>:12                                      ; preds = %0
  ret void, !llfi_index !1566

; <label>:13                                      ; preds = %0
  %14 = landingpad { i8*, i32 } personality i8* bitcast (i32 (...)* @__gxx_personality_v0 to i8*)
          cleanup, !llfi_index !1567
  resume { i8*, i32 } %14, !llfi_index !1568
}

; Function Attrs: uwtable
define available_externally void @_ZNSt9basic_iosIcSt11char_traitsIcEED2Ev(%"class.std::basic_ios"* %this) unnamed_addr #4 align 2 {
  %1 = getelementptr inbounds %"class.std::basic_ios"* %this, i64 0, i32 0, !llfi_index !1569
  tail call void @_ZNSt8ios_baseD2Ev(%"class.std::ios_base"* %1), !llfi_index !1570
  ret void, !llfi_index !1571
}

declare void @_ZNSt8ios_baseD2Ev(%"class.std::ios_base"*) #0

; Function Attrs: uwtable
define available_externally void @_ZNSt13basic_filebufIcSt11char_traitsIcEED1Ev(%"class.std::basic_filebuf"* %this) unnamed_addr #4 align 2 {
  tail call void @_ZNSt13basic_filebufIcSt11char_traitsIcEED2Ev(%"class.std::basic_filebuf"* %this), !llfi_index !1572
  ret void, !llfi_index !1573
}

; Function Attrs: nounwind readnone uwtable
define available_externally void @_ZNSoD2Ev(%"class.std::basic_ostream"* nocapture %this, i8** nocapture %vtt) unnamed_addr #3 align 2 {
  ret void, !llfi_index !1574
}

; Function Attrs: uwtable
define available_externally void @_ZNSt13basic_filebufIcSt11char_traitsIcEED2Ev(%"class.std::basic_filebuf"* %this) unnamed_addr #4 align 2 {
  %1 = getelementptr inbounds %"class.std::basic_filebuf"* %this, i64 0, i32 0, i32 0, !llfi_index !1575
  store i32 (...)** bitcast (i8** getelementptr inbounds ([16 x i8*]* @_ZTVSt13basic_filebufIcSt11char_traitsIcEE, i64 0, i64 2) to i32 (...)**), i32 (...)*** %1, align 8, !tbaa !46, !llfi_index !1576
  %2 = invoke %"class.std::basic_filebuf"* @_ZNSt13basic_filebufIcSt11char_traitsIcEE5closeEv(%"class.std::basic_filebuf"* %this)
          to label %3 unwind label %7, !llfi_index !1577

; <label>:3                                       ; preds = %0
  %4 = getelementptr inbounds %"class.std::basic_filebuf"* %this, i64 0, i32 2, !llfi_index !1578
  invoke void @_ZNSt12__basic_fileIcED1Ev(%"class.std::__basic_file"* %4)
          to label %5 unwind label %12, !llfi_index !1579

; <label>:5                                       ; preds = %3
  %6 = getelementptr inbounds %"class.std::basic_filebuf"* %this, i64 0, i32 0, !llfi_index !1580
  tail call void @_ZNSt15basic_streambufIcSt11char_traitsIcEED2Ev(%"class.std::basic_streambuf"* %6), !llfi_index !1581
  ret void, !llfi_index !1582

; <label>:7                                       ; preds = %0
  %8 = landingpad { i8*, i32 } personality i8* bitcast (i32 (...)* @__gxx_personality_v0 to i8*)
          cleanup, !llfi_index !1583
  %9 = extractvalue { i8*, i32 } %8, 0, !llfi_index !1584
  %10 = extractvalue { i8*, i32 } %8, 1, !llfi_index !1585
  %11 = getelementptr inbounds %"class.std::basic_filebuf"* %this, i64 0, i32 2, !llfi_index !1586
  invoke void @_ZNSt12__basic_fileIcED1Ev(%"class.std::__basic_file"* %11)
          to label %16 unwind label %20, !llfi_index !1587

; <label>:12                                      ; preds = %3
  %13 = landingpad { i8*, i32 } personality i8* bitcast (i32 (...)* @__gxx_personality_v0 to i8*)
          cleanup, !llfi_index !1588
  %14 = extractvalue { i8*, i32 } %13, 0, !llfi_index !1589
  %15 = extractvalue { i8*, i32 } %13, 1, !llfi_index !1590
  br label %16, !llfi_index !1591

; <label>:16                                      ; preds = %12, %7
  %.01 = phi i8* [ %14, %12 ], [ %9, %7 ], !llfi_index !1592
  %.0 = phi i32 [ %15, %12 ], [ %10, %7 ], !llfi_index !1593
  %17 = getelementptr inbounds %"class.std::basic_filebuf"* %this, i64 0, i32 0, !llfi_index !1594
  tail call void @_ZNSt15basic_streambufIcSt11char_traitsIcEED2Ev(%"class.std::basic_streambuf"* %17), !llfi_index !1595
  %18 = insertvalue { i8*, i32 } undef, i8* %.01, 0, !llfi_index !1596
  %19 = insertvalue { i8*, i32 } %18, i32 %.0, 1, !llfi_index !1597
  resume { i8*, i32 } %19, !llfi_index !1598

; <label>:20                                      ; preds = %7
  %21 = landingpad { i8*, i32 } personality i8* bitcast (i32 (...)* @__gxx_personality_v0 to i8*)
          catch i8* null, !llfi_index !1599
  %22 = extractvalue { i8*, i32 } %21, 0, !llfi_index !1600
  tail call void @__clang_call_terminate(i8* %22) #18, !llfi_index !1601
  unreachable, !llfi_index !1602
}

declare %"class.std::basic_filebuf"* @_ZNSt13basic_filebufIcSt11char_traitsIcEE5closeEv(%"class.std::basic_filebuf"*) #0

declare void @_ZNSt12__basic_fileIcED1Ev(%"class.std::__basic_file"*) #0

; Function Attrs: nounwind uwtable
define available_externally void @_ZNSt15basic_streambufIcSt11char_traitsIcEED2Ev(%"class.std::basic_streambuf"* %this) unnamed_addr #2 align 2 {
  %1 = getelementptr inbounds %"class.std::basic_streambuf"* %this, i64 0, i32 0, !llfi_index !1603
  store i32 (...)** bitcast (i8** getelementptr inbounds ([16 x i8*]* @_ZTVSt15basic_streambufIcSt11char_traitsIcEE, i64 0, i64 2) to i32 (...)**), i32 (...)*** %1, align 8, !tbaa !46, !llfi_index !1604
  %2 = getelementptr inbounds %"class.std::basic_streambuf"* %this, i64 0, i32 7, !llfi_index !1605
  tail call void @_ZNSt6localeD1Ev(%"class.std::locale"* %2) #1, !llfi_index !1606
  ret void, !llfi_index !1607
}

; Function Attrs: nounwind
declare void @_ZNSt6localeD1Ev(%"class.std::locale"*) #9

; Function Attrs: uwtable
define available_externally void @_ZNSt9basic_iosIcSt11char_traitsIcEEC2Ev(%"class.std::basic_ios"* %this) unnamed_addr #4 align 2 {
  %1 = getelementptr inbounds %"class.std::basic_ios"* %this, i64 0, i32 0, !llfi_index !1608
  tail call void @_ZNSt8ios_baseC2Ev(%"class.std::ios_base"* %1), !llfi_index !1609
  %2 = getelementptr inbounds %"class.std::basic_ios"* %this, i64 0, i32 0, i32 0, !llfi_index !1610
  store i32 (...)** bitcast (i8** getelementptr inbounds ([4 x i8*]* @_ZTVSt9basic_iosIcSt11char_traitsIcEE, i64 0, i64 2) to i32 (...)**), i32 (...)*** %2, align 8, !tbaa !46, !llfi_index !1611
  %3 = getelementptr inbounds %"class.std::basic_ios"* %this, i64 0, i32 1, !llfi_index !1612
  store %"class.std::basic_ostream"* null, %"class.std::basic_ostream"** %3, align 8, !tbaa !1613, !llfi_index !1616
  %4 = getelementptr inbounds %"class.std::basic_ios"* %this, i64 0, i32 2, !llfi_index !1617
  store i8 0, i8* %4, align 1, !tbaa !1618, !llfi_index !1619
  %5 = getelementptr inbounds %"class.std::basic_ios"* %this, i64 0, i32 3, !llfi_index !1620
  store i8 0, i8* %5, align 1, !tbaa !1621, !llfi_index !1622
  %6 = getelementptr inbounds %"class.std::basic_ios"* %this, i64 0, i32 4, !llfi_index !1623
  %7 = bitcast %"class.std::basic_streambuf"** %6 to i8*, !llfi_index !1624
  call void @llvm.memset.p0i8.i64(i8* %7, i8 0, i64 32, i32 8, i1 false), !llfi_index !1625
  ret void, !llfi_index !1626
}

; Function Attrs: uwtable
define available_externally void @_ZNSoC2Ev(%"class.std::basic_ostream"* %this, i8** nocapture readonly %vtt) unnamed_addr #4 align 2 {
  %1 = load i8** %vtt, align 8, !llfi_index !1627
  %2 = bitcast %"class.std::basic_ostream"* %this to i8**, !llfi_index !1628
  %3 = getelementptr inbounds %"class.std::basic_ostream"* %this, i64 0, i32 0, !llfi_index !1629
  %.c = bitcast i8* %1 to i32 (...)**, !llfi_index !1630
  store i32 (...)** %.c, i32 (...)*** %3, align 8, !tbaa !46, !llfi_index !1631
  %4 = getelementptr inbounds i8** %vtt, i64 1, !llfi_index !1632
  %5 = load i8** %4, align 8, !llfi_index !1633
  %6 = getelementptr i8* %1, i64 -24, !llfi_index !1634
  %7 = bitcast i8* %6 to i64*, !llfi_index !1635
  %8 = load i64* %7, align 8, !llfi_index !1636
  %9 = bitcast %"class.std::basic_ostream"* %this to i8*, !llfi_index !1637
  %10 = getelementptr inbounds i8* %9, i64 %8, !llfi_index !1638
  %11 = bitcast i8* %10 to i8**, !llfi_index !1639
  store i8* %5, i8** %11, align 8, !tbaa !46, !llfi_index !1640
  %12 = load i8** %2, align 8, !tbaa !46, !llfi_index !1641
  %13 = getelementptr i8* %12, i64 -24, !llfi_index !1642
  %14 = bitcast i8* %13 to i64*, !llfi_index !1643
  %15 = load i64* %14, align 8, !llfi_index !1644
  %16 = getelementptr inbounds i8* %9, i64 %15, !llfi_index !1645
  %17 = bitcast i8* %16 to %"class.std::basic_ios"*, !llfi_index !1646
  tail call void @_ZNSt9basic_iosIcSt11char_traitsIcEE4initEPSt15basic_streambufIcS1_E(%"class.std::basic_ios"* %17, %"class.std::basic_streambuf"* null), !llfi_index !1647
  ret void, !llfi_index !1648
}

declare void @_ZNSt13basic_filebufIcSt11char_traitsIcEEC1Ev(%"class.std::basic_filebuf"*) #0

declare void @_ZNSt9basic_iosIcSt11char_traitsIcEE4initEPSt15basic_streambufIcS1_E(%"class.std::basic_ios"*, %"class.std::basic_streambuf"*) #0

; Function Attrs: uwtable
define available_externally void @_ZNSt14basic_ofstreamIcSt11char_traitsIcEE4openEPKcSt13_Ios_Openmode(%"class.std::basic_ofstream"* %this, i8* %__s, i32 %__mode) #4 align 2 {
  %1 = getelementptr inbounds %"class.std::basic_ofstream"* %this, i64 0, i32 1, !llfi_index !1649
  %2 = tail call i32 @_ZStorSt13_Ios_OpenmodeS_(i32 %__mode, i32 16), !llfi_index !1650
  %3 = tail call %"class.std::basic_filebuf"* @_ZNSt13basic_filebufIcSt11char_traitsIcEE4openEPKcSt13_Ios_Openmode(%"class.std::basic_filebuf"* %1, i8* %__s, i32 %2), !llfi_index !1651
  %4 = icmp eq %"class.std::basic_filebuf"* %3, null, !llfi_index !1652
  %5 = bitcast %"class.std::basic_ofstream"* %this to i8**, !llfi_index !1653
  %6 = load i8** %5, align 8, !tbaa !46, !llfi_index !1654
  %7 = getelementptr i8* %6, i64 -24, !llfi_index !1655
  %8 = bitcast i8* %7 to i64*, !llfi_index !1656
  %9 = load i64* %8, align 8, !llfi_index !1657
  %10 = bitcast %"class.std::basic_ofstream"* %this to i8*, !llfi_index !1658
  %11 = getelementptr inbounds i8* %10, i64 %9, !llfi_index !1659
  %12 = bitcast i8* %11 to %"class.std::basic_ios"*, !llfi_index !1660
  br i1 %4, label %13, label %14, !llfi_index !1661

; <label>:13                                      ; preds = %0
  tail call void @_ZNSt9basic_iosIcSt11char_traitsIcEE8setstateESt12_Ios_Iostate(%"class.std::basic_ios"* %12, i32 4), !llfi_index !1662
  br label %15, !llfi_index !1663

; <label>:14                                      ; preds = %0
  tail call void @_ZNSt9basic_iosIcSt11char_traitsIcEE5clearESt12_Ios_Iostate(%"class.std::basic_ios"* %12, i32 0), !llfi_index !1664
  br label %15, !llfi_index !1665

; <label>:15                                      ; preds = %14, %13
  ret void, !llfi_index !1666
}

declare %"class.std::basic_filebuf"* @_ZNSt13basic_filebufIcSt11char_traitsIcEE4openEPKcSt13_Ios_Openmode(%"class.std::basic_filebuf"*, i8*, i32) #0

; Function Attrs: inlinehint nounwind readnone uwtable
define linkonce_odr i32 @_ZStorSt13_Ios_OpenmodeS_(i32 %__a, i32 %__b) #12 {
  %1 = or i32 %__b, %__a, !llfi_index !1667
  ret i32 %1, !llfi_index !1668
}

; Function Attrs: uwtable
define available_externally void @_ZNSt9basic_iosIcSt11char_traitsIcEE8setstateESt12_Ios_Iostate(%"class.std::basic_ios"* %this, i32 %__state) #4 align 2 {
  %1 = tail call i32 @_ZNKSt9basic_iosIcSt11char_traitsIcEE7rdstateEv(%"class.std::basic_ios"* %this), !llfi_index !1669
  %2 = tail call i32 @_ZStorSt12_Ios_IostateS_(i32 %1, i32 %__state), !llfi_index !1670
  tail call void @_ZNSt9basic_iosIcSt11char_traitsIcEE5clearESt12_Ios_Iostate(%"class.std::basic_ios"* %this, i32 %2), !llfi_index !1671
  ret void, !llfi_index !1672
}

declare void @_ZNSt9basic_iosIcSt11char_traitsIcEE5clearESt12_Ios_Iostate(%"class.std::basic_ios"*, i32) #0

; Function Attrs: inlinehint nounwind readnone uwtable
define linkonce_odr i32 @_ZStorSt12_Ios_IostateS_(i32 %__a, i32 %__b) #12 {
  %1 = or i32 %__b, %__a, !llfi_index !1673
  ret i32 %1, !llfi_index !1674
}

; Function Attrs: nounwind readonly uwtable
define available_externally i32 @_ZNKSt9basic_iosIcSt11char_traitsIcEE7rdstateEv(%"class.std::basic_ios"* nocapture readonly %this) #6 align 2 {
  %1 = getelementptr inbounds %"class.std::basic_ios"* %this, i64 0, i32 0, i32 5, !llfi_index !1675
  %2 = load i32* %1, align 4, !tbaa !1676, !llfi_index !1683
  ret i32 %2, !llfi_index !1684
}

declare void @_ZNSt8ios_baseC2Ev(%"class.std::ios_base"*) #0

; Function Attrs: nounwind readonly uwtable
define available_externally zeroext i1 @_ZNKSt9basic_iosIcSt11char_traitsIcEE4failEv(%"class.std::basic_ios"* nocapture readonly %this) #6 align 2 {
  %1 = tail call i32 @_ZNKSt9basic_iosIcSt11char_traitsIcEE7rdstateEv(%"class.std::basic_ios"* %this), !llfi_index !1685
  %2 = tail call i32 @_ZStorSt12_Ios_IostateS_(i32 1, i32 4), !llfi_index !1686
  %3 = tail call i32 @_ZStanSt12_Ios_IostateS_(i32 %1, i32 %2), !llfi_index !1687
  %4 = icmp ne i32 %3, 0, !llfi_index !1688
  ret i1 %4, !llfi_index !1689
}

; Function Attrs: inlinehint nounwind readnone uwtable
define linkonce_odr i32 @_ZStanSt12_Ios_IostateS_(i32 %__a, i32 %__b) #12 {
  %1 = and i32 %__b, %__a, !llfi_index !1690
  ret i32 %1, !llfi_index !1691
}

; Function Attrs: uwtable
define available_externally void @_ZNSt14basic_ifstreamIcSt11char_traitsIcEED2Ev(%"class.std::basic_ifstream"* %this, i8** nocapture readonly %vtt) unnamed_addr #4 align 2 {
  %1 = load i8** %vtt, align 8, !llfi_index !1692
  %2 = getelementptr inbounds %"class.std::basic_ifstream"* %this, i64 0, i32 0, i32 0, !llfi_index !1693
  %.c = bitcast i8* %1 to i32 (...)**, !llfi_index !1694
  store i32 (...)** %.c, i32 (...)*** %2, align 8, !tbaa !46, !llfi_index !1695
  %3 = getelementptr inbounds i8** %vtt, i64 3, !llfi_index !1696
  %4 = load i8** %3, align 8, !llfi_index !1697
  %5 = getelementptr i8* %1, i64 -24, !llfi_index !1698
  %6 = bitcast i8* %5 to i64*, !llfi_index !1699
  %7 = load i64* %6, align 8, !llfi_index !1700
  %8 = bitcast %"class.std::basic_ifstream"* %this to i8*, !llfi_index !1701
  %9 = getelementptr inbounds i8* %8, i64 %7, !llfi_index !1702
  %10 = bitcast i8* %9 to i8**, !llfi_index !1703
  store i8* %4, i8** %10, align 8, !tbaa !46, !llfi_index !1704
  %11 = getelementptr inbounds %"class.std::basic_ifstream"* %this, i64 0, i32 1, !llfi_index !1705
  invoke void @_ZNSt13basic_filebufIcSt11char_traitsIcEED1Ev(%"class.std::basic_filebuf"* %11)
          to label %12 unwind label %15, !llfi_index !1706

; <label>:12                                      ; preds = %0
  %13 = bitcast %"class.std::basic_ifstream"* %this to %"class.std::basic_istream"*, !llfi_index !1707
  %14 = getelementptr inbounds i8** %vtt, i64 1, !llfi_index !1708
  tail call void @_ZNSiD2Ev(%"class.std::basic_istream"* %13, i8** %14), !llfi_index !1709
  ret void, !llfi_index !1710

; <label>:15                                      ; preds = %0
  %16 = landingpad { i8*, i32 } personality i8* bitcast (i32 (...)* @__gxx_personality_v0 to i8*)
          cleanup, !llfi_index !1711
  %17 = bitcast %"class.std::basic_ifstream"* %this to %"class.std::basic_istream"*, !llfi_index !1712
  %18 = getelementptr inbounds i8** %vtt, i64 1, !llfi_index !1713
  tail call void @_ZNSiD2Ev(%"class.std::basic_istream"* %17, i8** %18), !llfi_index !1714
  resume { i8*, i32 } %16, !llfi_index !1715
}

; Function Attrs: nounwind uwtable
define available_externally void @_ZNSiD2Ev(%"class.std::basic_istream"* nocapture %this, i8** nocapture readonly %vtt) unnamed_addr #2 align 2 {
  %1 = load i8** %vtt, align 8, !llfi_index !1716
  %2 = getelementptr inbounds %"class.std::basic_istream"* %this, i64 0, i32 0, !llfi_index !1717
  %.c = bitcast i8* %1 to i32 (...)**, !llfi_index !1718
  store i32 (...)** %.c, i32 (...)*** %2, align 8, !tbaa !46, !llfi_index !1719
  %3 = getelementptr inbounds i8** %vtt, i64 1, !llfi_index !1720
  %4 = load i8** %3, align 8, !llfi_index !1721
  %5 = getelementptr i8* %1, i64 -24, !llfi_index !1722
  %6 = bitcast i8* %5 to i64*, !llfi_index !1723
  %7 = load i64* %6, align 8, !llfi_index !1724
  %8 = bitcast %"class.std::basic_istream"* %this to i8*, !llfi_index !1725
  %9 = getelementptr inbounds i8* %8, i64 %7, !llfi_index !1726
  %10 = bitcast i8* %9 to i8**, !llfi_index !1727
  store i8* %4, i8** %10, align 8, !tbaa !46, !llfi_index !1728
  %11 = getelementptr inbounds %"class.std::basic_istream"* %this, i64 0, i32 1, !llfi_index !1729
  store i64 0, i64* %11, align 8, !tbaa !1730, !llfi_index !1732
  ret void, !llfi_index !1733
}

; Function Attrs: uwtable
define available_externally void @_ZNSiC2Ev(%"class.std::basic_istream"* %this, i8** nocapture readonly %vtt) unnamed_addr #4 align 2 {
  %1 = load i8** %vtt, align 8, !llfi_index !1734
  %2 = bitcast %"class.std::basic_istream"* %this to i8**, !llfi_index !1735
  %3 = getelementptr inbounds %"class.std::basic_istream"* %this, i64 0, i32 0, !llfi_index !1736
  %.c = bitcast i8* %1 to i32 (...)**, !llfi_index !1737
  store i32 (...)** %.c, i32 (...)*** %3, align 8, !tbaa !46, !llfi_index !1738
  %4 = getelementptr inbounds i8** %vtt, i64 1, !llfi_index !1739
  %5 = load i8** %4, align 8, !llfi_index !1740
  %6 = getelementptr i8* %1, i64 -24, !llfi_index !1741
  %7 = bitcast i8* %6 to i64*, !llfi_index !1742
  %8 = load i64* %7, align 8, !llfi_index !1743
  %9 = bitcast %"class.std::basic_istream"* %this to i8*, !llfi_index !1744
  %10 = getelementptr inbounds i8* %9, i64 %8, !llfi_index !1745
  %11 = bitcast i8* %10 to i8**, !llfi_index !1746
  store i8* %5, i8** %11, align 8, !tbaa !46, !llfi_index !1747
  %12 = getelementptr inbounds %"class.std::basic_istream"* %this, i64 0, i32 1, !llfi_index !1748
  store i64 0, i64* %12, align 8, !tbaa !1730, !llfi_index !1749
  %13 = load i8** %2, align 8, !tbaa !46, !llfi_index !1750
  %14 = getelementptr i8* %13, i64 -24, !llfi_index !1751
  %15 = bitcast i8* %14 to i64*, !llfi_index !1752
  %16 = load i64* %15, align 8, !llfi_index !1753
  %17 = getelementptr inbounds i8* %9, i64 %16, !llfi_index !1754
  %18 = bitcast i8* %17 to %"class.std::basic_ios"*, !llfi_index !1755
  tail call void @_ZNSt9basic_iosIcSt11char_traitsIcEE4initEPSt15basic_streambufIcS1_E(%"class.std::basic_ios"* %18, %"class.std::basic_streambuf"* null), !llfi_index !1756
  ret void, !llfi_index !1757
}

; Function Attrs: uwtable
define available_externally void @_ZNSt14basic_ifstreamIcSt11char_traitsIcEE4openEPKcSt13_Ios_Openmode(%"class.std::basic_ifstream"* %this, i8* %__s, i32 %__mode) #4 align 2 {
  %1 = getelementptr inbounds %"class.std::basic_ifstream"* %this, i64 0, i32 1, !llfi_index !1758
  %2 = tail call i32 @_ZStorSt13_Ios_OpenmodeS_(i32 %__mode, i32 8), !llfi_index !1759
  %3 = tail call %"class.std::basic_filebuf"* @_ZNSt13basic_filebufIcSt11char_traitsIcEE4openEPKcSt13_Ios_Openmode(%"class.std::basic_filebuf"* %1, i8* %__s, i32 %2), !llfi_index !1760
  %4 = icmp eq %"class.std::basic_filebuf"* %3, null, !llfi_index !1761
  %5 = bitcast %"class.std::basic_ifstream"* %this to i8**, !llfi_index !1762
  %6 = load i8** %5, align 8, !tbaa !46, !llfi_index !1763
  %7 = getelementptr i8* %6, i64 -24, !llfi_index !1764
  %8 = bitcast i8* %7 to i64*, !llfi_index !1765
  %9 = load i64* %8, align 8, !llfi_index !1766
  %10 = bitcast %"class.std::basic_ifstream"* %this to i8*, !llfi_index !1767
  %11 = getelementptr inbounds i8* %10, i64 %9, !llfi_index !1768
  %12 = bitcast i8* %11 to %"class.std::basic_ios"*, !llfi_index !1769
  br i1 %4, label %13, label %14, !llfi_index !1770

; <label>:13                                      ; preds = %0
  tail call void @_ZNSt9basic_iosIcSt11char_traitsIcEE8setstateESt12_Ios_Iostate(%"class.std::basic_ios"* %12, i32 4), !llfi_index !1771
  br label %15, !llfi_index !1772

; <label>:14                                      ; preds = %0
  tail call void @_ZNSt9basic_iosIcSt11char_traitsIcEE5clearESt12_Ios_Iostate(%"class.std::basic_ios"* %12, i32 0), !llfi_index !1773
  br label %15, !llfi_index !1774

; <label>:15                                      ; preds = %14, %13
  ret void, !llfi_index !1775
}

declare %"class.std::basic_ostream"* @_ZNSo3putEc(%"class.std::basic_ostream"*, i8 signext) #0

; Function Attrs: uwtable
define available_externally signext i8 @_ZNKSt9basic_iosIcSt11char_traitsIcEE5widenEc(%"class.std::basic_ios"* nocapture readonly %this, i8 signext %__c) #4 align 2 {
  %1 = getelementptr inbounds %"class.std::basic_ios"* %this, i64 0, i32 5, !llfi_index !1776
  %2 = load %"class.std::ctype"** %1, align 8, !tbaa !1777, !llfi_index !1778
  %3 = tail call %"class.std::ctype"* @_ZSt13__check_facetISt5ctypeIcEERKT_PS3_(%"class.std::ctype"* %2), !llfi_index !1779
  %4 = tail call signext i8 @_ZNKSt5ctypeIcE5widenEc(%"class.std::ctype"* %3, i8 signext %__c), !llfi_index !1780
  ret i8 %4, !llfi_index !1781
}

; Function Attrs: inlinehint uwtable
define linkonce_odr %"class.std::ctype"* @_ZSt13__check_facetISt5ctypeIcEERKT_PS3_(%"class.std::ctype"* readnone %__f) #5 {
  %1 = icmp eq %"class.std::ctype"* %__f, null, !llfi_index !1782
  br i1 %1, label %2, label %3, !llfi_index !1783

; <label>:2                                       ; preds = %0
  tail call void @_ZSt16__throw_bad_castv() #22, !llfi_index !1784
  unreachable, !llfi_index !1785

; <label>:3                                       ; preds = %0
  ret %"class.std::ctype"* %__f, !llfi_index !1786
}

; Function Attrs: uwtable
define linkonce_odr signext i8 @_ZNKSt5ctypeIcE5widenEc(%"class.std::ctype"* %this, i8 signext %__c) #4 align 2 {
  %1 = getelementptr inbounds %"class.std::ctype"* %this, i64 0, i32 6, !llfi_index !1787
  %2 = load i8* %1, align 1, !tbaa !1788, !llfi_index !1790
  %3 = icmp eq i8 %2, 0, !llfi_index !1791
  br i1 %3, label %8, label %4, !llfi_index !1792

; <label>:4                                       ; preds = %0
  %5 = zext i8 %__c to i64, !llfi_index !1793
  %6 = getelementptr inbounds %"class.std::ctype"* %this, i64 0, i32 7, i64 %5, !llfi_index !1794
  %7 = load i8* %6, align 1, !tbaa !1795, !llfi_index !1796
  br label %14, !llfi_index !1797

; <label>:8                                       ; preds = %0
  tail call void @_ZNKSt5ctypeIcE13_M_widen_initEv(%"class.std::ctype"* %this), !llfi_index !1798
  %9 = bitcast %"class.std::ctype"* %this to i8 (%"class.std::ctype"*, i8)***, !llfi_index !1799
  %10 = load i8 (%"class.std::ctype"*, i8)*** %9, align 8, !tbaa !46, !llfi_index !1800
  %11 = getelementptr inbounds i8 (%"class.std::ctype"*, i8)** %10, i64 6, !llfi_index !1801
  %12 = load i8 (%"class.std::ctype"*, i8)** %11, align 8, !llfi_index !1802
  %13 = tail call signext i8 %12(%"class.std::ctype"* %this, i8 signext %__c), !llfi_index !1803
  br label %14, !llfi_index !1804

; <label>:14                                      ; preds = %8, %4
  %.0 = phi i8 [ %7, %4 ], [ %13, %8 ], !llfi_index !1805
  ret i8 %.0, !llfi_index !1806
}

declare void @_ZNKSt5ctypeIcE13_M_widen_initEv(%"class.std::ctype"*) #0

; Function Attrs: noreturn
declare void @_ZSt16__throw_bad_castv() #17

declare %"class.std::basic_ostream"* @_ZSt16__ostream_insertIcSt11char_traitsIcEERSt13basic_ostreamIT_T0_ES6_PKS3_l(%"class.std::basic_ostream"*, i8*, i64) #0

; Function Attrs: nounwind readonly uwtable
define linkonce_odr i64 @_ZNSt11char_traitsIcE6lengthEPKc(i8* nocapture readonly %__s) #6 align 2 {
  %1 = tail call i64 @strlen(i8* %__s) #1, !llfi_index !1807
  ret i64 %1, !llfi_index !1808
}

; Function Attrs: nounwind readonly
declare i64 @strlen(i8* nocapture) #16

define internal void @_GLOBAL__I_a() section ".text.startup" {
  tail call fastcc void @__cxx_global_var_init(), !llfi_index !1809
  tail call fastcc void @__cxx_global_var_init1(), !llfi_index !1810
  tail call fastcc void @__cxx_global_var_init2(), !llfi_index !1811
  tail call fastcc void @__cxx_global_var_init3(), !llfi_index !1812
  ret void, !llfi_index !1813
}

attributes #0 = { "less-precise-fpmad"="false" "no-frame-pointer-elim"="false" "no-infs-fp-math"="false" "no-nans-fp-math"="false" "stack-protector-buffer-size"="8" "unsafe-fp-math"="false" "use-soft-float"="false" }
attributes #1 = { nounwind }
attributes #2 = { nounwind uwtable "less-precise-fpmad"="false" "no-frame-pointer-elim"="false" "no-infs-fp-math"="false" "no-nans-fp-math"="false" "stack-protector-buffer-size"="8" "unsafe-fp-math"="false" "use-soft-float"="false" }
attributes #3 = { nounwind readnone uwtable "less-precise-fpmad"="false" "no-frame-pointer-elim"="false" "no-infs-fp-math"="false" "no-nans-fp-math"="false" "stack-protector-buffer-size"="8" "unsafe-fp-math"="false" "use-soft-float"="false" }
attributes #4 = { uwtable "less-precise-fpmad"="false" "no-frame-pointer-elim"="false" "no-infs-fp-math"="false" "no-nans-fp-math"="false" "stack-protector-buffer-size"="8" "unsafe-fp-math"="false" "use-soft-float"="false" }
attributes #5 = { inlinehint uwtable "less-precise-fpmad"="false" "no-frame-pointer-elim"="false" "no-infs-fp-math"="false" "no-nans-fp-math"="false" "stack-protector-buffer-size"="8" "unsafe-fp-math"="false" "use-soft-float"="false" }
attributes #6 = { nounwind readonly uwtable "less-precise-fpmad"="false" "no-frame-pointer-elim"="false" "no-infs-fp-math"="false" "no-nans-fp-math"="false" "stack-protector-buffer-size"="8" "unsafe-fp-math"="false" "use-soft-float"="false" }
attributes #7 = { noreturn nounwind "less-precise-fpmad"="false" "no-frame-pointer-elim"="false" "no-infs-fp-math"="false" "no-nans-fp-math"="false" "stack-protector-buffer-size"="8" "unsafe-fp-math"="false" "use-soft-float"="false" }
attributes #8 = { inlinehint nounwind uwtable "less-precise-fpmad"="false" "no-frame-pointer-elim"="false" "no-infs-fp-math"="false" "no-nans-fp-math"="false" "stack-protector-buffer-size"="8" "unsafe-fp-math"="false" "use-soft-float"="false" }
attributes #9 = { nounwind "less-precise-fpmad"="false" "no-frame-pointer-elim"="false" "no-infs-fp-math"="false" "no-nans-fp-math"="false" "stack-protector-buffer-size"="8" "unsafe-fp-math"="false" "use-soft-float"="false" }
attributes #10 = { nounwind readnone }
attributes #11 = { nobuiltin "less-precise-fpmad"="false" "no-frame-pointer-elim"="false" "no-infs-fp-math"="false" "no-nans-fp-math"="false" "stack-protector-buffer-size"="8" "unsafe-fp-math"="false" "use-soft-float"="false" }
attributes #12 = { inlinehint nounwind readnone uwtable "less-precise-fpmad"="false" "no-frame-pointer-elim"="false" "no-infs-fp-math"="false" "no-nans-fp-math"="false" "stack-protector-buffer-size"="8" "unsafe-fp-math"="false" "use-soft-float"="false" }
attributes #13 = { nobuiltin nounwind "less-precise-fpmad"="false" "no-frame-pointer-elim"="false" "no-infs-fp-math"="false" "no-nans-fp-math"="false" "stack-protector-buffer-size"="8" "unsafe-fp-math"="false" "use-soft-float"="false" }
attributes #14 = { noinline noreturn nounwind }
attributes #15 = { inlinehint nounwind readonly uwtable "less-precise-fpmad"="false" "no-frame-pointer-elim"="false" "no-infs-fp-math"="false" "no-nans-fp-math"="false" "stack-protector-buffer-size"="8" "unsafe-fp-math"="false" "use-soft-float"="false" }
attributes #16 = { nounwind readonly "less-precise-fpmad"="false" "no-frame-pointer-elim"="false" "no-infs-fp-math"="false" "no-nans-fp-math"="false" "stack-protector-buffer-size"="8" "unsafe-fp-math"="false" "use-soft-float"="false" }
attributes #17 = { noreturn "less-precise-fpmad"="false" "no-frame-pointer-elim"="false" "no-infs-fp-math"="false" "no-nans-fp-math"="false" "stack-protector-buffer-size"="8" "unsafe-fp-math"="false" "use-soft-float"="false" }
attributes #18 = { noreturn nounwind }
attributes #19 = { builtin }
attributes #20 = { builtin nounwind }
attributes #21 = { nounwind readonly }
attributes #22 = { noreturn }

!llvm.ident = !{!0}

!0 = metadata !{metadata !"clang version 3.4 (tags/RELEASE_34/final)"}
!1 = metadata !{i64 1}
!2 = metadata !{i64 2}
!3 = metadata !{i64 3}
!4 = metadata !{i64 4}
!5 = metadata !{i64 5}
!6 = metadata !{i64 6}
!7 = metadata !{i64 7}
!8 = metadata !{metadata !9, metadata !10, i64 0}
!9 = metadata !{metadata !"_ZTS4Vec3", metadata !10, i64 0, metadata !10, i64 4, metadata !10, i64 8}
!10 = metadata !{metadata !"float", metadata !11, i64 0}
!11 = metadata !{metadata !"omnipotent char", metadata !12, i64 0}
!12 = metadata !{metadata !"Simple C/C++ TBAA"}
!13 = metadata !{i64 8}
!14 = metadata !{i64 9}
!15 = metadata !{metadata !9, metadata !10, i64 4}
!16 = metadata !{i64 10}
!17 = metadata !{i64 11}
!18 = metadata !{metadata !9, metadata !10, i64 8}
!19 = metadata !{i64 12}
!20 = metadata !{i64 13}
!21 = metadata !{i64 14}
!22 = metadata !{i64 15}
!23 = metadata !{i64 16}
!24 = metadata !{i64 17}
!25 = metadata !{i64 18}
!26 = metadata !{i64 19}
!27 = metadata !{i64 20}
!28 = metadata !{i64 21}
!29 = metadata !{i64 22}
!30 = metadata !{i64 23}
!31 = metadata !{i64 24}
!32 = metadata !{i64 25}
!33 = metadata !{i64 26}
!34 = metadata !{i64 27}
!35 = metadata !{i64 28}
!36 = metadata !{i64 29}
!37 = metadata !{i64 30}
!38 = metadata !{i64 31}
!39 = metadata !{i64 32}
!40 = metadata !{i64 33}
!41 = metadata !{i64 34}
!42 = metadata !{i64 35}
!43 = metadata !{i64 36}
!44 = metadata !{i64 37}
!45 = metadata !{i64 38}
!46 = metadata !{metadata !47, metadata !47, i64 0}
!47 = metadata !{metadata !"vtable pointer", metadata !12, i64 0}
!48 = metadata !{i64 39}
!49 = metadata !{i64 40}
!50 = metadata !{i64 41}
!51 = metadata !{i64 42}
!52 = metadata !{i64 43}
!53 = metadata !{i64 44}
!54 = metadata !{i64 45}
!55 = metadata !{i64 46}
!56 = metadata !{i64 47}
!57 = metadata !{i64 48}
!58 = metadata !{i64 49}
!59 = metadata !{i64 50}
!60 = metadata !{i64 51}
!61 = metadata !{i64 52}
!62 = metadata !{metadata !63, metadata !63, i64 0}
!63 = metadata !{metadata !"int", metadata !11, i64 0}
!64 = metadata !{i64 53}
!65 = metadata !{i64 54}
!66 = metadata !{metadata !10, metadata !10, i64 0}
!67 = metadata !{i64 55}
!68 = metadata !{i64 56}
!69 = metadata !{i64 57}
!70 = metadata !{i64 58}
!71 = metadata !{i64 59}
!72 = metadata !{i64 60}
!73 = metadata !{i64 61}
!74 = metadata !{i64 62}
!75 = metadata !{i64 63}
!76 = metadata !{i64 64}
!77 = metadata !{i64 65}
!78 = metadata !{i64 66}
!79 = metadata !{i64 67}
!80 = metadata !{i64 68}
!81 = metadata !{i64 69}
!82 = metadata !{i64 70}
!83 = metadata !{i64 71}
!84 = metadata !{i64 72}
!85 = metadata !{i64 73}
!86 = metadata !{i64 74}
!87 = metadata !{i64 75}
!88 = metadata !{i64 76}
!89 = metadata !{i64 77}
!90 = metadata !{i64 78}
!91 = metadata !{i64 79}
!92 = metadata !{i64 80}
!93 = metadata !{i64 81}
!94 = metadata !{i64 82}
!95 = metadata !{i64 83}
!96 = metadata !{i64 84}
!97 = metadata !{i64 85}
!98 = metadata !{i64 86}
!99 = metadata !{i64 87}
!100 = metadata !{i64 88}
!101 = metadata !{i64 89}
!102 = metadata !{i64 90}
!103 = metadata !{i64 91}
!104 = metadata !{i64 92}
!105 = metadata !{i64 93}
!106 = metadata !{i64 94}
!107 = metadata !{i64 95}
!108 = metadata !{i64 96}
!109 = metadata !{i64 97}
!110 = metadata !{i64 98}
!111 = metadata !{i64 99}
!112 = metadata !{i64 100}
!113 = metadata !{i64 101}
!114 = metadata !{i64 102}
!115 = metadata !{i64 103}
!116 = metadata !{i64 104}
!117 = metadata !{i64 105}
!118 = metadata !{i64 106}
!119 = metadata !{i64 107}
!120 = metadata !{i64 108}
!121 = metadata !{i64 109}
!122 = metadata !{i64 110}
!123 = metadata !{i64 111}
!124 = metadata !{i64 112}
!125 = metadata !{i64 113}
!126 = metadata !{i64 114}
!127 = metadata !{i64 115}
!128 = metadata !{i64 116}
!129 = metadata !{i64 117}
!130 = metadata !{i64 118}
!131 = metadata !{i64 119}
!132 = metadata !{i64 120}
!133 = metadata !{i64 121}
!134 = metadata !{i64 122}
!135 = metadata !{i64 123}
!136 = metadata !{i64 124}
!137 = metadata !{i64 125}
!138 = metadata !{i64 126}
!139 = metadata !{i64 127}
!140 = metadata !{i64 128}
!141 = metadata !{i64 129}
!142 = metadata !{i64 130}
!143 = metadata !{i64 131}
!144 = metadata !{i64 132}
!145 = metadata !{i64 133}
!146 = metadata !{i64 134}
!147 = metadata !{i64 135}
!148 = metadata !{i64 136}
!149 = metadata !{i64 137}
!150 = metadata !{i64 138}
!151 = metadata !{i64 139}
!152 = metadata !{i64 140}
!153 = metadata !{i64 141}
!154 = metadata !{i64 142}
!155 = metadata !{i64 143}
!156 = metadata !{i64 144}
!157 = metadata !{i64 145}
!158 = metadata !{i64 146}
!159 = metadata !{i64 147}
!160 = metadata !{i64 148}
!161 = metadata !{i64 149}
!162 = metadata !{i64 150}
!163 = metadata !{i64 151}
!164 = metadata !{i64 152}
!165 = metadata !{i64 153}
!166 = metadata !{i64 154}
!167 = metadata !{metadata !168, metadata !168, i64 0}
!168 = metadata !{metadata !"any pointer", metadata !11, i64 0}
!169 = metadata !{i64 155}
!170 = metadata !{i64 156}
!171 = metadata !{i64 157}
!172 = metadata !{i64 158}
!173 = metadata !{i64 159}
!174 = metadata !{i64 160}
!175 = metadata !{i64 161}
!176 = metadata !{i64 162}
!177 = metadata !{i64 163}
!178 = metadata !{i64 164}
!179 = metadata !{i64 165}
!180 = metadata !{i64 166}
!181 = metadata !{i64 167}
!182 = metadata !{i64 168}
!183 = metadata !{i64 169}
!184 = metadata !{i64 170}
!185 = metadata !{i64 171}
!186 = metadata !{i64 172}
!187 = metadata !{i64 173}
!188 = metadata !{i64 174}
!189 = metadata !{i64 175}
!190 = metadata !{i64 176}
!191 = metadata !{i64 177}
!192 = metadata !{i64 178}
!193 = metadata !{i64 179}
!194 = metadata !{i64 180}
!195 = metadata !{i64 181}
!196 = metadata !{i64 182}
!197 = metadata !{i64 183}
!198 = metadata !{i64 184}
!199 = metadata !{i64 185}
!200 = metadata !{i64 186}
!201 = metadata !{i64 187}
!202 = metadata !{i64 188}
!203 = metadata !{i64 189}
!204 = metadata !{i64 190}
!205 = metadata !{i64 191}
!206 = metadata !{i64 192}
!207 = metadata !{i64 193}
!208 = metadata !{i64 194}
!209 = metadata !{i64 195}
!210 = metadata !{i64 196}
!211 = metadata !{i64 197}
!212 = metadata !{i64 198}
!213 = metadata !{i64 199}
!214 = metadata !{i64 200}
!215 = metadata !{i64 201}
!216 = metadata !{i64 202}
!217 = metadata !{i64 203}
!218 = metadata !{i64 204}
!219 = metadata !{i64 205}
!220 = metadata !{i64 206}
!221 = metadata !{i64 207}
!222 = metadata !{i64 208}
!223 = metadata !{i64 209}
!224 = metadata !{i64 210}
!225 = metadata !{i64 211}
!226 = metadata !{i64 212}
!227 = metadata !{i64 213}
!228 = metadata !{i64 214}
!229 = metadata !{i64 215}
!230 = metadata !{i64 216}
!231 = metadata !{i64 217}
!232 = metadata !{i64 218}
!233 = metadata !{i64 219}
!234 = metadata !{i64 220}
!235 = metadata !{i64 221}
!236 = metadata !{i64 222}
!237 = metadata !{i64 223}
!238 = metadata !{i64 224}
!239 = metadata !{i64 225}
!240 = metadata !{i64 226}
!241 = metadata !{i64 227}
!242 = metadata !{i64 228}
!243 = metadata !{i64 229}
!244 = metadata !{i64 230}
!245 = metadata !{i64 231}
!246 = metadata !{i64 232}
!247 = metadata !{i64 233}
!248 = metadata !{i64 234}
!249 = metadata !{i64 235}
!250 = metadata !{i64 236}
!251 = metadata !{i64 237}
!252 = metadata !{i64 238}
!253 = metadata !{i64 239}
!254 = metadata !{i64 240}
!255 = metadata !{i64 241}
!256 = metadata !{i64 242}
!257 = metadata !{i64 243}
!258 = metadata !{i64 244}
!259 = metadata !{i64 245}
!260 = metadata !{i64 246}
!261 = metadata !{i64 247}
!262 = metadata !{i64 248}
!263 = metadata !{i64 249}
!264 = metadata !{i64 250}
!265 = metadata !{i64 251}
!266 = metadata !{i64 252}
!267 = metadata !{i64 253}
!268 = metadata !{i64 254}
!269 = metadata !{i64 255}
!270 = metadata !{i64 256}
!271 = metadata !{i64 257}
!272 = metadata !{i64 258}
!273 = metadata !{i64 259}
!274 = metadata !{i64 260}
!275 = metadata !{i64 261}
!276 = metadata !{i64 262}
!277 = metadata !{i64 263}
!278 = metadata !{i64 264}
!279 = metadata !{i64 265}
!280 = metadata !{i64 266}
!281 = metadata !{i64 267}
!282 = metadata !{i64 268}
!283 = metadata !{i64 269}
!284 = metadata !{i64 270}
!285 = metadata !{i64 271}
!286 = metadata !{i64 272}
!287 = metadata !{i64 273}
!288 = metadata !{i64 274}
!289 = metadata !{i64 275}
!290 = metadata !{i64 276}
!291 = metadata !{i64 277}
!292 = metadata !{i64 278}
!293 = metadata !{i64 279}
!294 = metadata !{i64 280}
!295 = metadata !{i64 281}
!296 = metadata !{i64 282}
!297 = metadata !{i64 283}
!298 = metadata !{i64 284}
!299 = metadata !{i64 285}
!300 = metadata !{i64 286}
!301 = metadata !{i64 287}
!302 = metadata !{i64 288}
!303 = metadata !{i64 289}
!304 = metadata !{i64 290}
!305 = metadata !{i64 291}
!306 = metadata !{i64 292}
!307 = metadata !{i64 293}
!308 = metadata !{i64 294}
!309 = metadata !{i64 295}
!310 = metadata !{i64 296}
!311 = metadata !{i64 297}
!312 = metadata !{i64 298}
!313 = metadata !{i64 299}
!314 = metadata !{i64 300}
!315 = metadata !{i64 301}
!316 = metadata !{i64 302}
!317 = metadata !{i64 303}
!318 = metadata !{i64 304}
!319 = metadata !{i64 305}
!320 = metadata !{i64 306}
!321 = metadata !{i64 307}
!322 = metadata !{i64 308}
!323 = metadata !{i64 309}
!324 = metadata !{i64 310}
!325 = metadata !{i64 311}
!326 = metadata !{i64 312}
!327 = metadata !{i64 313}
!328 = metadata !{i64 314}
!329 = metadata !{i64 315}
!330 = metadata !{i64 316}
!331 = metadata !{i64 317}
!332 = metadata !{i64 318}
!333 = metadata !{i64 319}
!334 = metadata !{i64 320}
!335 = metadata !{i64 321}
!336 = metadata !{i64 322}
!337 = metadata !{i64 323}
!338 = metadata !{i64 324}
!339 = metadata !{i64 325}
!340 = metadata !{i64 326}
!341 = metadata !{i64 327}
!342 = metadata !{i64 328}
!343 = metadata !{i64 329}
!344 = metadata !{i64 330}
!345 = metadata !{i64 331}
!346 = metadata !{i64 332}
!347 = metadata !{i64 333}
!348 = metadata !{i64 334}
!349 = metadata !{i64 335}
!350 = metadata !{i64 336}
!351 = metadata !{i64 337}
!352 = metadata !{i64 338}
!353 = metadata !{i64 339}
!354 = metadata !{i64 340}
!355 = metadata !{i64 341}
!356 = metadata !{i64 342}
!357 = metadata !{i64 343}
!358 = metadata !{i64 344}
!359 = metadata !{i64 345}
!360 = metadata !{i64 346}
!361 = metadata !{i64 347}
!362 = metadata !{i64 348}
!363 = metadata !{i64 349}
!364 = metadata !{i64 350}
!365 = metadata !{i64 351}
!366 = metadata !{i64 352}
!367 = metadata !{i64 353}
!368 = metadata !{i64 354}
!369 = metadata !{i64 355}
!370 = metadata !{i64 356}
!371 = metadata !{i64 357}
!372 = metadata !{i64 358}
!373 = metadata !{i64 359}
!374 = metadata !{i64 360}
!375 = metadata !{i64 361}
!376 = metadata !{i64 362}
!377 = metadata !{i64 363}
!378 = metadata !{i64 364}
!379 = metadata !{i64 365}
!380 = metadata !{i64 366}
!381 = metadata !{i64 367}
!382 = metadata !{i64 368}
!383 = metadata !{i64 369}
!384 = metadata !{i64 370}
!385 = metadata !{i64 371}
!386 = metadata !{i64 372}
!387 = metadata !{i64 373}
!388 = metadata !{i64 374}
!389 = metadata !{i64 375}
!390 = metadata !{i64 376}
!391 = metadata !{i64 377}
!392 = metadata !{i64 378}
!393 = metadata !{i64 379}
!394 = metadata !{i64 380}
!395 = metadata !{i64 381}
!396 = metadata !{i64 382}
!397 = metadata !{i64 383}
!398 = metadata !{i64 384}
!399 = metadata !{i64 385}
!400 = metadata !{i64 386}
!401 = metadata !{i64 387}
!402 = metadata !{i64 388}
!403 = metadata !{i64 389}
!404 = metadata !{i64 390}
!405 = metadata !{i64 391}
!406 = metadata !{i64 392}
!407 = metadata !{i64 393}
!408 = metadata !{i64 394}
!409 = metadata !{i64 395}
!410 = metadata !{i64 396}
!411 = metadata !{i64 397}
!412 = metadata !{i64 398}
!413 = metadata !{i64 399}
!414 = metadata !{i64 400}
!415 = metadata !{i64 401}
!416 = metadata !{i64 402}
!417 = metadata !{i64 403}
!418 = metadata !{i64 404}
!419 = metadata !{i64 405}
!420 = metadata !{i64 406}
!421 = metadata !{i64 407}
!422 = metadata !{i64 408}
!423 = metadata !{i64 409}
!424 = metadata !{i64 410}
!425 = metadata !{i64 411}
!426 = metadata !{i64 412}
!427 = metadata !{i64 413}
!428 = metadata !{i64 414}
!429 = metadata !{i64 415}
!430 = metadata !{i64 416}
!431 = metadata !{i64 417}
!432 = metadata !{i64 418}
!433 = metadata !{i64 419}
!434 = metadata !{i64 420}
!435 = metadata !{i64 421}
!436 = metadata !{i64 422}
!437 = metadata !{i64 423}
!438 = metadata !{i64 424}
!439 = metadata !{i64 425}
!440 = metadata !{i64 426}
!441 = metadata !{i64 427}
!442 = metadata !{i64 428}
!443 = metadata !{i64 429}
!444 = metadata !{i64 430}
!445 = metadata !{i64 431}
!446 = metadata !{i64 432}
!447 = metadata !{i64 433}
!448 = metadata !{i64 434}
!449 = metadata !{i64 435}
!450 = metadata !{i64 436}
!451 = metadata !{i64 437}
!452 = metadata !{i64 438}
!453 = metadata !{i64 439}
!454 = metadata !{i64 440}
!455 = metadata !{i64 441}
!456 = metadata !{i64 442}
!457 = metadata !{i64 443}
!458 = metadata !{i64 444}
!459 = metadata !{i64 445}
!460 = metadata !{i64 446}
!461 = metadata !{i64 447}
!462 = metadata !{i64 448}
!463 = metadata !{i64 449}
!464 = metadata !{i64 450}
!465 = metadata !{i64 451}
!466 = metadata !{i64 452}
!467 = metadata !{i64 453}
!468 = metadata !{i64 454}
!469 = metadata !{i64 455}
!470 = metadata !{i64 456}
!471 = metadata !{i64 457}
!472 = metadata !{i64 458}
!473 = metadata !{i64 459}
!474 = metadata !{i64 460}
!475 = metadata !{i64 461}
!476 = metadata !{i64 462}
!477 = metadata !{i64 463}
!478 = metadata !{i64 464}
!479 = metadata !{i64 465}
!480 = metadata !{i64 466}
!481 = metadata !{i64 467}
!482 = metadata !{i64 468}
!483 = metadata !{i64 469}
!484 = metadata !{i64 470}
!485 = metadata !{i64 471}
!486 = metadata !{i64 472}
!487 = metadata !{i64 473}
!488 = metadata !{i64 474}
!489 = metadata !{i64 475}
!490 = metadata !{i64 476}
!491 = metadata !{i64 477}
!492 = metadata !{i64 478}
!493 = metadata !{i64 479}
!494 = metadata !{i64 480}
!495 = metadata !{i64 481}
!496 = metadata !{i64 482}
!497 = metadata !{i64 483}
!498 = metadata !{i64 484}
!499 = metadata !{i64 485}
!500 = metadata !{i64 486}
!501 = metadata !{i64 487}
!502 = metadata !{i64 488}
!503 = metadata !{i64 489}
!504 = metadata !{i64 490}
!505 = metadata !{i64 491}
!506 = metadata !{i64 492}
!507 = metadata !{i64 493}
!508 = metadata !{i64 494}
!509 = metadata !{i64 495}
!510 = metadata !{i64 496}
!511 = metadata !{i64 497}
!512 = metadata !{i64 498}
!513 = metadata !{i64 499}
!514 = metadata !{i64 500}
!515 = metadata !{i64 501}
!516 = metadata !{i64 502}
!517 = metadata !{i64 503}
!518 = metadata !{i64 504}
!519 = metadata !{i64 505}
!520 = metadata !{i64 506}
!521 = metadata !{i64 507}
!522 = metadata !{i64 508}
!523 = metadata !{i64 509}
!524 = metadata !{i64 510}
!525 = metadata !{i64 511}
!526 = metadata !{i64 512}
!527 = metadata !{i64 513}
!528 = metadata !{i64 514}
!529 = metadata !{i64 515}
!530 = metadata !{i64 516}
!531 = metadata !{i64 517}
!532 = metadata !{i64 518}
!533 = metadata !{i64 519}
!534 = metadata !{i64 520}
!535 = metadata !{i64 521}
!536 = metadata !{i64 522}
!537 = metadata !{i64 523}
!538 = metadata !{i64 524}
!539 = metadata !{i64 525}
!540 = metadata !{i64 526}
!541 = metadata !{i64 527}
!542 = metadata !{i64 528}
!543 = metadata !{i64 529}
!544 = metadata !{i64 530}
!545 = metadata !{i64 531}
!546 = metadata !{i64 532}
!547 = metadata !{i64 533}
!548 = metadata !{i64 534}
!549 = metadata !{i64 535}
!550 = metadata !{i64 536}
!551 = metadata !{i64 537}
!552 = metadata !{i64 538}
!553 = metadata !{i64 539}
!554 = metadata !{i64 540}
!555 = metadata !{i64 541}
!556 = metadata !{i64 542}
!557 = metadata !{i64 543}
!558 = metadata !{i64 544}
!559 = metadata !{i64 545}
!560 = metadata !{i64 546}
!561 = metadata !{i64 547}
!562 = metadata !{i64 548}
!563 = metadata !{i64 549}
!564 = metadata !{i64 550}
!565 = metadata !{i64 551}
!566 = metadata !{i64 552}
!567 = metadata !{i64 553}
!568 = metadata !{i64 554}
!569 = metadata !{i64 555}
!570 = metadata !{i64 556}
!571 = metadata !{i64 557}
!572 = metadata !{i64 558}
!573 = metadata !{i64 559}
!574 = metadata !{i64 560}
!575 = metadata !{i64 561}
!576 = metadata !{i64 562}
!577 = metadata !{i64 563}
!578 = metadata !{i64 564}
!579 = metadata !{i64 565}
!580 = metadata !{i64 566}
!581 = metadata !{i64 567}
!582 = metadata !{i64 568}
!583 = metadata !{i64 569}
!584 = metadata !{i64 570}
!585 = metadata !{i64 571}
!586 = metadata !{i64 572}
!587 = metadata !{i64 573}
!588 = metadata !{i64 574}
!589 = metadata !{i64 575}
!590 = metadata !{i64 576}
!591 = metadata !{i64 577}
!592 = metadata !{i64 578}
!593 = metadata !{i64 579}
!594 = metadata !{i64 580}
!595 = metadata !{i64 581}
!596 = metadata !{i64 582}
!597 = metadata !{i64 583}
!598 = metadata !{i64 584}
!599 = metadata !{i64 585}
!600 = metadata !{i64 586}
!601 = metadata !{i64 587}
!602 = metadata !{i64 588}
!603 = metadata !{i64 589}
!604 = metadata !{i64 590}
!605 = metadata !{i64 591}
!606 = metadata !{i64 592}
!607 = metadata !{i64 593}
!608 = metadata !{i64 594}
!609 = metadata !{i64 595}
!610 = metadata !{i64 596}
!611 = metadata !{i64 597}
!612 = metadata !{i64 598}
!613 = metadata !{i64 599}
!614 = metadata !{i64 600}
!615 = metadata !{i64 601}
!616 = metadata !{i64 602}
!617 = metadata !{i64 603}
!618 = metadata !{i64 604}
!619 = metadata !{i64 605}
!620 = metadata !{i64 606}
!621 = metadata !{i64 607}
!622 = metadata !{i64 608}
!623 = metadata !{i64 609}
!624 = metadata !{i64 610}
!625 = metadata !{i64 611}
!626 = metadata !{i64 612}
!627 = metadata !{i64 613}
!628 = metadata !{i64 614}
!629 = metadata !{i64 615}
!630 = metadata !{i64 616}
!631 = metadata !{i64 617}
!632 = metadata !{i64 618}
!633 = metadata !{i64 619}
!634 = metadata !{i64 620}
!635 = metadata !{i64 621}
!636 = metadata !{i64 622}
!637 = metadata !{i64 623}
!638 = metadata !{i64 624}
!639 = metadata !{i64 625}
!640 = metadata !{i64 626}
!641 = metadata !{i64 627}
!642 = metadata !{i64 628}
!643 = metadata !{i64 629}
!644 = metadata !{i64 630}
!645 = metadata !{i64 631}
!646 = metadata !{i64 632}
!647 = metadata !{i64 633}
!648 = metadata !{i64 634}
!649 = metadata !{i64 635}
!650 = metadata !{i64 636}
!651 = metadata !{i64 637}
!652 = metadata !{i64 638}
!653 = metadata !{i64 639}
!654 = metadata !{i64 640}
!655 = metadata !{i64 641}
!656 = metadata !{i64 642}
!657 = metadata !{i64 643}
!658 = metadata !{i64 644}
!659 = metadata !{i64 645}
!660 = metadata !{i64 646}
!661 = metadata !{i64 647}
!662 = metadata !{i64 648}
!663 = metadata !{i64 649}
!664 = metadata !{i64 650}
!665 = metadata !{i64 651}
!666 = metadata !{i64 652}
!667 = metadata !{i64 653}
!668 = metadata !{i64 654}
!669 = metadata !{i64 655}
!670 = metadata !{i64 656}
!671 = metadata !{i64 657}
!672 = metadata !{i64 658}
!673 = metadata !{i64 659}
!674 = metadata !{i64 660}
!675 = metadata !{i64 661}
!676 = metadata !{i64 662}
!677 = metadata !{i64 663}
!678 = metadata !{i64 664}
!679 = metadata !{i64 665}
!680 = metadata !{i64 666}
!681 = metadata !{i64 667}
!682 = metadata !{i64 668}
!683 = metadata !{i64 669}
!684 = metadata !{i64 670}
!685 = metadata !{i64 671}
!686 = metadata !{i64 672}
!687 = metadata !{i64 673}
!688 = metadata !{i64 674}
!689 = metadata !{i64 675}
!690 = metadata !{i64 676}
!691 = metadata !{i64 677}
!692 = metadata !{i64 678}
!693 = metadata !{i64 679}
!694 = metadata !{i64 680}
!695 = metadata !{i64 681}
!696 = metadata !{i64 682}
!697 = metadata !{i64 683}
!698 = metadata !{i64 684}
!699 = metadata !{i64 685}
!700 = metadata !{i64 686}
!701 = metadata !{i64 687}
!702 = metadata !{i64 688}
!703 = metadata !{i64 689}
!704 = metadata !{i64 690}
!705 = metadata !{i64 691}
!706 = metadata !{i64 692}
!707 = metadata !{i64 693}
!708 = metadata !{i64 694}
!709 = metadata !{i64 695}
!710 = metadata !{i64 696}
!711 = metadata !{i64 697}
!712 = metadata !{i64 698}
!713 = metadata !{i64 699}
!714 = metadata !{i64 700}
!715 = metadata !{i64 701}
!716 = metadata !{i64 702}
!717 = metadata !{i64 703}
!718 = metadata !{i64 704}
!719 = metadata !{i64 705}
!720 = metadata !{i64 706}
!721 = metadata !{i64 707}
!722 = metadata !{i64 708}
!723 = metadata !{i64 709}
!724 = metadata !{i64 710}
!725 = metadata !{i64 711}
!726 = metadata !{i64 712}
!727 = metadata !{i64 713}
!728 = metadata !{i64 714}
!729 = metadata !{i64 715}
!730 = metadata !{i64 716}
!731 = metadata !{i64 717}
!732 = metadata !{i64 718}
!733 = metadata !{i64 719}
!734 = metadata !{i64 720}
!735 = metadata !{i64 721}
!736 = metadata !{i64 722}
!737 = metadata !{i64 723}
!738 = metadata !{i64 724}
!739 = metadata !{i64 725}
!740 = metadata !{i64 726}
!741 = metadata !{i64 727}
!742 = metadata !{i64 728}
!743 = metadata !{i64 729}
!744 = metadata !{i64 730}
!745 = metadata !{i64 731}
!746 = metadata !{i64 732}
!747 = metadata !{i64 733}
!748 = metadata !{i64 734}
!749 = metadata !{i64 735}
!750 = metadata !{i64 736}
!751 = metadata !{i64 737}
!752 = metadata !{i64 738}
!753 = metadata !{i64 739}
!754 = metadata !{i64 740}
!755 = metadata !{i64 741}
!756 = metadata !{i64 742}
!757 = metadata !{i64 743}
!758 = metadata !{i64 744}
!759 = metadata !{i64 745}
!760 = metadata !{i64 746}
!761 = metadata !{i64 747}
!762 = metadata !{i64 748}
!763 = metadata !{i64 749}
!764 = metadata !{i64 750}
!765 = metadata !{i64 751}
!766 = metadata !{i64 752}
!767 = metadata !{i64 753}
!768 = metadata !{i64 754}
!769 = metadata !{i64 755}
!770 = metadata !{i64 756}
!771 = metadata !{i64 757}
!772 = metadata !{i64 758}
!773 = metadata !{i64 759}
!774 = metadata !{i64 760}
!775 = metadata !{i64 761}
!776 = metadata !{i64 762}
!777 = metadata !{i64 763}
!778 = metadata !{i64 764}
!779 = metadata !{i64 765}
!780 = metadata !{i64 766}
!781 = metadata !{i64 767}
!782 = metadata !{i64 768}
!783 = metadata !{i64 769}
!784 = metadata !{i64 770}
!785 = metadata !{i64 771}
!786 = metadata !{i64 772}
!787 = metadata !{i64 773}
!788 = metadata !{i64 774}
!789 = metadata !{i64 775}
!790 = metadata !{i64 776}
!791 = metadata !{i64 777}
!792 = metadata !{i64 778}
!793 = metadata !{i64 779}
!794 = metadata !{i64 780}
!795 = metadata !{i64 781}
!796 = metadata !{i64 782}
!797 = metadata !{i64 783}
!798 = metadata !{i64 784}
!799 = metadata !{i64 785}
!800 = metadata !{i64 786}
!801 = metadata !{i64 787}
!802 = metadata !{i64 788}
!803 = metadata !{i64 789}
!804 = metadata !{i64 790}
!805 = metadata !{i64 791}
!806 = metadata !{i64 792}
!807 = metadata !{i64 793}
!808 = metadata !{i64 794}
!809 = metadata !{i64 795}
!810 = metadata !{i64 796}
!811 = metadata !{i64 797}
!812 = metadata !{i64 798}
!813 = metadata !{i64 799}
!814 = metadata !{i64 800}
!815 = metadata !{i64 801}
!816 = metadata !{i64 802}
!817 = metadata !{i64 803}
!818 = metadata !{i64 804}
!819 = metadata !{i64 805}
!820 = metadata !{i64 806}
!821 = metadata !{i64 807}
!822 = metadata !{i64 808}
!823 = metadata !{i64 809}
!824 = metadata !{i64 810}
!825 = metadata !{i64 811}
!826 = metadata !{i64 812}
!827 = metadata !{i64 813}
!828 = metadata !{i64 814}
!829 = metadata !{i64 815}
!830 = metadata !{i64 816}
!831 = metadata !{i64 817}
!832 = metadata !{i64 818}
!833 = metadata !{i64 819}
!834 = metadata !{i64 820}
!835 = metadata !{i64 821}
!836 = metadata !{i64 822}
!837 = metadata !{i64 823}
!838 = metadata !{i64 824}
!839 = metadata !{i64 825}
!840 = metadata !{i64 826}
!841 = metadata !{i64 827}
!842 = metadata !{i64 828}
!843 = metadata !{i64 829}
!844 = metadata !{i64 830}
!845 = metadata !{i64 831}
!846 = metadata !{i64 832}
!847 = metadata !{i64 833}
!848 = metadata !{i64 834}
!849 = metadata !{i64 835}
!850 = metadata !{i64 836}
!851 = metadata !{i64 837}
!852 = metadata !{i64 838}
!853 = metadata !{i64 839}
!854 = metadata !{i64 840}
!855 = metadata !{i64 841}
!856 = metadata !{i64 842}
!857 = metadata !{i64 843}
!858 = metadata !{i64 844}
!859 = metadata !{i64 845}
!860 = metadata !{i64 846}
!861 = metadata !{i64 847}
!862 = metadata !{i64 848}
!863 = metadata !{i64 849}
!864 = metadata !{i64 850}
!865 = metadata !{i64 851}
!866 = metadata !{i64 852}
!867 = metadata !{i64 853}
!868 = metadata !{i64 854}
!869 = metadata !{i64 855}
!870 = metadata !{i64 856}
!871 = metadata !{i64 857}
!872 = metadata !{i64 858}
!873 = metadata !{i64 859}
!874 = metadata !{i64 860}
!875 = metadata !{i64 861}
!876 = metadata !{i64 862}
!877 = metadata !{i64 863}
!878 = metadata !{i64 864}
!879 = metadata !{i64 865}
!880 = metadata !{i64 0, i64 4, metadata !66, i64 4, i64 4, metadata !66, i64 8, i64 4, metadata !66}
!881 = metadata !{i64 866}
!882 = metadata !{i64 867}
!883 = metadata !{i64 868}
!884 = metadata !{i64 869}
!885 = metadata !{i64 870}
!886 = metadata !{i64 871}
!887 = metadata !{i64 872}
!888 = metadata !{i64 873}
!889 = metadata !{i64 874}
!890 = metadata !{i64 875}
!891 = metadata !{i64 876}
!892 = metadata !{i64 877}
!893 = metadata !{i64 878}
!894 = metadata !{i64 879}
!895 = metadata !{i64 880}
!896 = metadata !{i64 881}
!897 = metadata !{i64 882}
!898 = metadata !{i64 883}
!899 = metadata !{i64 884}
!900 = metadata !{i64 885}
!901 = metadata !{i64 886}
!902 = metadata !{i64 887}
!903 = metadata !{i64 888}
!904 = metadata !{i64 889}
!905 = metadata !{i64 890}
!906 = metadata !{i64 891}
!907 = metadata !{i64 892}
!908 = metadata !{i64 893}
!909 = metadata !{i64 894}
!910 = metadata !{i64 895}
!911 = metadata !{i64 896}
!912 = metadata !{i64 897}
!913 = metadata !{i64 898}
!914 = metadata !{i64 899}
!915 = metadata !{i64 900}
!916 = metadata !{i64 901}
!917 = metadata !{i64 902}
!918 = metadata !{i64 903}
!919 = metadata !{i64 904}
!920 = metadata !{i64 905}
!921 = metadata !{i64 906}
!922 = metadata !{i64 907}
!923 = metadata !{i64 908}
!924 = metadata !{i64 909}
!925 = metadata !{i64 910}
!926 = metadata !{i64 911}
!927 = metadata !{i64 912}
!928 = metadata !{i64 913}
!929 = metadata !{i64 914}
!930 = metadata !{i64 915}
!931 = metadata !{i64 916}
!932 = metadata !{i64 917}
!933 = metadata !{i64 918}
!934 = metadata !{i64 919}
!935 = metadata !{i64 920}
!936 = metadata !{i64 921}
!937 = metadata !{i64 922}
!938 = metadata !{i64 923}
!939 = metadata !{i64 924}
!940 = metadata !{i64 925}
!941 = metadata !{i64 926}
!942 = metadata !{i64 927}
!943 = metadata !{i64 928}
!944 = metadata !{i64 929}
!945 = metadata !{i64 930}
!946 = metadata !{i64 931}
!947 = metadata !{i64 932}
!948 = metadata !{i64 933}
!949 = metadata !{i64 934}
!950 = metadata !{i64 935}
!951 = metadata !{i64 936}
!952 = metadata !{i64 937}
!953 = metadata !{i64 938}
!954 = metadata !{i64 939}
!955 = metadata !{i64 940}
!956 = metadata !{i64 941}
!957 = metadata !{i64 942}
!958 = metadata !{i64 943}
!959 = metadata !{i64 944}
!960 = metadata !{i64 945}
!961 = metadata !{i64 946}
!962 = metadata !{i64 947}
!963 = metadata !{i64 948}
!964 = metadata !{i64 949}
!965 = metadata !{i64 950}
!966 = metadata !{i64 951}
!967 = metadata !{i64 952}
!968 = metadata !{i64 953}
!969 = metadata !{i64 954}
!970 = metadata !{i64 955}
!971 = metadata !{i64 956}
!972 = metadata !{i64 957}
!973 = metadata !{i64 958}
!974 = metadata !{i64 959}
!975 = metadata !{i64 960}
!976 = metadata !{i64 961}
!977 = metadata !{i64 962}
!978 = metadata !{i64 963}
!979 = metadata !{i64 964}
!980 = metadata !{i64 965}
!981 = metadata !{i64 966}
!982 = metadata !{i64 967}
!983 = metadata !{i64 968}
!984 = metadata !{i64 969}
!985 = metadata !{i64 970}
!986 = metadata !{i64 971}
!987 = metadata !{i64 972}
!988 = metadata !{i64 973}
!989 = metadata !{i64 974}
!990 = metadata !{i64 975}
!991 = metadata !{i64 976}
!992 = metadata !{i64 977}
!993 = metadata !{i64 978}
!994 = metadata !{i64 979}
!995 = metadata !{i64 980}
!996 = metadata !{i64 981}
!997 = metadata !{i64 982}
!998 = metadata !{i64 983}
!999 = metadata !{i64 984}
!1000 = metadata !{i64 985}
!1001 = metadata !{i64 986}
!1002 = metadata !{i64 987}
!1003 = metadata !{i64 988}
!1004 = metadata !{i64 989}
!1005 = metadata !{i64 990}
!1006 = metadata !{i64 991}
!1007 = metadata !{i64 992}
!1008 = metadata !{i64 993}
!1009 = metadata !{i64 994}
!1010 = metadata !{i64 995}
!1011 = metadata !{i64 996}
!1012 = metadata !{i64 997}
!1013 = metadata !{i64 998}
!1014 = metadata !{i64 999}
!1015 = metadata !{i64 1000}
!1016 = metadata !{i64 1001}
!1017 = metadata !{i64 1002}
!1018 = metadata !{i64 1003}
!1019 = metadata !{i64 1004}
!1020 = metadata !{i64 1005}
!1021 = metadata !{i64 1006}
!1022 = metadata !{i64 1007}
!1023 = metadata !{i64 1008}
!1024 = metadata !{i64 1009}
!1025 = metadata !{i64 1010}
!1026 = metadata !{i64 1011}
!1027 = metadata !{i64 1012}
!1028 = metadata !{i64 1013}
!1029 = metadata !{i64 1014}
!1030 = metadata !{i64 1015}
!1031 = metadata !{i64 1016}
!1032 = metadata !{i64 1017}
!1033 = metadata !{i64 1018}
!1034 = metadata !{i64 1019}
!1035 = metadata !{i64 1020}
!1036 = metadata !{i64 1021}
!1037 = metadata !{i64 1022}
!1038 = metadata !{i64 1023}
!1039 = metadata !{i64 1024}
!1040 = metadata !{i64 1025}
!1041 = metadata !{i64 1026}
!1042 = metadata !{i64 1027}
!1043 = metadata !{i64 1028}
!1044 = metadata !{i64 1029}
!1045 = metadata !{i64 1030}
!1046 = metadata !{i64 1031}
!1047 = metadata !{i64 1032}
!1048 = metadata !{i64 1033}
!1049 = metadata !{i64 1034}
!1050 = metadata !{i64 1035}
!1051 = metadata !{i64 1036}
!1052 = metadata !{i64 1037}
!1053 = metadata !{i64 1038}
!1054 = metadata !{i64 1039}
!1055 = metadata !{i64 1040}
!1056 = metadata !{i64 1041}
!1057 = metadata !{i64 1042}
!1058 = metadata !{i64 1043}
!1059 = metadata !{i64 1044}
!1060 = metadata !{i64 1045}
!1061 = metadata !{i64 1046}
!1062 = metadata !{i64 1047}
!1063 = metadata !{i64 1048}
!1064 = metadata !{i64 1049}
!1065 = metadata !{i64 1050}
!1066 = metadata !{i64 1051}
!1067 = metadata !{i64 1052}
!1068 = metadata !{i64 1053}
!1069 = metadata !{i64 1054}
!1070 = metadata !{i64 1055}
!1071 = metadata !{i64 1056}
!1072 = metadata !{i64 1057}
!1073 = metadata !{i64 1058}
!1074 = metadata !{i64 1059}
!1075 = metadata !{i64 1060}
!1076 = metadata !{i64 1061}
!1077 = metadata !{i64 1062}
!1078 = metadata !{i64 1063}
!1079 = metadata !{i64 1064}
!1080 = metadata !{i64 1065}
!1081 = metadata !{i64 1066}
!1082 = metadata !{i64 1067}
!1083 = metadata !{i64 1068}
!1084 = metadata !{i64 1069}
!1085 = metadata !{i64 1070}
!1086 = metadata !{i64 1071}
!1087 = metadata !{i64 1072}
!1088 = metadata !{i64 1073}
!1089 = metadata !{i64 1074}
!1090 = metadata !{i64 1075}
!1091 = metadata !{i64 1076}
!1092 = metadata !{i64 1077}
!1093 = metadata !{i64 1078}
!1094 = metadata !{i64 1079}
!1095 = metadata !{i64 1080}
!1096 = metadata !{i64 1081}
!1097 = metadata !{i64 1082}
!1098 = metadata !{i64 1083}
!1099 = metadata !{i64 1084}
!1100 = metadata !{i64 1085}
!1101 = metadata !{i64 1086}
!1102 = metadata !{i64 1087}
!1103 = metadata !{i64 1088}
!1104 = metadata !{i64 1089}
!1105 = metadata !{i64 1090}
!1106 = metadata !{i64 1091}
!1107 = metadata !{i64 1092}
!1108 = metadata !{i64 1093}
!1109 = metadata !{i64 1094}
!1110 = metadata !{i64 1095}
!1111 = metadata !{i64 1096}
!1112 = metadata !{i64 1097}
!1113 = metadata !{i64 1098}
!1114 = metadata !{i64 1099}
!1115 = metadata !{i64 1100}
!1116 = metadata !{i64 1101}
!1117 = metadata !{i64 1102}
!1118 = metadata !{i64 1103}
!1119 = metadata !{i64 1104}
!1120 = metadata !{i64 1105}
!1121 = metadata !{i64 1106}
!1122 = metadata !{i64 1107}
!1123 = metadata !{i64 1108}
!1124 = metadata !{i64 1109}
!1125 = metadata !{i64 1110}
!1126 = metadata !{i64 1111}
!1127 = metadata !{i64 1112}
!1128 = metadata !{i64 1113}
!1129 = metadata !{i64 1114}
!1130 = metadata !{i64 1115}
!1131 = metadata !{i64 1116}
!1132 = metadata !{i64 1117}
!1133 = metadata !{i64 1118}
!1134 = metadata !{i64 1119}
!1135 = metadata !{i64 1120}
!1136 = metadata !{i64 1121}
!1137 = metadata !{i64 1122}
!1138 = metadata !{i64 1123}
!1139 = metadata !{i64 1124}
!1140 = metadata !{i64 1125}
!1141 = metadata !{i64 1126}
!1142 = metadata !{i64 1127}
!1143 = metadata !{i64 1128}
!1144 = metadata !{i64 1129}
!1145 = metadata !{i64 1130}
!1146 = metadata !{i64 1131}
!1147 = metadata !{i64 1132}
!1148 = metadata !{i64 1133}
!1149 = metadata !{i64 1134}
!1150 = metadata !{i64 1135}
!1151 = metadata !{i64 1136}
!1152 = metadata !{i64 1137}
!1153 = metadata !{i64 1138}
!1154 = metadata !{i64 1139}
!1155 = metadata !{i64 1140}
!1156 = metadata !{i64 1141}
!1157 = metadata !{i64 1142}
!1158 = metadata !{i64 1143}
!1159 = metadata !{i64 1144}
!1160 = metadata !{i64 1145}
!1161 = metadata !{i64 1146}
!1162 = metadata !{i64 1147}
!1163 = metadata !{i64 1148}
!1164 = metadata !{i64 1149}
!1165 = metadata !{i64 1150}
!1166 = metadata !{i64 1151}
!1167 = metadata !{i64 1152}
!1168 = metadata !{i64 1153}
!1169 = metadata !{i64 1154}
!1170 = metadata !{i64 1155}
!1171 = metadata !{i64 1156}
!1172 = metadata !{i64 1157}
!1173 = metadata !{i64 1158}
!1174 = metadata !{i64 1159}
!1175 = metadata !{i64 1160}
!1176 = metadata !{i64 1161}
!1177 = metadata !{i64 1162}
!1178 = metadata !{i64 1163}
!1179 = metadata !{i64 1164}
!1180 = metadata !{i64 1165}
!1181 = metadata !{i64 1166}
!1182 = metadata !{i64 1167}
!1183 = metadata !{i64 1168}
!1184 = metadata !{i64 1169}
!1185 = metadata !{i64 1170}
!1186 = metadata !{i64 1171}
!1187 = metadata !{i64 1172}
!1188 = metadata !{i64 1173}
!1189 = metadata !{i64 1174}
!1190 = metadata !{i64 1175}
!1191 = metadata !{i64 1176}
!1192 = metadata !{i64 1177}
!1193 = metadata !{i64 1178}
!1194 = metadata !{i64 1179}
!1195 = metadata !{i64 1180}
!1196 = metadata !{i64 1181}
!1197 = metadata !{i64 1182}
!1198 = metadata !{i64 1183}
!1199 = metadata !{i64 1184}
!1200 = metadata !{i64 1185}
!1201 = metadata !{i64 1186}
!1202 = metadata !{i64 1187}
!1203 = metadata !{i64 1188}
!1204 = metadata !{i64 1189}
!1205 = metadata !{i64 1190}
!1206 = metadata !{i64 1191}
!1207 = metadata !{i64 1192}
!1208 = metadata !{i64 1193}
!1209 = metadata !{i64 1194}
!1210 = metadata !{i64 1195}
!1211 = metadata !{i64 1196}
!1212 = metadata !{i64 1197}
!1213 = metadata !{i64 1198}
!1214 = metadata !{i64 1199}
!1215 = metadata !{i64 1200}
!1216 = metadata !{i64 1201}
!1217 = metadata !{i64 1202}
!1218 = metadata !{i64 1203}
!1219 = metadata !{i64 1204}
!1220 = metadata !{i64 1205}
!1221 = metadata !{i64 1206}
!1222 = metadata !{i64 1207}
!1223 = metadata !{i64 1208}
!1224 = metadata !{i64 1209}
!1225 = metadata !{i64 1210}
!1226 = metadata !{i64 1211}
!1227 = metadata !{i64 1212}
!1228 = metadata !{i64 1213}
!1229 = metadata !{i64 1214}
!1230 = metadata !{i64 1215}
!1231 = metadata !{i64 1216}
!1232 = metadata !{i64 1217}
!1233 = metadata !{i64 1218}
!1234 = metadata !{i64 1219}
!1235 = metadata !{i64 1220}
!1236 = metadata !{i64 1221}
!1237 = metadata !{i64 1222}
!1238 = metadata !{i64 1223}
!1239 = metadata !{i64 1224}
!1240 = metadata !{i64 1225}
!1241 = metadata !{i64 1226}
!1242 = metadata !{i64 1227}
!1243 = metadata !{i64 1228}
!1244 = metadata !{i64 1229}
!1245 = metadata !{i64 1230}
!1246 = metadata !{i64 1231}
!1247 = metadata !{i64 1232}
!1248 = metadata !{i64 1233}
!1249 = metadata !{i64 1234}
!1250 = metadata !{i64 1235}
!1251 = metadata !{i64 1236}
!1252 = metadata !{i64 1237}
!1253 = metadata !{i64 1238}
!1254 = metadata !{i64 1239}
!1255 = metadata !{i64 1240}
!1256 = metadata !{i64 1241}
!1257 = metadata !{i64 1242}
!1258 = metadata !{i64 1243}
!1259 = metadata !{i64 1244}
!1260 = metadata !{i64 1245}
!1261 = metadata !{i64 1246}
!1262 = metadata !{i64 1247}
!1263 = metadata !{i64 1248}
!1264 = metadata !{i64 1249}
!1265 = metadata !{i64 1250}
!1266 = metadata !{i64 1251}
!1267 = metadata !{i64 1252}
!1268 = metadata !{i64 1253}
!1269 = metadata !{i64 1254}
!1270 = metadata !{i64 1255}
!1271 = metadata !{i64 1256}
!1272 = metadata !{i64 1257}
!1273 = metadata !{i64 1258}
!1274 = metadata !{i64 1259}
!1275 = metadata !{i64 1260}
!1276 = metadata !{i64 1261}
!1277 = metadata !{i64 1262}
!1278 = metadata !{i64 1263}
!1279 = metadata !{i64 1264}
!1280 = metadata !{i64 1265}
!1281 = metadata !{i64 1266}
!1282 = metadata !{i64 1267}
!1283 = metadata !{i64 1268}
!1284 = metadata !{i64 1269}
!1285 = metadata !{i64 1270}
!1286 = metadata !{i64 1271}
!1287 = metadata !{i64 1272}
!1288 = metadata !{i64 1273}
!1289 = metadata !{i64 1274}
!1290 = metadata !{i64 1275}
!1291 = metadata !{i64 1276}
!1292 = metadata !{i64 1277}
!1293 = metadata !{i64 1278}
!1294 = metadata !{i64 1279}
!1295 = metadata !{i64 1280}
!1296 = metadata !{i64 1281}
!1297 = metadata !{i64 1282}
!1298 = metadata !{i64 1283}
!1299 = metadata !{i64 1284}
!1300 = metadata !{i64 1285}
!1301 = metadata !{i64 1286}
!1302 = metadata !{i64 1287}
!1303 = metadata !{i64 1288}
!1304 = metadata !{i64 1289}
!1305 = metadata !{i64 1290}
!1306 = metadata !{i64 1291}
!1307 = metadata !{i64 1292}
!1308 = metadata !{i64 1293}
!1309 = metadata !{i64 1294}
!1310 = metadata !{i64 1295}
!1311 = metadata !{i64 1296}
!1312 = metadata !{i64 1297}
!1313 = metadata !{i64 1298}
!1314 = metadata !{i64 1299}
!1315 = metadata !{i64 1300}
!1316 = metadata !{i64 1301}
!1317 = metadata !{i64 1302}
!1318 = metadata !{i64 1303}
!1319 = metadata !{i64 1304}
!1320 = metadata !{i64 1305}
!1321 = metadata !{i64 1306}
!1322 = metadata !{i64 1307}
!1323 = metadata !{i64 1308}
!1324 = metadata !{i64 1309}
!1325 = metadata !{i64 1310}
!1326 = metadata !{i64 1311}
!1327 = metadata !{i64 1312}
!1328 = metadata !{i64 1313}
!1329 = metadata !{i64 1314}
!1330 = metadata !{i64 1315}
!1331 = metadata !{i64 1316}
!1332 = metadata !{i64 1317}
!1333 = metadata !{i64 1318}
!1334 = metadata !{i64 1319}
!1335 = metadata !{i64 1320}
!1336 = metadata !{i64 1321}
!1337 = metadata !{i64 1322}
!1338 = metadata !{i64 1323}
!1339 = metadata !{i64 1324}
!1340 = metadata !{i64 1325}
!1341 = metadata !{i64 1326}
!1342 = metadata !{i64 1327}
!1343 = metadata !{i64 1328}
!1344 = metadata !{i64 1329}
!1345 = metadata !{i64 1330}
!1346 = metadata !{i64 1331}
!1347 = metadata !{i64 1332}
!1348 = metadata !{i64 1333}
!1349 = metadata !{i64 1334}
!1350 = metadata !{i64 1335}
!1351 = metadata !{i64 1336}
!1352 = metadata !{i64 1337}
!1353 = metadata !{i64 1338}
!1354 = metadata !{i64 1339}
!1355 = metadata !{i64 1340}
!1356 = metadata !{i64 1341}
!1357 = metadata !{i64 1342}
!1358 = metadata !{i64 1343}
!1359 = metadata !{i64 1344}
!1360 = metadata !{i64 1345}
!1361 = metadata !{i64 1346}
!1362 = metadata !{i64 1347}
!1363 = metadata !{i64 1348}
!1364 = metadata !{i64 1349}
!1365 = metadata !{i64 1350}
!1366 = metadata !{i64 1351}
!1367 = metadata !{i64 1352}
!1368 = metadata !{i64 1353}
!1369 = metadata !{i64 1354}
!1370 = metadata !{i64 1355}
!1371 = metadata !{i64 1356}
!1372 = metadata !{i64 1357}
!1373 = metadata !{i64 1358}
!1374 = metadata !{i64 1359}
!1375 = metadata !{i64 1360}
!1376 = metadata !{i64 1361}
!1377 = metadata !{i64 1362}
!1378 = metadata !{i64 1363}
!1379 = metadata !{i64 1364}
!1380 = metadata !{i64 1365}
!1381 = metadata !{i64 1366}
!1382 = metadata !{i64 1367}
!1383 = metadata !{i64 1368}
!1384 = metadata !{i64 1369}
!1385 = metadata !{i64 1370}
!1386 = metadata !{i64 1371}
!1387 = metadata !{i64 1372}
!1388 = metadata !{i64 1373}
!1389 = metadata !{i64 1374}
!1390 = metadata !{i64 1375}
!1391 = metadata !{i64 1376}
!1392 = metadata !{i64 1377}
!1393 = metadata !{i64 1378}
!1394 = metadata !{i64 1379}
!1395 = metadata !{i64 1380}
!1396 = metadata !{i64 1381}
!1397 = metadata !{i64 1382}
!1398 = metadata !{i64 1383}
!1399 = metadata !{i64 1384}
!1400 = metadata !{i64 1385}
!1401 = metadata !{i64 1386}
!1402 = metadata !{i64 1387}
!1403 = metadata !{i64 1388}
!1404 = metadata !{i64 1389}
!1405 = metadata !{i64 1390}
!1406 = metadata !{i64 1391}
!1407 = metadata !{i64 1392}
!1408 = metadata !{i64 1393}
!1409 = metadata !{i64 1394}
!1410 = metadata !{i64 1395}
!1411 = metadata !{i64 1396}
!1412 = metadata !{i64 1397}
!1413 = metadata !{i64 1398}
!1414 = metadata !{i64 1399}
!1415 = metadata !{i64 1400}
!1416 = metadata !{i64 1401}
!1417 = metadata !{i64 1402}
!1418 = metadata !{i64 1403}
!1419 = metadata !{i64 1404}
!1420 = metadata !{i64 1405}
!1421 = metadata !{i64 1406}
!1422 = metadata !{i64 1407}
!1423 = metadata !{i64 1408}
!1424 = metadata !{i64 1409}
!1425 = metadata !{i64 1410}
!1426 = metadata !{i64 1411}
!1427 = metadata !{i64 1412}
!1428 = metadata !{i64 1413}
!1429 = metadata !{i64 1414}
!1430 = metadata !{i64 1415}
!1431 = metadata !{i64 1416}
!1432 = metadata !{i64 1417}
!1433 = metadata !{i64 1418}
!1434 = metadata !{i64 1419}
!1435 = metadata !{i64 1420}
!1436 = metadata !{i64 1421}
!1437 = metadata !{i64 1422}
!1438 = metadata !{i64 1423}
!1439 = metadata !{i64 1424}
!1440 = metadata !{i64 1425}
!1441 = metadata !{i64 1426}
!1442 = metadata !{i64 1427}
!1443 = metadata !{i64 1428}
!1444 = metadata !{i64 1429}
!1445 = metadata !{i64 1430}
!1446 = metadata !{i64 1431}
!1447 = metadata !{i64 1432}
!1448 = metadata !{i64 1433}
!1449 = metadata !{i64 1434}
!1450 = metadata !{i64 1435}
!1451 = metadata !{i64 1436}
!1452 = metadata !{i64 1437}
!1453 = metadata !{i64 1438}
!1454 = metadata !{i64 1439}
!1455 = metadata !{i64 1440}
!1456 = metadata !{i64 1441}
!1457 = metadata !{i64 1442}
!1458 = metadata !{i64 1443}
!1459 = metadata !{i64 1444}
!1460 = metadata !{i64 1445}
!1461 = metadata !{i64 1446}
!1462 = metadata !{i64 1447}
!1463 = metadata !{i64 1448}
!1464 = metadata !{i64 1449}
!1465 = metadata !{i64 1450}
!1466 = metadata !{i64 1451}
!1467 = metadata !{i64 1452}
!1468 = metadata !{i64 1453}
!1469 = metadata !{i64 1454}
!1470 = metadata !{i64 1455}
!1471 = metadata !{i64 1456}
!1472 = metadata !{i64 1457}
!1473 = metadata !{i64 1458}
!1474 = metadata !{i64 1459}
!1475 = metadata !{i64 1460}
!1476 = metadata !{i64 1461}
!1477 = metadata !{i64 1462}
!1478 = metadata !{i64 1463}
!1479 = metadata !{i64 1464}
!1480 = metadata !{i64 1465}
!1481 = metadata !{i64 1466}
!1482 = metadata !{i64 1467}
!1483 = metadata !{i64 1468}
!1484 = metadata !{i64 1469}
!1485 = metadata !{i64 1470}
!1486 = metadata !{i64 1471}
!1487 = metadata !{i64 1472}
!1488 = metadata !{i64 1473}
!1489 = metadata !{i64 1474}
!1490 = metadata !{i64 1475}
!1491 = metadata !{i64 1476}
!1492 = metadata !{i64 1477}
!1493 = metadata !{i64 1478}
!1494 = metadata !{i64 1479}
!1495 = metadata !{i64 1480}
!1496 = metadata !{i64 1481}
!1497 = metadata !{i64 1482}
!1498 = metadata !{i64 1483}
!1499 = metadata !{i64 1484}
!1500 = metadata !{i64 1485}
!1501 = metadata !{i64 1486}
!1502 = metadata !{i64 1487}
!1503 = metadata !{i64 1488}
!1504 = metadata !{i64 1489}
!1505 = metadata !{i64 1490}
!1506 = metadata !{i64 1491}
!1507 = metadata !{i64 1492}
!1508 = metadata !{i64 1493}
!1509 = metadata !{i64 1494}
!1510 = metadata !{i64 1495}
!1511 = metadata !{i64 1496}
!1512 = metadata !{i64 1497}
!1513 = metadata !{i64 1498}
!1514 = metadata !{i64 1499}
!1515 = metadata !{i64 1500}
!1516 = metadata !{i64 1501}
!1517 = metadata !{i64 1502}
!1518 = metadata !{i64 1503}
!1519 = metadata !{i64 1504}
!1520 = metadata !{i64 1505}
!1521 = metadata !{i64 1506}
!1522 = metadata !{i64 1507}
!1523 = metadata !{i64 1508}
!1524 = metadata !{i64 1509}
!1525 = metadata !{i64 1510}
!1526 = metadata !{i64 1511}
!1527 = metadata !{i64 1512}
!1528 = metadata !{i64 1513}
!1529 = metadata !{i64 1514}
!1530 = metadata !{i64 1515}
!1531 = metadata !{i64 1516}
!1532 = metadata !{i64 1517}
!1533 = metadata !{i64 1518}
!1534 = metadata !{i64 1519}
!1535 = metadata !{i64 1520}
!1536 = metadata !{i64 1521}
!1537 = metadata !{i64 1522}
!1538 = metadata !{i64 1523}
!1539 = metadata !{i64 1524}
!1540 = metadata !{i64 1525}
!1541 = metadata !{i64 1526}
!1542 = metadata !{i64 1527}
!1543 = metadata !{i64 1528}
!1544 = metadata !{i64 1529}
!1545 = metadata !{i64 1530}
!1546 = metadata !{i64 1531}
!1547 = metadata !{i64 1532}
!1548 = metadata !{i64 1533}
!1549 = metadata !{i64 1534}
!1550 = metadata !{i64 1535}
!1551 = metadata !{i64 1536}
!1552 = metadata !{i64 1537}
!1553 = metadata !{i64 1538}
!1554 = metadata !{i64 1539}
!1555 = metadata !{i64 1540}
!1556 = metadata !{i64 1541}
!1557 = metadata !{i64 1542}
!1558 = metadata !{i64 1543}
!1559 = metadata !{i64 1544}
!1560 = metadata !{i64 1545}
!1561 = metadata !{i64 1546}
!1562 = metadata !{i64 1547}
!1563 = metadata !{i64 1548}
!1564 = metadata !{i64 1549}
!1565 = metadata !{i64 1550}
!1566 = metadata !{i64 1551}
!1567 = metadata !{i64 1552}
!1568 = metadata !{i64 1553}
!1569 = metadata !{i64 1554}
!1570 = metadata !{i64 1555}
!1571 = metadata !{i64 1556}
!1572 = metadata !{i64 1557}
!1573 = metadata !{i64 1558}
!1574 = metadata !{i64 1559}
!1575 = metadata !{i64 1560}
!1576 = metadata !{i64 1561}
!1577 = metadata !{i64 1562}
!1578 = metadata !{i64 1563}
!1579 = metadata !{i64 1564}
!1580 = metadata !{i64 1565}
!1581 = metadata !{i64 1566}
!1582 = metadata !{i64 1567}
!1583 = metadata !{i64 1568}
!1584 = metadata !{i64 1569}
!1585 = metadata !{i64 1570}
!1586 = metadata !{i64 1571}
!1587 = metadata !{i64 1572}
!1588 = metadata !{i64 1573}
!1589 = metadata !{i64 1574}
!1590 = metadata !{i64 1575}
!1591 = metadata !{i64 1576}
!1592 = metadata !{i64 1577}
!1593 = metadata !{i64 1578}
!1594 = metadata !{i64 1579}
!1595 = metadata !{i64 1580}
!1596 = metadata !{i64 1581}
!1597 = metadata !{i64 1582}
!1598 = metadata !{i64 1583}
!1599 = metadata !{i64 1584}
!1600 = metadata !{i64 1585}
!1601 = metadata !{i64 1586}
!1602 = metadata !{i64 1587}
!1603 = metadata !{i64 1588}
!1604 = metadata !{i64 1589}
!1605 = metadata !{i64 1590}
!1606 = metadata !{i64 1591}
!1607 = metadata !{i64 1592}
!1608 = metadata !{i64 1593}
!1609 = metadata !{i64 1594}
!1610 = metadata !{i64 1595}
!1611 = metadata !{i64 1596}
!1612 = metadata !{i64 1597}
!1613 = metadata !{metadata !1614, metadata !168, i64 216}
!1614 = metadata !{metadata !"_ZTSSt9basic_iosIcSt11char_traitsIcEE", metadata !168, i64 216, metadata !11, i64 224, metadata !1615, i64 225, metadata !168, i64 232, metadata !168, i64 240, metadata !168, i64 248, metadata !168, i64 256}
!1615 = metadata !{metadata !"bool", metadata !11, i64 0}
!1616 = metadata !{i64 1598}
!1617 = metadata !{i64 1599}
!1618 = metadata !{metadata !1614, metadata !11, i64 224}
!1619 = metadata !{i64 1600}
!1620 = metadata !{i64 1601}
!1621 = metadata !{metadata !1614, metadata !1615, i64 225}
!1622 = metadata !{i64 1602}
!1623 = metadata !{i64 1603}
!1624 = metadata !{i64 1604}
!1625 = metadata !{i64 1605}
!1626 = metadata !{i64 1606}
!1627 = metadata !{i64 1607}
!1628 = metadata !{i64 1608}
!1629 = metadata !{i64 1609}
!1630 = metadata !{i64 1610}
!1631 = metadata !{i64 1611}
!1632 = metadata !{i64 1612}
!1633 = metadata !{i64 1613}
!1634 = metadata !{i64 1614}
!1635 = metadata !{i64 1615}
!1636 = metadata !{i64 1616}
!1637 = metadata !{i64 1617}
!1638 = metadata !{i64 1618}
!1639 = metadata !{i64 1619}
!1640 = metadata !{i64 1620}
!1641 = metadata !{i64 1621}
!1642 = metadata !{i64 1622}
!1643 = metadata !{i64 1623}
!1644 = metadata !{i64 1624}
!1645 = metadata !{i64 1625}
!1646 = metadata !{i64 1626}
!1647 = metadata !{i64 1627}
!1648 = metadata !{i64 1628}
!1649 = metadata !{i64 1629}
!1650 = metadata !{i64 1630}
!1651 = metadata !{i64 1631}
!1652 = metadata !{i64 1632}
!1653 = metadata !{i64 1633}
!1654 = metadata !{i64 1634}
!1655 = metadata !{i64 1635}
!1656 = metadata !{i64 1636}
!1657 = metadata !{i64 1637}
!1658 = metadata !{i64 1638}
!1659 = metadata !{i64 1639}
!1660 = metadata !{i64 1640}
!1661 = metadata !{i64 1641}
!1662 = metadata !{i64 1642}
!1663 = metadata !{i64 1643}
!1664 = metadata !{i64 1644}
!1665 = metadata !{i64 1645}
!1666 = metadata !{i64 1646}
!1667 = metadata !{i64 1647}
!1668 = metadata !{i64 1648}
!1669 = metadata !{i64 1649}
!1670 = metadata !{i64 1650}
!1671 = metadata !{i64 1651}
!1672 = metadata !{i64 1652}
!1673 = metadata !{i64 1653}
!1674 = metadata !{i64 1654}
!1675 = metadata !{i64 1655}
!1676 = metadata !{metadata !1677, metadata !1680, i64 32}
!1677 = metadata !{metadata !"_ZTSSt8ios_base", metadata !1678, i64 8, metadata !1678, i64 16, metadata !1679, i64 24, metadata !1680, i64 28, metadata !1680, i64 32, metadata !168, i64 40, metadata !1681, i64 48, metadata !11, i64 64, metadata !63, i64 192, metadata !168, i64 200, metadata !1682, i64 208}
!1678 = metadata !{metadata !"long", metadata !11, i64 0}
!1679 = metadata !{metadata !"_ZTSSt13_Ios_Fmtflags", metadata !11, i64 0}
!1680 = metadata !{metadata !"_ZTSSt12_Ios_Iostate", metadata !11, i64 0}
!1681 = metadata !{metadata !"_ZTSNSt8ios_base6_WordsE", metadata !168, i64 0, metadata !1678, i64 8}
!1682 = metadata !{metadata !"_ZTSSt6locale", metadata !168, i64 0}
!1683 = metadata !{i64 1656}
!1684 = metadata !{i64 1657}
!1685 = metadata !{i64 1658}
!1686 = metadata !{i64 1659}
!1687 = metadata !{i64 1660}
!1688 = metadata !{i64 1661}
!1689 = metadata !{i64 1662}
!1690 = metadata !{i64 1663}
!1691 = metadata !{i64 1664}
!1692 = metadata !{i64 1665}
!1693 = metadata !{i64 1666}
!1694 = metadata !{i64 1667}
!1695 = metadata !{i64 1668}
!1696 = metadata !{i64 1669}
!1697 = metadata !{i64 1670}
!1698 = metadata !{i64 1671}
!1699 = metadata !{i64 1672}
!1700 = metadata !{i64 1673}
!1701 = metadata !{i64 1674}
!1702 = metadata !{i64 1675}
!1703 = metadata !{i64 1676}
!1704 = metadata !{i64 1677}
!1705 = metadata !{i64 1678}
!1706 = metadata !{i64 1679}
!1707 = metadata !{i64 1680}
!1708 = metadata !{i64 1681}
!1709 = metadata !{i64 1682}
!1710 = metadata !{i64 1683}
!1711 = metadata !{i64 1684}
!1712 = metadata !{i64 1685}
!1713 = metadata !{i64 1686}
!1714 = metadata !{i64 1687}
!1715 = metadata !{i64 1688}
!1716 = metadata !{i64 1689}
!1717 = metadata !{i64 1690}
!1718 = metadata !{i64 1691}
!1719 = metadata !{i64 1692}
!1720 = metadata !{i64 1693}
!1721 = metadata !{i64 1694}
!1722 = metadata !{i64 1695}
!1723 = metadata !{i64 1696}
!1724 = metadata !{i64 1697}
!1725 = metadata !{i64 1698}
!1726 = metadata !{i64 1699}
!1727 = metadata !{i64 1700}
!1728 = metadata !{i64 1701}
!1729 = metadata !{i64 1702}
!1730 = metadata !{metadata !1731, metadata !1678, i64 8}
!1731 = metadata !{metadata !"_ZTSSi", metadata !1678, i64 8}
!1732 = metadata !{i64 1703}
!1733 = metadata !{i64 1704}
!1734 = metadata !{i64 1705}
!1735 = metadata !{i64 1706}
!1736 = metadata !{i64 1707}
!1737 = metadata !{i64 1708}
!1738 = metadata !{i64 1709}
!1739 = metadata !{i64 1710}
!1740 = metadata !{i64 1711}
!1741 = metadata !{i64 1712}
!1742 = metadata !{i64 1713}
!1743 = metadata !{i64 1714}
!1744 = metadata !{i64 1715}
!1745 = metadata !{i64 1716}
!1746 = metadata !{i64 1717}
!1747 = metadata !{i64 1718}
!1748 = metadata !{i64 1719}
!1749 = metadata !{i64 1720}
!1750 = metadata !{i64 1721}
!1751 = metadata !{i64 1722}
!1752 = metadata !{i64 1723}
!1753 = metadata !{i64 1724}
!1754 = metadata !{i64 1725}
!1755 = metadata !{i64 1726}
!1756 = metadata !{i64 1727}
!1757 = metadata !{i64 1728}
!1758 = metadata !{i64 1729}
!1759 = metadata !{i64 1730}
!1760 = metadata !{i64 1731}
!1761 = metadata !{i64 1732}
!1762 = metadata !{i64 1733}
!1763 = metadata !{i64 1734}
!1764 = metadata !{i64 1735}
!1765 = metadata !{i64 1736}
!1766 = metadata !{i64 1737}
!1767 = metadata !{i64 1738}
!1768 = metadata !{i64 1739}
!1769 = metadata !{i64 1740}
!1770 = metadata !{i64 1741}
!1771 = metadata !{i64 1742}
!1772 = metadata !{i64 1743}
!1773 = metadata !{i64 1744}
!1774 = metadata !{i64 1745}
!1775 = metadata !{i64 1746}
!1776 = metadata !{i64 1747}
!1777 = metadata !{metadata !1614, metadata !168, i64 240}
!1778 = metadata !{i64 1748}
!1779 = metadata !{i64 1749}
!1780 = metadata !{i64 1750}
!1781 = metadata !{i64 1751}
!1782 = metadata !{i64 1752}
!1783 = metadata !{i64 1753}
!1784 = metadata !{i64 1754}
!1785 = metadata !{i64 1755}
!1786 = metadata !{i64 1756}
!1787 = metadata !{i64 1757}
!1788 = metadata !{metadata !1789, metadata !11, i64 56}
!1789 = metadata !{metadata !"_ZTSSt5ctypeIcE", metadata !168, i64 16, metadata !1615, i64 24, metadata !168, i64 32, metadata !168, i64 40, metadata !168, i64 48, metadata !11, i64 56, metadata !11, i64 57, metadata !11, i64 313, metadata !11, i64 569}
!1790 = metadata !{i64 1758}
!1791 = metadata !{i64 1759}
!1792 = metadata !{i64 1760}
!1793 = metadata !{i64 1761}
!1794 = metadata !{i64 1762}
!1795 = metadata !{metadata !11, metadata !11, i64 0}
!1796 = metadata !{i64 1763}
!1797 = metadata !{i64 1764}
!1798 = metadata !{i64 1765}
!1799 = metadata !{i64 1766}
!1800 = metadata !{i64 1767}
!1801 = metadata !{i64 1768}
!1802 = metadata !{i64 1769}
!1803 = metadata !{i64 1770}
!1804 = metadata !{i64 1771}
!1805 = metadata !{i64 1772}
!1806 = metadata !{i64 1773}
!1807 = metadata !{i64 1774}
!1808 = metadata !{i64 1775}
!1809 = metadata !{i64 1776}
!1810 = metadata !{i64 1777}
!1811 = metadata !{i64 1778}
!1812 = metadata !{i64 1779}
!1813 = metadata !{i64 1780}
