; ModuleID = '/ubc/ece/home/kp/grads/lpalazzi/Documents/DependableSystemsLab/benchmarks/refine-hpccg/fault injection/llfi-O1/hpccg.ll'
target datalayout = "e-p:64:64:64-i1:8:8-i8:8:8-i16:16:16-i32:32:32-i64:64:64-f32:32:32-f64:64:64-v64:64:64-v128:128:128-a0:0:64-s0:64:64-f80:128:128-n8:16:32:64-S128"
target triple = "x86_64-unknown-linux-gnu"

%"class.std::ios_base::Init" = type { i8 }
%"class.std::basic_ostream" = type { i32 (...)**, %"class.std::basic_ios" }
%"class.std::basic_ios" = type { %"class.std::ios_base", %"class.std::basic_ostream"*, i8, i8, %"class.std::basic_streambuf"*, %"class.std::ctype"*, %"class.std::num_put"*, %"class.std::num_get"* }
%"class.std::ios_base" = type { i32 (...)**, i64, i64, i32, i32, i32, %"struct.std::ios_base::_Callback_list"*, %"struct.std::ios_base::_Words", [8 x %"struct.std::ios_base::_Words"], i32, %"struct.std::ios_base::_Words"*, %"class.std::locale" }
%"struct.std::ios_base::_Callback_list" = type { %"struct.std::ios_base::_Callback_list"*, void (i32, %"class.std::ios_base"*, i32)*, i32, i32 }
%"struct.std::ios_base::_Words" = type { i8*, i64 }
%"class.std::locale" = type { %"class.std::locale::_Impl"* }
%"class.std::locale::_Impl" = type { i32, %"class.std::locale::facet"**, i64, %"class.std::locale::facet"**, i8** }
%"class.std::locale::facet" = type { i32 (...)**, i32 }
%"class.std::basic_streambuf" = type { i32 (...)**, i8*, i8*, i8*, i8*, i8*, i8*, %"class.std::locale" }
%"class.std::ctype" = type { %"class.std::locale::facet", %struct.__locale_struct*, i8, i32*, i32*, i16*, i8, [256 x i8], [256 x i8], i8 }
%struct.__locale_struct = type { [13 x %struct.__locale_data*], i16*, i32*, i32*, [13 x i8*] }
%struct.__locale_data = type opaque
%"class.std::num_put" = type { %"class.std::locale::facet" }
%"class.std::num_get" = type { %"class.std::locale::facet" }
%class.YAML_Doc = type { %class.YAML_Element, %"class.std::basic_string", %"class.std::basic_string", %"class.std::basic_string", %"class.std::basic_string" }
%class.YAML_Element = type { %"class.std::basic_string", %"class.std::basic_string", %"class.std::vector" }
%"class.std::vector" = type { %"struct.std::_Vector_base" }
%"struct.std::_Vector_base" = type { %"struct.std::_Vector_base<YAML_Element *, std::allocator<YAML_Element *> >::_Vector_impl" }
%"struct.std::_Vector_base<YAML_Element *, std::allocator<YAML_Element *> >::_Vector_impl" = type { %class.YAML_Element**, %class.YAML_Element**, %class.YAML_Element** }
%"class.std::basic_string" = type { %"struct.std::basic_string<char, std::char_traits<char>, std::allocator<char> >::_Alloc_hider" }
%"struct.std::basic_string<char, std::char_traits<char>, std::allocator<char> >::_Alloc_hider" = type { i8* }
%"class.std::allocator" = type { i8 }
%struct.rusage = type { %struct.timeval, %struct.timeval, %union.anon, %union.anon.0, %union.anon.1, %union.anon.2, %union.anon.3, %union.anon.4, %union.anon.5, %union.anon.6, %union.anon.7, %union.anon.8, %union.anon.9, %union.anon.10, %union.anon.11, %union.anon.12 }
%struct.timeval = type { i64, i64 }
%union.anon = type { i64 }
%union.anon.0 = type { i64 }
%union.anon.1 = type { i64 }
%union.anon.2 = type { i64 }
%union.anon.3 = type { i64 }
%union.anon.4 = type { i64 }
%union.anon.5 = type { i64 }
%union.anon.6 = type { i64 }
%union.anon.7 = type { i64 }
%union.anon.8 = type { i64 }
%union.anon.9 = type { i64 }
%union.anon.10 = type { i64 }
%union.anon.11 = type { i64 }
%union.anon.12 = type { i64 }
%struct.HPC_Sparse_Matrix_STRUCT = type { i8*, i32, i32, i32, i64, i32, i32, i32, i32*, double**, i32**, double**, double*, i32* }
%"struct.std::basic_string<char, std::char_traits<char>, std::allocator<char> >::_Rep" = type { %"struct.std::basic_string<char, std::char_traits<char>, std::allocator<char> >::_Rep_base" }
%"struct.std::basic_string<char, std::char_traits<char>, std::allocator<char> >::_Rep_base" = type { i64, i64, i32 }
%"class.__gnu_cxx::new_allocator.1" = type { i8 }
%struct._IO_FILE = type { i32, i8*, i8*, i8*, i8*, i8*, i8*, i8*, i8*, i8*, i8*, i8*, %struct._IO_marker*, %struct._IO_FILE*, i32, i32, i64, i16, i8, [1 x i8], i8*, i64, i8*, i8*, i8*, i8*, i64, i32, [20 x i8] }
%struct._IO_marker = type { %struct._IO_marker*, %struct._IO_FILE*, i32 }
%"class.__gnu_cxx::__normal_iterator" = type { %class.YAML_Element** }
%"class.std::allocator.0.67" = type { i8 }
%"class.std::basic_stringstream" = type { %"class.std::basic_iostream.base", %"class.std::basic_stringbuf", %"class.std::basic_ios" }
%"class.std::basic_iostream.base" = type { %"class.std::basic_istream.base", %"class.std::basic_ostream.base" }
%"class.std::basic_istream.base" = type { i32 (...)**, i64 }
%"class.std::basic_ostream.base" = type { i32 (...)** }
%"class.std::basic_stringbuf" = type { %"class.std::basic_streambuf", i32, %"class.std::basic_string" }
%"class.std::basic_iostream" = type { %"class.std::basic_istream.base", %"class.std::basic_ostream.base", %"class.std::basic_ios" }
%"class.std::basic_istream" = type { i32 (...)**, i64, %"class.std::basic_ios" }

@_ZStL8__ioinit = internal global %"class.std::ios_base::Init" zeroinitializer, align 1
@__dso_handle = external global i8
@_ZSt4cerr = external global %"class.std::basic_ostream"
@.str = private unnamed_addr constant [7 x i8] c"Usage:\00", align 1
@.str1 = private unnamed_addr constant [9 x i8] c"Mode 1: \00", align 1
@.str2 = private unnamed_addr constant [10 x i8] c" nx ny nz\00", align 1
@.str3 = private unnamed_addr constant [64 x i8] c"     where nx, ny and nz are the local sub-block dimensions, or\00", align 1
@.str4 = private unnamed_addr constant [9 x i8] c"Mode 2: \00", align 1
@.str5 = private unnamed_addr constant [16 x i8] c" HPC_data_file \00", align 1
@.str6 = private unnamed_addr constant [79 x i8] c"     where HPC_data_file is a globally accessible file containing matrix data.\00", align 1
@.str7 = private unnamed_addr constant [22 x i8] c"Error in call to CG: \00", align 1
@.str8 = private unnamed_addr constant [3 x i8] c".\0A\00", align 1
@.str9 = private unnamed_addr constant [6 x i8] c"hpccg\00", align 1
@.str10 = private unnamed_addr constant [4 x i8] c"1.0\00", align 1
@.str11 = private unnamed_addr constant [1 x i8] zeroinitializer, align 1
@.str12 = private unnamed_addr constant [12 x i8] c"Parallelism\00", align 1
@.str13 = private unnamed_addr constant [16 x i8] c"MPI not enabled\00", align 1
@.str14 = private unnamed_addr constant [19 x i8] c"OpenMP not enabled\00", align 1
@.str15 = private unnamed_addr constant [11 x i8] c"Dimensions\00", align 1
@.str16 = private unnamed_addr constant [3 x i8] c"nx\00", align 1
@.str17 = private unnamed_addr constant [3 x i8] c"ny\00", align 1
@.str18 = private unnamed_addr constant [3 x i8] c"nz\00", align 1
@.str19 = private unnamed_addr constant [23 x i8] c"Number of iterations: \00", align 1
@.str20 = private unnamed_addr constant [17 x i8] c"Final residual: \00", align 1
@_ZSt4cout = external global %"class.std::basic_ostream"
@_ZNSs4_Rep20_S_empty_rep_storageE = external global [0 x i64]
@llvm.global_ctors = appending global [7 x { i32, void ()* }] [{ i32, void ()* } { i32 65535, void ()* @_GLOBAL__I_a }, { i32, void ()* } { i32 65535, void ()* @_GLOBAL__I_a41 }, { i32, void ()* } { i32 65535, void ()* @_GLOBAL__I_a71 }, { i32, void ()* } { i32 65535, void ()* @_GLOBAL__I_a80 }, { i32, void ()* } { i32 65535, void ()* @_GLOBAL__I_a117 }, { i32, void ()* } { i32 65535, void ()* @_GLOBAL__I_a175 }, { i32, void ()* } { i32 65535, void ()* @_GLOBAL__I_a206 }]
@_ZStL8__ioinit1 = internal global %"class.std::ios_base::Init" zeroinitializer, align 1
@.str21 = private unnamed_addr constant [20 x i8] c"Initial Residual = \00", align 1
@.str122 = private unnamed_addr constant [13 x i8] c"Iteration = \00", align 1
@.str223 = private unnamed_addr constant [15 x i8] c"   Residual = \00", align 1
@_ZStL8__ioinit47 = internal global %"class.std::ios_base::Init" zeroinitializer, align 1
@.str48 = private unnamed_addr constant [24 x i8] c"Mini-Application Name: \00", align 1
@.str149 = private unnamed_addr constant [2 x i8] c"\0A\00", align 1
@.str250 = private unnamed_addr constant [27 x i8] c"Mini-Application Version: \00", align 1
@.str351 = private unnamed_addr constant [1 x i8] zeroinitializer, align 1
@_ZStL8__ioinit76 = internal global %"class.std::ios_base::Init" zeroinitializer, align 1
@_ZStL8__ioinit82 = internal global %"class.std::ios_base::Init" zeroinitializer, align 1
@.str83 = private unnamed_addr constant [32 x i8] c"Reading matrix info from %s...\0A\00", align 1
@.str184 = private unnamed_addr constant [2 x i8] c"r\00", align 1
@.str285 = private unnamed_addr constant [29 x i8] c"Error: Cannot open file: %s\0A\00", align 1
@.str386 = private unnamed_addr constant [3 x i8] c"%d\00", align 1
@.str487 = private unnamed_addr constant [5 x i8] c"%lld\00", align 1
@.str588 = private unnamed_addr constant [26 x i8] c"cur_local_row==local_nrow\00", align 1
@.str689 = private unnamed_addr constant [27 x i8] c"../../src/read_HPC_row.cpp\00", align 1
@__PRETTY_FUNCTION__._Z12read_HPC_rowPcPP24HPC_Sparse_Matrix_STRUCTPPdS4_S4_ = private unnamed_addr constant [81 x i8] c"void read_HPC_row(char *, HPC_Sparse_Matrix **, double **, double **, double **)\00", align 1
@.str1093 = private unnamed_addr constant [7 x i8] c"%lf %d\00", align 1
@.str1295 = private unnamed_addr constant [12 x i8] c"%lf %lf %lf\00", align 1
@_ZStL8__ioinit119 = internal global %"class.std::ios_base::Init" zeroinitializer, align 1
@.str120 = private unnamed_addr constant [1 x i8] zeroinitializer, align 1
@.str1121 = private unnamed_addr constant [3 x i8] c": \00", align 1
@.str2122 = private unnamed_addr constant [2 x i8] c"\0A\00", align 1
@.str3123 = private unnamed_addr constant [2 x i8] c" \00", align 1
@.str4124 = private unnamed_addr constant [42 x i8] c"basic_string::_S_construct null not valid\00", align 1
@_ZNSs4_Rep11_S_terminalE = external constant i8
@_ZTVSt18basic_stringstreamIcSt11char_traitsIcESaIcEE = external unnamed_addr constant [15 x i8*]
@_ZTTSt18basic_stringstreamIcSt11char_traitsIcESaIcEE = external unnamed_addr constant [10 x i8*]
@_ZTVSt15basic_stringbufIcSt11char_traitsIcESaIcEE = external unnamed_addr constant [16 x i8*]
@_ZTVSt15basic_streambufIcSt11char_traitsIcEE = external unnamed_addr constant [16 x i8*]
@_ZTVSt9basic_iosIcSt11char_traitsIcEE = external unnamed_addr constant [4 x i8*]
@.str5125 = private unnamed_addr constant [22 x i8] c"vector::_M_insert_aux\00", align 1
@_ZStL8__ioinit180 = internal global %"class.std::ios_base::Init" zeroinitializer, align 1
@.str181 = private unnamed_addr constant [13 x i8] c"local_nrow>0\00", align 1
@.str1182 = private unnamed_addr constant [30 x i8] c"../../src/generate_matrix.cpp\00", align 1
@__PRETTY_FUNCTION__._Z15generate_matrixiiiPP24HPC_Sparse_Matrix_STRUCTPPdS3_S3_ = private unnamed_addr constant [91 x i8] c"void generate_matrix(int, int, int, HPC_Sparse_Matrix **, double **, double **, double **)\00", align 1
@.str208 = private unnamed_addr constant [9 x i8] c"mat0.dat\00", align 1
@.str1209 = private unnamed_addr constant [2 x i8] c"w\00", align 1
@.str2210 = private unnamed_addr constant [9 x i8] c"mat1.dat\00", align 1
@.str3211 = private unnamed_addr constant [9 x i8] c"mat2.dat\00", align 1
@.str4212 = private unnamed_addr constant [9 x i8] c"mat3.dat\00", align 1
@.str5213 = private unnamed_addr constant [16 x i8] c" %d %d %22.16e\0A\00", align 1

@_ZN8YAML_DocC1ERKSsS1_S1_S1_ = alias void (%class.YAML_Doc*, %"class.std::basic_string"*, %"class.std::basic_string"*, %"class.std::basic_string"*, %"class.std::basic_string"*)* @_ZN8YAML_DocC2ERKSsS1_S1_S1_
@_ZN8YAML_DocD1Ev = alias void (%class.YAML_Doc*)* @_ZN8YAML_DocD2Ev
@_ZN12YAML_ElementC1ERKSsS1_ = alias void (%class.YAML_Element*, %"class.std::basic_string"*, %"class.std::basic_string"*)* @_ZN12YAML_ElementC2ERKSsS1_
@_ZN12YAML_ElementD1Ev = alias void (%class.YAML_Element*)* @_ZN12YAML_ElementD2Ev

; Function Attrs: nounwind uwtable
define i32 @_Z4ddotiPKdS0_PdRd(i32 %n, double* readonly %x, double* readonly %y, double* nocapture %result, double* nocapture readnone %time_allreduce) #0 {
  %1 = icmp eq double* %y, %x, !llfi_index !1
  %2 = icmp sgt i32 %n, 0, !llfi_index !2
  br i1 %1, label %.preheader, label %.preheader4, !llfi_index !3

.preheader4:                                      ; preds = %0
  br i1 %2, label %.lr.ph8, label %.loopexit, !llfi_index !4

.preheader:                                       ; preds = %0
  br i1 %2, label %.lr.ph, label %.loopexit, !llfi_index !5

.lr.ph:                                           ; preds = %.lr.ph, %.preheader
  %indvars.iv = phi i64 [ %indvars.iv.next, %.lr.ph ], [ 0, %.preheader ], !llfi_index !6
  %local_result.02 = phi double [ %6, %.lr.ph ], [ 0.000000e+00, %.preheader ], !llfi_index !7
  %3 = getelementptr inbounds double* %x, i64 %indvars.iv, !llfi_index !8
  %4 = load double* %3, align 8, !tbaa !9, !llfi_index !13
  %5 = fmul double %4, %4, !llfi_index !14
  %6 = fadd double %local_result.02, %5, !llfi_index !15
  %indvars.iv.next = add nuw nsw i64 %indvars.iv, 1, !llfi_index !16
  %lftr.wideiv = trunc i64 %indvars.iv.next to i32, !llfi_index !17
  %exitcond = icmp eq i32 %lftr.wideiv, %n, !llfi_index !18
  br i1 %exitcond, label %.loopexit, label %.lr.ph, !llfi_index !19

.lr.ph8:                                          ; preds = %.lr.ph8, %.preheader4
  %indvars.iv11 = phi i64 [ %indvars.iv.next12, %.lr.ph8 ], [ 0, %.preheader4 ], !llfi_index !20
  %local_result.16 = phi double [ %12, %.lr.ph8 ], [ 0.000000e+00, %.preheader4 ], !llfi_index !21
  %7 = getelementptr inbounds double* %x, i64 %indvars.iv11, !llfi_index !22
  %8 = load double* %7, align 8, !tbaa !9, !llfi_index !23
  %9 = getelementptr inbounds double* %y, i64 %indvars.iv11, !llfi_index !24
  %10 = load double* %9, align 8, !tbaa !9, !llfi_index !25
  %11 = fmul double %8, %10, !llfi_index !26
  %12 = fadd double %local_result.16, %11, !llfi_index !27
  %indvars.iv.next12 = add nuw nsw i64 %indvars.iv11, 1, !llfi_index !28
  %lftr.wideiv13 = trunc i64 %indvars.iv.next12 to i32, !llfi_index !29
  %exitcond14 = icmp eq i32 %lftr.wideiv13, %n, !llfi_index !30
  br i1 %exitcond14, label %.loopexit, label %.lr.ph8, !llfi_index !31

.loopexit:                                        ; preds = %.lr.ph8, %.lr.ph, %.preheader, %.preheader4
  %local_result.2 = phi double [ 0.000000e+00, %.preheader ], [ %6, %.lr.ph ], [ 0.000000e+00, %.preheader4 ], [ %12, %.lr.ph8 ], !llfi_index !32
  store double %local_result.2, double* %result, align 8, !tbaa !9, !llfi_index !33
  ret i32 0, !llfi_index !34
}

declare void @_ZNSt8ios_base4InitC1Ev(%"class.std::ios_base::Init"*) #1

declare void @_ZNSt8ios_base4InitD1Ev(%"class.std::ios_base::Init"*) #1

; Function Attrs: nounwind
declare i32 @__cxa_atexit(void (i8*)*, i8*, i8*) #2

; Function Attrs: noreturn uwtable
define i32 @main(i32 %argc, i8** nocapture readonly %argv) #3 {
  %1 = alloca i32, align 4, !llfi_index !35
  %2 = alloca %"class.std::allocator", align 1, !llfi_index !36
  %3 = alloca i32, align 4, !llfi_index !37
  %4 = alloca %"class.std::allocator", align 1, !llfi_index !38
  %5 = alloca i32, align 4, !llfi_index !39
  %6 = alloca %"class.std::allocator", align 1, !llfi_index !40
  %7 = alloca i32, align 4, !llfi_index !41
  %8 = alloca %"class.std::allocator", align 1, !llfi_index !42
  %9 = alloca i32, align 4, !llfi_index !43
  %10 = alloca %"class.std::allocator", align 1, !llfi_index !44
  %11 = alloca i32, align 4, !llfi_index !45
  %12 = alloca %"class.std::allocator", align 1, !llfi_index !46
  %13 = alloca i32, align 4, !llfi_index !47
  %14 = alloca %"class.std::allocator", align 1, !llfi_index !48
  %15 = alloca i32, align 4, !llfi_index !49
  %16 = alloca %"class.std::allocator", align 1, !llfi_index !50
  %17 = alloca i32, align 4, !llfi_index !51
  %18 = alloca %"class.std::allocator", align 1, !llfi_index !52
  %19 = alloca i32, align 4, !llfi_index !53
  %20 = alloca %"class.std::allocator", align 1, !llfi_index !54
  %21 = alloca i32, align 4, !llfi_index !55
  %22 = alloca %"class.std::allocator", align 1, !llfi_index !56
  %23 = alloca i32, align 4, !llfi_index !57
  %24 = alloca %"class.std::allocator", align 1, !llfi_index !58
  %25 = alloca i32, align 4, !llfi_index !59
  %26 = alloca %"class.std::allocator", align 1, !llfi_index !60
  %27 = alloca i32, align 4, !llfi_index !61
  %28 = alloca %"class.std::allocator", align 1, !llfi_index !62
  %29 = alloca i32, align 4, !llfi_index !63
  %30 = alloca %"class.std::allocator", align 1, !llfi_index !64
  %31 = alloca i32, align 4, !llfi_index !65
  %32 = alloca %"class.std::allocator", align 1, !llfi_index !66
  %33 = alloca i32, align 4, !llfi_index !67
  %34 = alloca %"class.std::allocator", align 1, !llfi_index !68
  %35 = alloca i32, align 4, !llfi_index !69
  %36 = alloca %"class.std::allocator", align 1, !llfi_index !70
  %37 = alloca i32, align 4, !llfi_index !71
  %38 = alloca %"class.std::allocator", align 1, !llfi_index !72
  %39 = alloca i32, align 4, !llfi_index !73
  %40 = alloca %"class.std::allocator", align 1, !llfi_index !74
  %41 = alloca i32, align 4, !llfi_index !75
  %42 = alloca %"class.std::allocator", align 1, !llfi_index !76
  %43 = alloca i32, align 4, !llfi_index !77
  %44 = alloca %"class.std::allocator", align 1, !llfi_index !78
  %45 = alloca i32, align 4, !llfi_index !79
  %46 = alloca %"class.std::allocator", align 1, !llfi_index !80
  %47 = alloca i32, align 4, !llfi_index !81
  %48 = alloca %"class.std::allocator", align 1, !llfi_index !82
  %49 = alloca i32, align 4, !llfi_index !83
  %50 = alloca %"class.std::allocator", align 1, !llfi_index !84
  %51 = alloca i32, align 4, !llfi_index !85
  %52 = alloca %"class.std::allocator", align 1, !llfi_index !86
  %53 = alloca i32, align 4, !llfi_index !87
  %54 = alloca %"class.std::allocator", align 1, !llfi_index !88
  %55 = alloca i32, align 4, !llfi_index !89
  %56 = alloca %"class.std::allocator", align 1, !llfi_index !90
  %57 = alloca i32, align 4, !llfi_index !91
  %58 = alloca %"class.std::allocator", align 1, !llfi_index !92
  %59 = alloca i32, align 4, !llfi_index !93
  %60 = alloca %"class.std::allocator", align 1, !llfi_index !94
  %61 = alloca i32, align 4, !llfi_index !95
  %62 = alloca %"class.std::allocator", align 1, !llfi_index !96
  %63 = alloca i32, align 4, !llfi_index !97
  %64 = alloca %"class.std::allocator", align 1, !llfi_index !98
  %65 = alloca i32, align 4, !llfi_index !99
  %66 = alloca %"class.std::allocator", align 1, !llfi_index !100
  %67 = alloca i32, align 4, !llfi_index !101
  %68 = alloca %"class.std::allocator", align 1, !llfi_index !102
  %69 = alloca i32, align 4, !llfi_index !103
  %70 = alloca %"class.std::allocator", align 1, !llfi_index !104
  %71 = alloca i32, align 4, !llfi_index !105
  %72 = alloca %"class.std::allocator", align 1, !llfi_index !106
  %73 = alloca i32, align 4, !llfi_index !107
  %74 = alloca %"class.std::allocator", align 1, !llfi_index !108
  %75 = alloca i32, align 4, !llfi_index !109
  %76 = alloca %"class.std::allocator", align 1, !llfi_index !110
  %77 = alloca i32, align 4, !llfi_index !111
  %78 = alloca %"class.std::allocator", align 1, !llfi_index !112
  %79 = alloca i32, align 4, !llfi_index !113
  %80 = alloca %"class.std::allocator", align 1, !llfi_index !114
  %81 = alloca i32, align 4, !llfi_index !115
  %82 = alloca %"class.std::allocator", align 1, !llfi_index !116
  %83 = alloca i32, align 4, !llfi_index !117
  %84 = alloca %"class.std::allocator", align 1, !llfi_index !118
  %85 = alloca i32, align 4, !llfi_index !119
  %86 = alloca %"class.std::allocator", align 1, !llfi_index !120
  %87 = alloca i32, align 4, !llfi_index !121
  %88 = alloca %"class.std::allocator", align 1, !llfi_index !122
  %89 = alloca i32, align 4, !llfi_index !123
  %90 = alloca %"class.std::allocator", align 1, !llfi_index !124
  %91 = alloca i32, align 4, !llfi_index !125
  %92 = alloca %"class.std::allocator", align 1, !llfi_index !126
  %ruse.i = alloca %struct.rusage, align 8, !llfi_index !127
  %A = alloca %struct.HPC_Sparse_Matrix_STRUCT*, align 8, !llfi_index !128
  %x = alloca double*, align 8, !llfi_index !129
  %b = alloca double*, align 8, !llfi_index !130
  %xexact = alloca double*, align 8, !llfi_index !131
  %times = alloca [7 x double], align 16, !llfi_index !132
  %niters = alloca i32, align 4, !llfi_index !133
  %normr = alloca double, align 8, !llfi_index !134
  %doc = alloca %class.YAML_Doc, align 8, !llfi_index !135
  %93 = alloca %"class.std::basic_string", align 8, !llfi_index !136
  %94 = alloca %"class.std::allocator", align 1, !llfi_index !137
  %95 = alloca %"class.std::basic_string", align 8, !llfi_index !138
  %96 = alloca %"class.std::allocator", align 1, !llfi_index !139
  %97 = alloca %"class.std::basic_string", align 8, !llfi_index !140
  %98 = alloca %"class.std::allocator", align 1, !llfi_index !141
  %99 = alloca %"class.std::basic_string", align 8, !llfi_index !142
  %100 = alloca %"class.std::allocator", align 1, !llfi_index !143
  %101 = alloca %"class.std::basic_string", align 8, !llfi_index !144
  %102 = alloca %"class.std::allocator", align 1, !llfi_index !145
  %103 = alloca %"class.std::basic_string", align 8, !llfi_index !146
  %104 = alloca %"class.std::allocator", align 1, !llfi_index !147
  %105 = alloca %"class.std::basic_string", align 8, !llfi_index !148
  %106 = alloca %"class.std::allocator", align 1, !llfi_index !149
  %107 = alloca %"class.std::basic_string", align 8, !llfi_index !150
  %108 = alloca %"class.std::allocator", align 1, !llfi_index !151
  %109 = alloca %"class.std::basic_string", align 8, !llfi_index !152
  %110 = alloca %"class.std::allocator", align 1, !llfi_index !153
  %111 = alloca %"class.std::basic_string", align 8, !llfi_index !154
  %112 = alloca %"class.std::allocator", align 1, !llfi_index !155
  %113 = alloca %"class.std::basic_string", align 8, !llfi_index !156
  %114 = alloca %"class.std::allocator", align 1, !llfi_index !157
  %115 = alloca %"class.std::basic_string", align 8, !llfi_index !158
  %116 = alloca %"class.std::allocator", align 1, !llfi_index !159
  %117 = alloca %"class.std::basic_string", align 8, !llfi_index !160
  %118 = alloca %"class.std::allocator", align 1, !llfi_index !161
  %119 = alloca %"class.std::basic_string", align 8, !llfi_index !162
  %120 = alloca %"class.std::allocator", align 1, !llfi_index !163
  %121 = alloca %"class.std::basic_string", align 8, !llfi_index !164
  %122 = alloca %"class.std::allocator", align 1, !llfi_index !165
  %123 = alloca %"class.std::basic_string", align 8, !llfi_index !166
  %124 = alloca %"class.std::allocator", align 1, !llfi_index !167
  %125 = alloca %"class.std::basic_string", align 8, !llfi_index !168
  %126 = alloca %"class.std::allocator", align 1, !llfi_index !169
  %127 = alloca %"class.std::basic_string", align 8, !llfi_index !170
  %128 = alloca %"class.std::allocator", align 1, !llfi_index !171
  %129 = alloca %"class.std::basic_string", align 8, !llfi_index !172
  %130 = alloca %"class.std::allocator", align 1, !llfi_index !173
  %131 = alloca %"class.std::basic_string", align 8, !llfi_index !174
  %132 = alloca %"class.std::allocator", align 1, !llfi_index !175
  %133 = alloca %"class.std::basic_string", align 8, !llfi_index !176
  %134 = alloca %"class.std::allocator", align 1, !llfi_index !177
  %135 = alloca %"class.std::basic_string", align 8, !llfi_index !178
  %136 = alloca %"class.std::allocator", align 1, !llfi_index !179
  %yaml = alloca %"class.std::basic_string", align 8, !llfi_index !180
  %137 = bitcast [7 x double]* %times to i8*, !llfi_index !181
  call void @llvm.lifetime.start(i64 56, i8* %137) #2, !llfi_index !182
  switch i32 %argc, label %138 [
    i32 4, label %315
    i32 2, label %315
  ], !llfi_index !183

; <label>:138                                     ; preds = %0
  %139 = call i64 @strlen(i8* getelementptr inbounds ([7 x i8]* @.str, i64 0, i64 0)) #2, !llfi_index !184
  %140 = call %"class.std::basic_ostream"* @_ZSt16__ostream_insertIcSt11char_traitsIcEERSt13basic_ostreamIT_T0_ES6_PKS3_l(%"class.std::basic_ostream"* @_ZSt4cerr, i8* getelementptr inbounds ([7 x i8]* @.str, i64 0, i64 0), i64 %139), !llfi_index !185
  %141 = load i8** bitcast (%"class.std::basic_ostream"* @_ZSt4cerr to i8**), align 8, !tbaa !186, !llfi_index !188
  %142 = getelementptr i8* %141, i64 -24, !llfi_index !189
  %143 = bitcast i8* %142 to i64*, !llfi_index !190
  %144 = load i64* %143, align 8, !llfi_index !191
  %145 = getelementptr inbounds i8* bitcast (%"class.std::basic_ostream"* @_ZSt4cerr to i8*), i64 %144, !llfi_index !192
  %146 = bitcast i8* %145 to %"class.std::basic_ios"*, !llfi_index !193
  %147 = getelementptr inbounds %"class.std::basic_ios"* %146, i64 0, i32 5, !llfi_index !194
  %148 = load %"class.std::ctype"** %147, align 8, !tbaa !195, !llfi_index !199
  %149 = icmp eq %"class.std::ctype"* %148, null, !llfi_index !200
  br i1 %149, label %150, label %_ZSt13__check_facetISt5ctypeIcEERKT_PS3_.exit, !llfi_index !201

; <label>:150                                     ; preds = %138
  call void @_ZSt16__throw_bad_castv() #14, !llfi_index !202
  unreachable, !llfi_index !203

_ZSt13__check_facetISt5ctypeIcEERKT_PS3_.exit:    ; preds = %138
  %151 = getelementptr inbounds %"class.std::ctype"* %148, i64 0, i32 6, !llfi_index !204
  %152 = load i8* %151, align 1, !tbaa !205, !llfi_index !207
  %153 = icmp eq i8 %152, 0, !llfi_index !208
  br i1 %153, label %157, label %154, !llfi_index !209

; <label>:154                                     ; preds = %_ZSt13__check_facetISt5ctypeIcEERKT_PS3_.exit
  %155 = getelementptr inbounds %"class.std::ctype"* %148, i64 0, i32 7, i64 10, !llfi_index !210
  %156 = load i8* %155, align 1, !tbaa !211, !llfi_index !212
  br label %_ZNKSt5ctypeIcE5widenEc.exit, !llfi_index !213

; <label>:157                                     ; preds = %_ZSt13__check_facetISt5ctypeIcEERKT_PS3_.exit
  call void @_ZNKSt5ctypeIcE13_M_widen_initEv(%"class.std::ctype"* %148), !llfi_index !214
  %158 = bitcast %"class.std::ctype"* %148 to i8 (%"class.std::ctype"*, i8)***, !llfi_index !215
  %159 = load i8 (%"class.std::ctype"*, i8)*** %158, align 8, !tbaa !186, !llfi_index !216
  %160 = getelementptr inbounds i8 (%"class.std::ctype"*, i8)** %159, i64 6, !llfi_index !217
  %161 = load i8 (%"class.std::ctype"*, i8)** %160, align 8, !llfi_index !218
  %162 = call signext i8 %161(%"class.std::ctype"* %148, i8 signext 10), !llfi_index !219
  br label %_ZNKSt5ctypeIcE5widenEc.exit, !llfi_index !220

_ZNKSt5ctypeIcE5widenEc.exit:                     ; preds = %157, %154
  %.0.i = phi i8 [ %156, %154 ], [ %162, %157 ], !llfi_index !221
  %163 = call %"class.std::basic_ostream"* @_ZNSo3putEc(%"class.std::basic_ostream"* @_ZSt4cerr, i8 signext %.0.i), !llfi_index !222
  %164 = call %"class.std::basic_ostream"* @_ZNSo5flushEv(%"class.std::basic_ostream"* %163), !llfi_index !223
  %165 = call i64 @strlen(i8* getelementptr inbounds ([9 x i8]* @.str1, i64 0, i64 0)) #2, !llfi_index !224
  %166 = call %"class.std::basic_ostream"* @_ZSt16__ostream_insertIcSt11char_traitsIcEERSt13basic_ostreamIT_T0_ES6_PKS3_l(%"class.std::basic_ostream"* %164, i8* getelementptr inbounds ([9 x i8]* @.str1, i64 0, i64 0), i64 %165), !llfi_index !225
  %167 = load i8** %argv, align 8, !tbaa !226, !llfi_index !227
  %168 = icmp eq i8* %167, null, !llfi_index !228
  br i1 %168, label %169, label %181, !llfi_index !229

; <label>:169                                     ; preds = %_ZNKSt5ctypeIcE5widenEc.exit
  %170 = bitcast %"class.std::basic_ostream"* %164 to i8**, !llfi_index !230
  %171 = load i8** %170, align 8, !tbaa !186, !llfi_index !231
  %172 = getelementptr i8* %171, i64 -24, !llfi_index !232
  %173 = bitcast i8* %172 to i64*, !llfi_index !233
  %174 = load i64* %173, align 8, !llfi_index !234
  %175 = bitcast %"class.std::basic_ostream"* %164 to i8*, !llfi_index !235
  %176 = getelementptr inbounds i8* %175, i64 %174, !llfi_index !236
  %177 = bitcast i8* %176 to %"class.std::basic_ios"*, !llfi_index !237
  %178 = getelementptr inbounds %"class.std::basic_ios"* %177, i64 0, i32 0, i32 5, !llfi_index !238
  %179 = load i32* %178, align 4, !tbaa !239, !llfi_index !247
  %180 = or i32 1, %179, !llfi_index !248
  call void @_ZNSt9basic_iosIcSt11char_traitsIcEE5clearESt12_Ios_Iostate(%"class.std::basic_ios"* %177, i32 %180), !llfi_index !249
  br label %_ZStlsISt11char_traitsIcEERSt13basic_ostreamIcT_ES5_PKc.exit, !llfi_index !250

; <label>:181                                     ; preds = %_ZNKSt5ctypeIcE5widenEc.exit
  %182 = call i64 @strlen(i8* %167) #2, !llfi_index !251
  %183 = call %"class.std::basic_ostream"* @_ZSt16__ostream_insertIcSt11char_traitsIcEERSt13basic_ostreamIT_T0_ES6_PKS3_l(%"class.std::basic_ostream"* %164, i8* %167, i64 %182), !llfi_index !252
  br label %_ZStlsISt11char_traitsIcEERSt13basic_ostreamIcT_ES5_PKc.exit, !llfi_index !253

_ZStlsISt11char_traitsIcEERSt13basic_ostreamIcT_ES5_PKc.exit: ; preds = %181, %169
  %184 = call i64 @strlen(i8* getelementptr inbounds ([10 x i8]* @.str2, i64 0, i64 0)) #2, !llfi_index !254
  %185 = call %"class.std::basic_ostream"* @_ZSt16__ostream_insertIcSt11char_traitsIcEERSt13basic_ostreamIT_T0_ES6_PKS3_l(%"class.std::basic_ostream"* %164, i8* getelementptr inbounds ([10 x i8]* @.str2, i64 0, i64 0), i64 %184), !llfi_index !255
  %186 = bitcast %"class.std::basic_ostream"* %164 to i8**, !llfi_index !256
  %187 = load i8** %186, align 8, !tbaa !186, !llfi_index !257
  %188 = getelementptr i8* %187, i64 -24, !llfi_index !258
  %189 = bitcast i8* %188 to i64*, !llfi_index !259
  %190 = load i64* %189, align 8, !llfi_index !260
  %191 = bitcast %"class.std::basic_ostream"* %164 to i8*, !llfi_index !261
  %192 = getelementptr inbounds i8* %191, i64 %190, !llfi_index !262
  %193 = bitcast i8* %192 to %"class.std::basic_ios"*, !llfi_index !263
  %194 = getelementptr inbounds %"class.std::basic_ios"* %193, i64 0, i32 5, !llfi_index !264
  %195 = load %"class.std::ctype"** %194, align 8, !tbaa !195, !llfi_index !265
  %196 = icmp eq %"class.std::ctype"* %195, null, !llfi_index !266
  br i1 %196, label %197, label %_ZSt13__check_facetISt5ctypeIcEERKT_PS3_.exit147, !llfi_index !267

; <label>:197                                     ; preds = %_ZStlsISt11char_traitsIcEERSt13basic_ostreamIcT_ES5_PKc.exit
  call void @_ZSt16__throw_bad_castv() #14, !llfi_index !268
  unreachable, !llfi_index !269

_ZSt13__check_facetISt5ctypeIcEERKT_PS3_.exit147: ; preds = %_ZStlsISt11char_traitsIcEERSt13basic_ostreamIcT_ES5_PKc.exit
  %198 = getelementptr inbounds %"class.std::ctype"* %195, i64 0, i32 6, !llfi_index !270
  %199 = load i8* %198, align 1, !tbaa !205, !llfi_index !271
  %200 = icmp eq i8 %199, 0, !llfi_index !272
  br i1 %200, label %204, label %201, !llfi_index !273

; <label>:201                                     ; preds = %_ZSt13__check_facetISt5ctypeIcEERKT_PS3_.exit147
  %202 = getelementptr inbounds %"class.std::ctype"* %195, i64 0, i32 7, i64 10, !llfi_index !274
  %203 = load i8* %202, align 1, !tbaa !211, !llfi_index !275
  br label %_ZNKSt5ctypeIcE5widenEc.exit138, !llfi_index !276

; <label>:204                                     ; preds = %_ZSt13__check_facetISt5ctypeIcEERKT_PS3_.exit147
  call void @_ZNKSt5ctypeIcE13_M_widen_initEv(%"class.std::ctype"* %195), !llfi_index !277
  %205 = bitcast %"class.std::ctype"* %195 to i8 (%"class.std::ctype"*, i8)***, !llfi_index !278
  %206 = load i8 (%"class.std::ctype"*, i8)*** %205, align 8, !tbaa !186, !llfi_index !279
  %207 = getelementptr inbounds i8 (%"class.std::ctype"*, i8)** %206, i64 6, !llfi_index !280
  %208 = load i8 (%"class.std::ctype"*, i8)** %207, align 8, !llfi_index !281
  %209 = call signext i8 %208(%"class.std::ctype"* %195, i8 signext 10), !llfi_index !282
  br label %_ZNKSt5ctypeIcE5widenEc.exit138, !llfi_index !283

_ZNKSt5ctypeIcE5widenEc.exit138:                  ; preds = %204, %201
  %.0.i137 = phi i8 [ %203, %201 ], [ %209, %204 ], !llfi_index !284
  %210 = call %"class.std::basic_ostream"* @_ZNSo3putEc(%"class.std::basic_ostream"* %164, i8 signext %.0.i137), !llfi_index !285
  %211 = call %"class.std::basic_ostream"* @_ZNSo5flushEv(%"class.std::basic_ostream"* %210), !llfi_index !286
  %212 = call i64 @strlen(i8* getelementptr inbounds ([64 x i8]* @.str3, i64 0, i64 0)) #2, !llfi_index !287
  %213 = call %"class.std::basic_ostream"* @_ZSt16__ostream_insertIcSt11char_traitsIcEERSt13basic_ostreamIT_T0_ES6_PKS3_l(%"class.std::basic_ostream"* %211, i8* getelementptr inbounds ([64 x i8]* @.str3, i64 0, i64 0), i64 %212), !llfi_index !288
  %214 = bitcast %"class.std::basic_ostream"* %211 to i8**, !llfi_index !289
  %215 = load i8** %214, align 8, !tbaa !186, !llfi_index !290
  %216 = getelementptr i8* %215, i64 -24, !llfi_index !291
  %217 = bitcast i8* %216 to i64*, !llfi_index !292
  %218 = load i64* %217, align 8, !llfi_index !293
  %219 = bitcast %"class.std::basic_ostream"* %211 to i8*, !llfi_index !294
  %220 = getelementptr inbounds i8* %219, i64 %218, !llfi_index !295
  %221 = bitcast i8* %220 to %"class.std::basic_ios"*, !llfi_index !296
  %222 = getelementptr inbounds %"class.std::basic_ios"* %221, i64 0, i32 5, !llfi_index !297
  %223 = load %"class.std::ctype"** %222, align 8, !tbaa !195, !llfi_index !298
  %224 = icmp eq %"class.std::ctype"* %223, null, !llfi_index !299
  br i1 %224, label %225, label %_ZSt13__check_facetISt5ctypeIcEERKT_PS3_.exit148, !llfi_index !300

; <label>:225                                     ; preds = %_ZNKSt5ctypeIcE5widenEc.exit138
  call void @_ZSt16__throw_bad_castv() #14, !llfi_index !301
  unreachable, !llfi_index !302

_ZSt13__check_facetISt5ctypeIcEERKT_PS3_.exit148: ; preds = %_ZNKSt5ctypeIcE5widenEc.exit138
  %226 = getelementptr inbounds %"class.std::ctype"* %223, i64 0, i32 6, !llfi_index !303
  %227 = load i8* %226, align 1, !tbaa !205, !llfi_index !304
  %228 = icmp eq i8 %227, 0, !llfi_index !305
  br i1 %228, label %232, label %229, !llfi_index !306

; <label>:229                                     ; preds = %_ZSt13__check_facetISt5ctypeIcEERKT_PS3_.exit148
  %230 = getelementptr inbounds %"class.std::ctype"* %223, i64 0, i32 7, i64 10, !llfi_index !307
  %231 = load i8* %230, align 1, !tbaa !211, !llfi_index !308
  br label %_ZNKSt5ctypeIcE5widenEc.exit140, !llfi_index !309

; <label>:232                                     ; preds = %_ZSt13__check_facetISt5ctypeIcEERKT_PS3_.exit148
  call void @_ZNKSt5ctypeIcE13_M_widen_initEv(%"class.std::ctype"* %223), !llfi_index !310
  %233 = bitcast %"class.std::ctype"* %223 to i8 (%"class.std::ctype"*, i8)***, !llfi_index !311
  %234 = load i8 (%"class.std::ctype"*, i8)*** %233, align 8, !tbaa !186, !llfi_index !312
  %235 = getelementptr inbounds i8 (%"class.std::ctype"*, i8)** %234, i64 6, !llfi_index !313
  %236 = load i8 (%"class.std::ctype"*, i8)** %235, align 8, !llfi_index !314
  %237 = call signext i8 %236(%"class.std::ctype"* %223, i8 signext 10), !llfi_index !315
  br label %_ZNKSt5ctypeIcE5widenEc.exit140, !llfi_index !316

_ZNKSt5ctypeIcE5widenEc.exit140:                  ; preds = %232, %229
  %.0.i139 = phi i8 [ %231, %229 ], [ %237, %232 ], !llfi_index !317
  %238 = call %"class.std::basic_ostream"* @_ZNSo3putEc(%"class.std::basic_ostream"* %211, i8 signext %.0.i139), !llfi_index !318
  %239 = call %"class.std::basic_ostream"* @_ZNSo5flushEv(%"class.std::basic_ostream"* %238), !llfi_index !319
  %240 = call i64 @strlen(i8* getelementptr inbounds ([9 x i8]* @.str4, i64 0, i64 0)) #2, !llfi_index !320
  %241 = call %"class.std::basic_ostream"* @_ZSt16__ostream_insertIcSt11char_traitsIcEERSt13basic_ostreamIT_T0_ES6_PKS3_l(%"class.std::basic_ostream"* %239, i8* getelementptr inbounds ([9 x i8]* @.str4, i64 0, i64 0), i64 %240), !llfi_index !321
  %242 = load i8** %argv, align 8, !tbaa !226, !llfi_index !322
  %243 = icmp eq i8* %242, null, !llfi_index !323
  br i1 %243, label %244, label %256, !llfi_index !324

; <label>:244                                     ; preds = %_ZNKSt5ctypeIcE5widenEc.exit140
  %245 = bitcast %"class.std::basic_ostream"* %239 to i8**, !llfi_index !325
  %246 = load i8** %245, align 8, !tbaa !186, !llfi_index !326
  %247 = getelementptr i8* %246, i64 -24, !llfi_index !327
  %248 = bitcast i8* %247 to i64*, !llfi_index !328
  %249 = load i64* %248, align 8, !llfi_index !329
  %250 = bitcast %"class.std::basic_ostream"* %239 to i8*, !llfi_index !330
  %251 = getelementptr inbounds i8* %250, i64 %249, !llfi_index !331
  %252 = bitcast i8* %251 to %"class.std::basic_ios"*, !llfi_index !332
  %253 = getelementptr inbounds %"class.std::basic_ios"* %252, i64 0, i32 0, i32 5, !llfi_index !333
  %254 = load i32* %253, align 4, !tbaa !239, !llfi_index !334
  %255 = or i32 1, %254, !llfi_index !335
  call void @_ZNSt9basic_iosIcSt11char_traitsIcEE5clearESt12_Ios_Iostate(%"class.std::basic_ios"* %252, i32 %255), !llfi_index !336
  br label %_ZStlsISt11char_traitsIcEERSt13basic_ostreamIcT_ES5_PKc.exit1, !llfi_index !337

; <label>:256                                     ; preds = %_ZNKSt5ctypeIcE5widenEc.exit140
  %257 = call i64 @strlen(i8* %242) #2, !llfi_index !338
  %258 = call %"class.std::basic_ostream"* @_ZSt16__ostream_insertIcSt11char_traitsIcEERSt13basic_ostreamIT_T0_ES6_PKS3_l(%"class.std::basic_ostream"* %239, i8* %242, i64 %257), !llfi_index !339
  br label %_ZStlsISt11char_traitsIcEERSt13basic_ostreamIcT_ES5_PKc.exit1, !llfi_index !340

_ZStlsISt11char_traitsIcEERSt13basic_ostreamIcT_ES5_PKc.exit1: ; preds = %256, %244
  %259 = call i64 @strlen(i8* getelementptr inbounds ([16 x i8]* @.str5, i64 0, i64 0)) #2, !llfi_index !341
  %260 = call %"class.std::basic_ostream"* @_ZSt16__ostream_insertIcSt11char_traitsIcEERSt13basic_ostreamIT_T0_ES6_PKS3_l(%"class.std::basic_ostream"* %239, i8* getelementptr inbounds ([16 x i8]* @.str5, i64 0, i64 0), i64 %259), !llfi_index !342
  %261 = bitcast %"class.std::basic_ostream"* %239 to i8**, !llfi_index !343
  %262 = load i8** %261, align 8, !tbaa !186, !llfi_index !344
  %263 = getelementptr i8* %262, i64 -24, !llfi_index !345
  %264 = bitcast i8* %263 to i64*, !llfi_index !346
  %265 = load i64* %264, align 8, !llfi_index !347
  %266 = bitcast %"class.std::basic_ostream"* %239 to i8*, !llfi_index !348
  %267 = getelementptr inbounds i8* %266, i64 %265, !llfi_index !349
  %268 = bitcast i8* %267 to %"class.std::basic_ios"*, !llfi_index !350
  %269 = getelementptr inbounds %"class.std::basic_ios"* %268, i64 0, i32 5, !llfi_index !351
  %270 = load %"class.std::ctype"** %269, align 8, !tbaa !195, !llfi_index !352
  %271 = icmp eq %"class.std::ctype"* %270, null, !llfi_index !353
  br i1 %271, label %272, label %_ZSt13__check_facetISt5ctypeIcEERKT_PS3_.exit149, !llfi_index !354

; <label>:272                                     ; preds = %_ZStlsISt11char_traitsIcEERSt13basic_ostreamIcT_ES5_PKc.exit1
  call void @_ZSt16__throw_bad_castv() #14, !llfi_index !355
  unreachable, !llfi_index !356

_ZSt13__check_facetISt5ctypeIcEERKT_PS3_.exit149: ; preds = %_ZStlsISt11char_traitsIcEERSt13basic_ostreamIcT_ES5_PKc.exit1
  %273 = getelementptr inbounds %"class.std::ctype"* %270, i64 0, i32 6, !llfi_index !357
  %274 = load i8* %273, align 1, !tbaa !205, !llfi_index !358
  %275 = icmp eq i8 %274, 0, !llfi_index !359
  br i1 %275, label %279, label %276, !llfi_index !360

; <label>:276                                     ; preds = %_ZSt13__check_facetISt5ctypeIcEERKT_PS3_.exit149
  %277 = getelementptr inbounds %"class.std::ctype"* %270, i64 0, i32 7, i64 10, !llfi_index !361
  %278 = load i8* %277, align 1, !tbaa !211, !llfi_index !362
  br label %_ZNKSt5ctypeIcE5widenEc.exit142, !llfi_index !363

; <label>:279                                     ; preds = %_ZSt13__check_facetISt5ctypeIcEERKT_PS3_.exit149
  call void @_ZNKSt5ctypeIcE13_M_widen_initEv(%"class.std::ctype"* %270), !llfi_index !364
  %280 = bitcast %"class.std::ctype"* %270 to i8 (%"class.std::ctype"*, i8)***, !llfi_index !365
  %281 = load i8 (%"class.std::ctype"*, i8)*** %280, align 8, !tbaa !186, !llfi_index !366
  %282 = getelementptr inbounds i8 (%"class.std::ctype"*, i8)** %281, i64 6, !llfi_index !367
  %283 = load i8 (%"class.std::ctype"*, i8)** %282, align 8, !llfi_index !368
  %284 = call signext i8 %283(%"class.std::ctype"* %270, i8 signext 10), !llfi_index !369
  br label %_ZNKSt5ctypeIcE5widenEc.exit142, !llfi_index !370

_ZNKSt5ctypeIcE5widenEc.exit142:                  ; preds = %279, %276
  %.0.i141 = phi i8 [ %278, %276 ], [ %284, %279 ], !llfi_index !371
  %285 = call %"class.std::basic_ostream"* @_ZNSo3putEc(%"class.std::basic_ostream"* %239, i8 signext %.0.i141), !llfi_index !372
  %286 = call %"class.std::basic_ostream"* @_ZNSo5flushEv(%"class.std::basic_ostream"* %285), !llfi_index !373
  %287 = call i64 @strlen(i8* getelementptr inbounds ([79 x i8]* @.str6, i64 0, i64 0)) #2, !llfi_index !374
  %288 = call %"class.std::basic_ostream"* @_ZSt16__ostream_insertIcSt11char_traitsIcEERSt13basic_ostreamIT_T0_ES6_PKS3_l(%"class.std::basic_ostream"* %286, i8* getelementptr inbounds ([79 x i8]* @.str6, i64 0, i64 0), i64 %287), !llfi_index !375
  %289 = bitcast %"class.std::basic_ostream"* %286 to i8**, !llfi_index !376
  %290 = load i8** %289, align 8, !tbaa !186, !llfi_index !377
  %291 = getelementptr i8* %290, i64 -24, !llfi_index !378
  %292 = bitcast i8* %291 to i64*, !llfi_index !379
  %293 = load i64* %292, align 8, !llfi_index !380
  %294 = bitcast %"class.std::basic_ostream"* %286 to i8*, !llfi_index !381
  %295 = getelementptr inbounds i8* %294, i64 %293, !llfi_index !382
  %296 = bitcast i8* %295 to %"class.std::basic_ios"*, !llfi_index !383
  %297 = getelementptr inbounds %"class.std::basic_ios"* %296, i64 0, i32 5, !llfi_index !384
  %298 = load %"class.std::ctype"** %297, align 8, !tbaa !195, !llfi_index !385
  %299 = icmp eq %"class.std::ctype"* %298, null, !llfi_index !386
  br i1 %299, label %300, label %_ZSt13__check_facetISt5ctypeIcEERKT_PS3_.exit150, !llfi_index !387

; <label>:300                                     ; preds = %_ZNKSt5ctypeIcE5widenEc.exit142
  call void @_ZSt16__throw_bad_castv() #14, !llfi_index !388
  unreachable, !llfi_index !389

_ZSt13__check_facetISt5ctypeIcEERKT_PS3_.exit150: ; preds = %_ZNKSt5ctypeIcE5widenEc.exit142
  %301 = getelementptr inbounds %"class.std::ctype"* %298, i64 0, i32 6, !llfi_index !390
  %302 = load i8* %301, align 1, !tbaa !205, !llfi_index !391
  %303 = icmp eq i8 %302, 0, !llfi_index !392
  br i1 %303, label %307, label %304, !llfi_index !393

; <label>:304                                     ; preds = %_ZSt13__check_facetISt5ctypeIcEERKT_PS3_.exit150
  %305 = getelementptr inbounds %"class.std::ctype"* %298, i64 0, i32 7, i64 10, !llfi_index !394
  %306 = load i8* %305, align 1, !tbaa !211, !llfi_index !395
  br label %_ZNKSt5ctypeIcE5widenEc.exit144, !llfi_index !396

; <label>:307                                     ; preds = %_ZSt13__check_facetISt5ctypeIcEERKT_PS3_.exit150
  call void @_ZNKSt5ctypeIcE13_M_widen_initEv(%"class.std::ctype"* %298), !llfi_index !397
  %308 = bitcast %"class.std::ctype"* %298 to i8 (%"class.std::ctype"*, i8)***, !llfi_index !398
  %309 = load i8 (%"class.std::ctype"*, i8)*** %308, align 8, !tbaa !186, !llfi_index !399
  %310 = getelementptr inbounds i8 (%"class.std::ctype"*, i8)** %309, i64 6, !llfi_index !400
  %311 = load i8 (%"class.std::ctype"*, i8)** %310, align 8, !llfi_index !401
  %312 = call signext i8 %311(%"class.std::ctype"* %298, i8 signext 10), !llfi_index !402
  br label %_ZNKSt5ctypeIcE5widenEc.exit144, !llfi_index !403

_ZNKSt5ctypeIcE5widenEc.exit144:                  ; preds = %307, %304
  %.0.i143 = phi i8 [ %306, %304 ], [ %312, %307 ], !llfi_index !404
  %313 = call %"class.std::basic_ostream"* @_ZNSo3putEc(%"class.std::basic_ostream"* %286, i8 signext %.0.i143), !llfi_index !405
  %314 = call %"class.std::basic_ostream"* @_ZNSo5flushEv(%"class.std::basic_ostream"* %313), !llfi_index !406
  call void @exit(i32 1) #15, !llfi_index !407
  unreachable, !llfi_index !408

; <label>:315                                     ; preds = %0, %0
  %316 = icmp eq i32 %argc, 4, !llfi_index !409
  %317 = getelementptr inbounds i8** %argv, i64 1, !llfi_index !410
  %318 = load i8** %317, align 8, !tbaa !226, !llfi_index !411
  br i1 %316, label %319, label %330, !llfi_index !412

; <label>:319                                     ; preds = %315
  %320 = call i64 @strtol(i8* nocapture %318, i8** null, i32 10) #2, !llfi_index !413
  %321 = trunc i64 %320 to i32, !llfi_index !414
  %322 = getelementptr inbounds i8** %argv, i64 2, !llfi_index !415
  %323 = load i8** %322, align 8, !tbaa !226, !llfi_index !416
  %324 = call i64 @strtol(i8* nocapture %323, i8** null, i32 10) #2, !llfi_index !417
  %325 = trunc i64 %324 to i32, !llfi_index !418
  %326 = getelementptr inbounds i8** %argv, i64 3, !llfi_index !419
  %327 = load i8** %326, align 8, !tbaa !226, !llfi_index !420
  %328 = call i64 @strtol(i8* nocapture %327, i8** null, i32 10) #2, !llfi_index !421
  %329 = trunc i64 %328 to i32, !llfi_index !422
  call void @_Z15generate_matrixiiiPP24HPC_Sparse_Matrix_STRUCTPPdS3_S3_(i32 %321, i32 %325, i32 %329, %struct.HPC_Sparse_Matrix_STRUCT** %A, double** %x, double** %b, double** %xexact), !llfi_index !423
  br label %331, !llfi_index !424

; <label>:330                                     ; preds = %315
  call void @_Z12read_HPC_rowPcPP24HPC_Sparse_Matrix_STRUCTPPdS4_S4_(i8* %318, %struct.HPC_Sparse_Matrix_STRUCT** %A, double** %x, double** %b, double** %xexact), !llfi_index !425
  br label %331, !llfi_index !426

; <label>:331                                     ; preds = %330, %319
  %nz.0 = phi i32 [ %329, %319 ], [ undef, %330 ], !llfi_index !427
  %ny.0 = phi i32 [ %325, %319 ], [ undef, %330 ], !llfi_index !428
  %nx.0 = phi i32 [ %321, %319 ], [ undef, %330 ], !llfi_index !429
  %332 = bitcast %struct.rusage* %ruse.i to i8*, !llfi_index !430
  call void @llvm.lifetime.start(i64 144, i8* %332) #2, !llfi_index !431
  %333 = call i32 @getrusage(i32 0, %struct.rusage* %ruse.i) #2, !llfi_index !432
  %334 = getelementptr inbounds %struct.rusage* %ruse.i, i64 0, i32 0, i32 0, !llfi_index !433
  %335 = load i64* %334, align 8, !tbaa !434, !llfi_index !437
  %336 = sitofp i64 %335 to double, !llfi_index !438
  %337 = getelementptr inbounds %struct.rusage* %ruse.i, i64 0, i32 0, i32 1, !llfi_index !439
  %338 = load i64* %337, align 8, !tbaa !440, !llfi_index !441
  %339 = sitofp i64 %338 to double, !llfi_index !442
  %340 = fdiv double %339, 1.000000e+06, !llfi_index !443
  %341 = fadd double %336, %340, !llfi_index !444
  call void @llvm.lifetime.end(i64 144, i8* %332) #2, !llfi_index !445
  store i32 0, i32* %niters, align 4, !tbaa !446, !llfi_index !447
  store double 0.000000e+00, double* %normr, align 8, !tbaa !9, !llfi_index !448
  %342 = load %struct.HPC_Sparse_Matrix_STRUCT** %A, align 8, !tbaa !226, !llfi_index !449
  %343 = load double** %b, align 8, !tbaa !226, !llfi_index !450
  %344 = load double** %x, align 8, !tbaa !226, !llfi_index !451
  %345 = getelementptr inbounds [7 x double]* %times, i64 0, i64 0, !llfi_index !452
  %346 = call i32 @_Z5HPCCGP24HPC_Sparse_Matrix_STRUCTPKdPdidRiRdS3_(%struct.HPC_Sparse_Matrix_STRUCT* %342, double* %343, double* %344, i32 150, double 0.000000e+00, i32* %niters, double* %normr, double* %345), !llfi_index !453
  %347 = icmp eq i32 %346, 0, !llfi_index !454
  br i1 %347, label %380, label %348, !llfi_index !455

; <label>:348                                     ; preds = %331
  %349 = call i64 @strlen(i8* getelementptr inbounds ([22 x i8]* @.str7, i64 0, i64 0)) #2, !llfi_index !456
  %350 = call %"class.std::basic_ostream"* @_ZSt16__ostream_insertIcSt11char_traitsIcEERSt13basic_ostreamIT_T0_ES6_PKS3_l(%"class.std::basic_ostream"* @_ZSt4cerr, i8* getelementptr inbounds ([22 x i8]* @.str7, i64 0, i64 0), i64 %349), !llfi_index !457
  %351 = call %"class.std::basic_ostream"* @_ZNSolsEi(%"class.std::basic_ostream"* @_ZSt4cerr, i32 %346), !llfi_index !458
  %352 = call i64 @strlen(i8* getelementptr inbounds ([3 x i8]* @.str8, i64 0, i64 0)) #2, !llfi_index !459
  %353 = call %"class.std::basic_ostream"* @_ZSt16__ostream_insertIcSt11char_traitsIcEERSt13basic_ostreamIT_T0_ES6_PKS3_l(%"class.std::basic_ostream"* %351, i8* getelementptr inbounds ([3 x i8]* @.str8, i64 0, i64 0), i64 %352), !llfi_index !460
  %354 = bitcast %"class.std::basic_ostream"* %351 to i8**, !llfi_index !461
  %355 = load i8** %354, align 8, !tbaa !186, !llfi_index !462
  %356 = getelementptr i8* %355, i64 -24, !llfi_index !463
  %357 = bitcast i8* %356 to i64*, !llfi_index !464
  %358 = load i64* %357, align 8, !llfi_index !465
  %359 = bitcast %"class.std::basic_ostream"* %351 to i8*, !llfi_index !466
  %360 = getelementptr inbounds i8* %359, i64 %358, !llfi_index !467
  %361 = bitcast i8* %360 to %"class.std::basic_ios"*, !llfi_index !468
  %362 = getelementptr inbounds %"class.std::basic_ios"* %361, i64 0, i32 5, !llfi_index !469
  %363 = load %"class.std::ctype"** %362, align 8, !tbaa !195, !llfi_index !470
  %364 = icmp eq %"class.std::ctype"* %363, null, !llfi_index !471
  br i1 %364, label %365, label %_ZSt13__check_facetISt5ctypeIcEERKT_PS3_.exit151, !llfi_index !472

; <label>:365                                     ; preds = %348
  call void @_ZSt16__throw_bad_castv() #14, !llfi_index !473
  unreachable, !llfi_index !474

_ZSt13__check_facetISt5ctypeIcEERKT_PS3_.exit151: ; preds = %348
  %366 = getelementptr inbounds %"class.std::ctype"* %363, i64 0, i32 6, !llfi_index !475
  %367 = load i8* %366, align 1, !tbaa !205, !llfi_index !476
  %368 = icmp eq i8 %367, 0, !llfi_index !477
  br i1 %368, label %372, label %369, !llfi_index !478

; <label>:369                                     ; preds = %_ZSt13__check_facetISt5ctypeIcEERKT_PS3_.exit151
  %370 = getelementptr inbounds %"class.std::ctype"* %363, i64 0, i32 7, i64 10, !llfi_index !479
  %371 = load i8* %370, align 1, !tbaa !211, !llfi_index !480
  br label %_ZNKSt5ctypeIcE5widenEc.exit146, !llfi_index !481

; <label>:372                                     ; preds = %_ZSt13__check_facetISt5ctypeIcEERKT_PS3_.exit151
  call void @_ZNKSt5ctypeIcE13_M_widen_initEv(%"class.std::ctype"* %363), !llfi_index !482
  %373 = bitcast %"class.std::ctype"* %363 to i8 (%"class.std::ctype"*, i8)***, !llfi_index !483
  %374 = load i8 (%"class.std::ctype"*, i8)*** %373, align 8, !tbaa !186, !llfi_index !484
  %375 = getelementptr inbounds i8 (%"class.std::ctype"*, i8)** %374, i64 6, !llfi_index !485
  %376 = load i8 (%"class.std::ctype"*, i8)** %375, align 8, !llfi_index !486
  %377 = call signext i8 %376(%"class.std::ctype"* %363, i8 signext 10), !llfi_index !487
  br label %_ZNKSt5ctypeIcE5widenEc.exit146, !llfi_index !488

_ZNKSt5ctypeIcE5widenEc.exit146:                  ; preds = %372, %369
  %.0.i145 = phi i8 [ %371, %369 ], [ %377, %372 ], !llfi_index !489
  %378 = call %"class.std::basic_ostream"* @_ZNSo3putEc(%"class.std::basic_ostream"* %351, i8 signext %.0.i145), !llfi_index !490
  %379 = call %"class.std::basic_ostream"* @_ZNSo5flushEv(%"class.std::basic_ostream"* %378), !llfi_index !491
  br label %380, !llfi_index !492

; <label>:380                                     ; preds = %_ZNKSt5ctypeIcE5widenEc.exit146, %331
  %381 = bitcast %class.YAML_Doc* %doc to i8*, !llfi_index !493
  call void @llvm.lifetime.start(i64 72, i8* %381) #2, !llfi_index !494
  invoke void @_ZNSsC1EPKcRKSaIcE(%"class.std::basic_string"* %93, i8* getelementptr inbounds ([6 x i8]* @.str9, i64 0, i64 0), %"class.std::allocator"* %94)
          to label %382 unwind label %906, !llfi_index !495

; <label>:382                                     ; preds = %380
  invoke void @_ZNSsC1EPKcRKSaIcE(%"class.std::basic_string"* %95, i8* getelementptr inbounds ([4 x i8]* @.str10, i64 0, i64 0), %"class.std::allocator"* %96)
          to label %383 unwind label %910, !llfi_index !496

; <label>:383                                     ; preds = %382
  invoke void @_ZNSsC1EPKcRKSaIcE(%"class.std::basic_string"* %97, i8* getelementptr inbounds ([1 x i8]* @.str11, i64 0, i64 0), %"class.std::allocator"* %98)
          to label %384 unwind label %914, !llfi_index !497

; <label>:384                                     ; preds = %383
  invoke void @_ZNSsC1EPKcRKSaIcE(%"class.std::basic_string"* %99, i8* getelementptr inbounds ([1 x i8]* @.str11, i64 0, i64 0), %"class.std::allocator"* %100)
          to label %385 unwind label %918, !llfi_index !498

; <label>:385                                     ; preds = %384
  invoke void @_ZN8YAML_DocC1ERKSsS1_S1_S1_(%class.YAML_Doc* %doc, %"class.std::basic_string"* %93, %"class.std::basic_string"* %95, %"class.std::basic_string"* %97, %"class.std::basic_string"* %99)
          to label %386 unwind label %922, !llfi_index !499

; <label>:386                                     ; preds = %385
  %387 = bitcast %"class.std::allocator"* %92 to i8*, !llfi_index !500
  call void @llvm.lifetime.start(i64 1, i8* %387) #2, !llfi_index !501
  %388 = getelementptr inbounds %"class.std::basic_string"* %99, i64 0, i32 0, i32 0, !llfi_index !502
  %389 = load i8** %388, align 8, !tbaa !503, !llfi_index !506
  %390 = getelementptr inbounds i8* %389, i64 -24, !llfi_index !507
  %391 = bitcast i8* %390 to %"struct.std::basic_string<char, std::char_traits<char>, std::allocator<char> >::_Rep"*, !llfi_index !508
  %392 = icmp eq %"struct.std::basic_string<char, std::char_traits<char>, std::allocator<char> >::_Rep"* %391, bitcast ([0 x i64]* @_ZNSs4_Rep20_S_empty_rep_storageE to %"struct.std::basic_string<char, std::char_traits<char>, std::allocator<char> >::_Rep"*), !llfi_index !509
  br i1 %392, label %_ZNSsD1Ev.exit, label %393, !prof !510, !llfi_index !511

; <label>:393                                     ; preds = %386
  %394 = getelementptr inbounds %"struct.std::basic_string<char, std::char_traits<char>, std::allocator<char> >::_Rep"* %391, i64 0, i32 0, i32 2, !llfi_index !512
  br i1 icmp ne (i8* bitcast (i32 (i32*, void (i8*)*)* @__pthread_key_create to i8*), i8* null), label %395, label %400, !llfi_index !513

; <label>:395                                     ; preds = %393
  %396 = bitcast i32* %91 to i8*, !llfi_index !514
  call void @llvm.lifetime.start(i64 4, i8* %396) #2, !llfi_index !515
  %397 = atomicrmw volatile add i32* %394, i32 -1 acq_rel, !llfi_index !516
  store i32 %397, i32* %91, align 4, !llfi_index !517
  %398 = load volatile i32* %91, align 4, !llfi_index !518
  %399 = bitcast i32* %91 to i8*, !llfi_index !519
  call void @llvm.lifetime.end(i64 4, i8* %399) #2, !llfi_index !520
  br label %_ZN9__gnu_cxxL27__exchange_and_add_dispatchEPii176.exit.i.i.i, !llfi_index !521

; <label>:400                                     ; preds = %393
  %401 = load i32* %394, align 4, !tbaa !446, !llfi_index !522
  %402 = add nsw i32 %401, -1, !llfi_index !523
  store i32 %402, i32* %394, align 4, !tbaa !446, !llfi_index !524
  br label %_ZN9__gnu_cxxL27__exchange_and_add_dispatchEPii176.exit.i.i.i, !llfi_index !525

_ZN9__gnu_cxxL27__exchange_and_add_dispatchEPii176.exit.i.i.i: ; preds = %400, %395
  %.0.i.i.i.i = phi i32 [ %398, %395 ], [ %401, %400 ], !llfi_index !526
  %403 = icmp slt i32 %.0.i.i.i.i, 1, !llfi_index !527
  br i1 %403, label %404, label %_ZNSsD1Ev.exit, !llfi_index !528

; <label>:404                                     ; preds = %_ZN9__gnu_cxxL27__exchange_and_add_dispatchEPii176.exit.i.i.i
  call void @_ZNSs4_Rep10_M_destroyERKSaIcE(%"struct.std::basic_string<char, std::char_traits<char>, std::allocator<char> >::_Rep"* %391, %"class.std::allocator"* %92) #2, !llfi_index !529
  br label %_ZNSsD1Ev.exit, !llfi_index !530

_ZNSsD1Ev.exit:                                   ; preds = %404, %_ZN9__gnu_cxxL27__exchange_and_add_dispatchEPii176.exit.i.i.i, %386
  %405 = bitcast %"class.std::allocator"* %92 to i8*, !llfi_index !531
  call void @llvm.lifetime.end(i64 1, i8* %405) #2, !llfi_index !532
  br label %406, !llfi_index !533

; <label>:406                                     ; preds = %_ZNSsD1Ev.exit
  %407 = bitcast %"class.std::allocator"* %90 to i8*, !llfi_index !534
  call void @llvm.lifetime.start(i64 1, i8* %407) #2, !llfi_index !535
  %408 = getelementptr inbounds %"class.std::basic_string"* %97, i64 0, i32 0, i32 0, !llfi_index !536
  %409 = load i8** %408, align 8, !tbaa !503, !llfi_index !537
  %410 = getelementptr inbounds i8* %409, i64 -24, !llfi_index !538
  %411 = bitcast i8* %410 to %"struct.std::basic_string<char, std::char_traits<char>, std::allocator<char> >::_Rep"*, !llfi_index !539
  %412 = icmp eq %"struct.std::basic_string<char, std::char_traits<char>, std::allocator<char> >::_Rep"* %411, bitcast ([0 x i64]* @_ZNSs4_Rep20_S_empty_rep_storageE to %"struct.std::basic_string<char, std::char_traits<char>, std::allocator<char> >::_Rep"*), !llfi_index !540
  br i1 %412, label %_ZNSsD1Ev.exit4, label %413, !prof !510, !llfi_index !541

; <label>:413                                     ; preds = %406
  %414 = getelementptr inbounds %"struct.std::basic_string<char, std::char_traits<char>, std::allocator<char> >::_Rep"* %411, i64 0, i32 0, i32 2, !llfi_index !542
  br i1 icmp ne (i8* bitcast (i32 (i32*, void (i8*)*)* @__pthread_key_create to i8*), i8* null), label %415, label %420, !llfi_index !543

; <label>:415                                     ; preds = %413
  %416 = bitcast i32* %89 to i8*, !llfi_index !544
  call void @llvm.lifetime.start(i64 4, i8* %416) #2, !llfi_index !545
  %417 = atomicrmw volatile add i32* %414, i32 -1 acq_rel, !llfi_index !546
  store i32 %417, i32* %89, align 4, !llfi_index !547
  %418 = load volatile i32* %89, align 4, !llfi_index !548
  %419 = bitcast i32* %89 to i8*, !llfi_index !549
  call void @llvm.lifetime.end(i64 4, i8* %419) #2, !llfi_index !550
  br label %_ZN9__gnu_cxxL27__exchange_and_add_dispatchEPii176.exit.i.i.i3, !llfi_index !551

; <label>:420                                     ; preds = %413
  %421 = load i32* %414, align 4, !tbaa !446, !llfi_index !552
  %422 = add nsw i32 %421, -1, !llfi_index !553
  store i32 %422, i32* %414, align 4, !tbaa !446, !llfi_index !554
  br label %_ZN9__gnu_cxxL27__exchange_and_add_dispatchEPii176.exit.i.i.i3, !llfi_index !555

_ZN9__gnu_cxxL27__exchange_and_add_dispatchEPii176.exit.i.i.i3: ; preds = %420, %415
  %.0.i.i.i.i2 = phi i32 [ %418, %415 ], [ %421, %420 ], !llfi_index !556
  %423 = icmp slt i32 %.0.i.i.i.i2, 1, !llfi_index !557
  br i1 %423, label %424, label %_ZNSsD1Ev.exit4, !llfi_index !558

; <label>:424                                     ; preds = %_ZN9__gnu_cxxL27__exchange_and_add_dispatchEPii176.exit.i.i.i3
  call void @_ZNSs4_Rep10_M_destroyERKSaIcE(%"struct.std::basic_string<char, std::char_traits<char>, std::allocator<char> >::_Rep"* %411, %"class.std::allocator"* %90) #2, !llfi_index !559
  br label %_ZNSsD1Ev.exit4, !llfi_index !560

_ZNSsD1Ev.exit4:                                  ; preds = %424, %_ZN9__gnu_cxxL27__exchange_and_add_dispatchEPii176.exit.i.i.i3, %406
  %425 = bitcast %"class.std::allocator"* %90 to i8*, !llfi_index !561
  call void @llvm.lifetime.end(i64 1, i8* %425) #2, !llfi_index !562
  br label %426, !llfi_index !563

; <label>:426                                     ; preds = %_ZNSsD1Ev.exit4
  %427 = bitcast %"class.std::allocator"* %88 to i8*, !llfi_index !564
  call void @llvm.lifetime.start(i64 1, i8* %427) #2, !llfi_index !565
  %428 = getelementptr inbounds %"class.std::basic_string"* %95, i64 0, i32 0, i32 0, !llfi_index !566
  %429 = load i8** %428, align 8, !tbaa !503, !llfi_index !567
  %430 = getelementptr inbounds i8* %429, i64 -24, !llfi_index !568
  %431 = bitcast i8* %430 to %"struct.std::basic_string<char, std::char_traits<char>, std::allocator<char> >::_Rep"*, !llfi_index !569
  %432 = icmp eq %"struct.std::basic_string<char, std::char_traits<char>, std::allocator<char> >::_Rep"* %431, bitcast ([0 x i64]* @_ZNSs4_Rep20_S_empty_rep_storageE to %"struct.std::basic_string<char, std::char_traits<char>, std::allocator<char> >::_Rep"*), !llfi_index !570
  br i1 %432, label %_ZNSsD1Ev.exit7, label %433, !prof !510, !llfi_index !571

; <label>:433                                     ; preds = %426
  %434 = getelementptr inbounds %"struct.std::basic_string<char, std::char_traits<char>, std::allocator<char> >::_Rep"* %431, i64 0, i32 0, i32 2, !llfi_index !572
  br i1 icmp ne (i8* bitcast (i32 (i32*, void (i8*)*)* @__pthread_key_create to i8*), i8* null), label %435, label %440, !llfi_index !573

; <label>:435                                     ; preds = %433
  %436 = bitcast i32* %87 to i8*, !llfi_index !574
  call void @llvm.lifetime.start(i64 4, i8* %436) #2, !llfi_index !575
  %437 = atomicrmw volatile add i32* %434, i32 -1 acq_rel, !llfi_index !576
  store i32 %437, i32* %87, align 4, !llfi_index !577
  %438 = load volatile i32* %87, align 4, !llfi_index !578
  %439 = bitcast i32* %87 to i8*, !llfi_index !579
  call void @llvm.lifetime.end(i64 4, i8* %439) #2, !llfi_index !580
  br label %_ZN9__gnu_cxxL27__exchange_and_add_dispatchEPii176.exit.i.i.i6, !llfi_index !581

; <label>:440                                     ; preds = %433
  %441 = load i32* %434, align 4, !tbaa !446, !llfi_index !582
  %442 = add nsw i32 %441, -1, !llfi_index !583
  store i32 %442, i32* %434, align 4, !tbaa !446, !llfi_index !584
  br label %_ZN9__gnu_cxxL27__exchange_and_add_dispatchEPii176.exit.i.i.i6, !llfi_index !585

_ZN9__gnu_cxxL27__exchange_and_add_dispatchEPii176.exit.i.i.i6: ; preds = %440, %435
  %.0.i.i.i.i5 = phi i32 [ %438, %435 ], [ %441, %440 ], !llfi_index !586
  %443 = icmp slt i32 %.0.i.i.i.i5, 1, !llfi_index !587
  br i1 %443, label %444, label %_ZNSsD1Ev.exit7, !llfi_index !588

; <label>:444                                     ; preds = %_ZN9__gnu_cxxL27__exchange_and_add_dispatchEPii176.exit.i.i.i6
  call void @_ZNSs4_Rep10_M_destroyERKSaIcE(%"struct.std::basic_string<char, std::char_traits<char>, std::allocator<char> >::_Rep"* %431, %"class.std::allocator"* %88) #2, !llfi_index !589
  br label %_ZNSsD1Ev.exit7, !llfi_index !590

_ZNSsD1Ev.exit7:                                  ; preds = %444, %_ZN9__gnu_cxxL27__exchange_and_add_dispatchEPii176.exit.i.i.i6, %426
  %445 = bitcast %"class.std::allocator"* %88 to i8*, !llfi_index !591
  call void @llvm.lifetime.end(i64 1, i8* %445) #2, !llfi_index !592
  br label %446, !llfi_index !593

; <label>:446                                     ; preds = %_ZNSsD1Ev.exit7
  %447 = bitcast %"class.std::allocator"* %86 to i8*, !llfi_index !594
  call void @llvm.lifetime.start(i64 1, i8* %447) #2, !llfi_index !595
  %448 = getelementptr inbounds %"class.std::basic_string"* %93, i64 0, i32 0, i32 0, !llfi_index !596
  %449 = load i8** %448, align 8, !tbaa !503, !llfi_index !597
  %450 = getelementptr inbounds i8* %449, i64 -24, !llfi_index !598
  %451 = bitcast i8* %450 to %"struct.std::basic_string<char, std::char_traits<char>, std::allocator<char> >::_Rep"*, !llfi_index !599
  %452 = icmp eq %"struct.std::basic_string<char, std::char_traits<char>, std::allocator<char> >::_Rep"* %451, bitcast ([0 x i64]* @_ZNSs4_Rep20_S_empty_rep_storageE to %"struct.std::basic_string<char, std::char_traits<char>, std::allocator<char> >::_Rep"*), !llfi_index !600
  br i1 %452, label %_ZNSsD1Ev.exit10, label %453, !prof !510, !llfi_index !601

; <label>:453                                     ; preds = %446
  %454 = getelementptr inbounds %"struct.std::basic_string<char, std::char_traits<char>, std::allocator<char> >::_Rep"* %451, i64 0, i32 0, i32 2, !llfi_index !602
  br i1 icmp ne (i8* bitcast (i32 (i32*, void (i8*)*)* @__pthread_key_create to i8*), i8* null), label %455, label %460, !llfi_index !603

; <label>:455                                     ; preds = %453
  %456 = bitcast i32* %85 to i8*, !llfi_index !604
  call void @llvm.lifetime.start(i64 4, i8* %456) #2, !llfi_index !605
  %457 = atomicrmw volatile add i32* %454, i32 -1 acq_rel, !llfi_index !606
  store i32 %457, i32* %85, align 4, !llfi_index !607
  %458 = load volatile i32* %85, align 4, !llfi_index !608
  %459 = bitcast i32* %85 to i8*, !llfi_index !609
  call void @llvm.lifetime.end(i64 4, i8* %459) #2, !llfi_index !610
  br label %_ZN9__gnu_cxxL27__exchange_and_add_dispatchEPii176.exit.i.i.i9, !llfi_index !611

; <label>:460                                     ; preds = %453
  %461 = load i32* %454, align 4, !tbaa !446, !llfi_index !612
  %462 = add nsw i32 %461, -1, !llfi_index !613
  store i32 %462, i32* %454, align 4, !tbaa !446, !llfi_index !614
  br label %_ZN9__gnu_cxxL27__exchange_and_add_dispatchEPii176.exit.i.i.i9, !llfi_index !615

_ZN9__gnu_cxxL27__exchange_and_add_dispatchEPii176.exit.i.i.i9: ; preds = %460, %455
  %.0.i.i.i.i8 = phi i32 [ %458, %455 ], [ %461, %460 ], !llfi_index !616
  %463 = icmp slt i32 %.0.i.i.i.i8, 1, !llfi_index !617
  br i1 %463, label %464, label %_ZNSsD1Ev.exit10, !llfi_index !618

; <label>:464                                     ; preds = %_ZN9__gnu_cxxL27__exchange_and_add_dispatchEPii176.exit.i.i.i9
  call void @_ZNSs4_Rep10_M_destroyERKSaIcE(%"struct.std::basic_string<char, std::char_traits<char>, std::allocator<char> >::_Rep"* %451, %"class.std::allocator"* %86) #2, !llfi_index !619
  br label %_ZNSsD1Ev.exit10, !llfi_index !620

_ZNSsD1Ev.exit10:                                 ; preds = %464, %_ZN9__gnu_cxxL27__exchange_and_add_dispatchEPii176.exit.i.i.i9, %446
  %465 = bitcast %"class.std::allocator"* %86 to i8*, !llfi_index !621
  call void @llvm.lifetime.end(i64 1, i8* %465) #2, !llfi_index !622
  br label %466, !llfi_index !623

; <label>:466                                     ; preds = %_ZNSsD1Ev.exit10
  %467 = getelementptr inbounds %class.YAML_Doc* %doc, i64 0, i32 0, !llfi_index !624
  invoke void @_ZNSsC1EPKcRKSaIcE(%"class.std::basic_string"* %101, i8* getelementptr inbounds ([12 x i8]* @.str12, i64 0, i64 0), %"class.std::allocator"* %102)
          to label %468 unwind label %1005, !llfi_index !625

; <label>:468                                     ; preds = %466
  invoke void @_ZNSsC1EPKcRKSaIcE(%"class.std::basic_string"* %103, i8* getelementptr inbounds ([1 x i8]* @.str11, i64 0, i64 0), %"class.std::allocator"* %104)
          to label %469 unwind label %1009, !llfi_index !626

; <label>:469                                     ; preds = %468
  %470 = invoke %class.YAML_Element* @_ZN12YAML_Element3addERKSsS1_(%class.YAML_Element* %467, %"class.std::basic_string"* %101, %"class.std::basic_string"* %103)
          to label %471 unwind label %1013, !llfi_index !627

; <label>:471                                     ; preds = %469
  %472 = bitcast %"class.std::allocator"* %84 to i8*, !llfi_index !628
  call void @llvm.lifetime.start(i64 1, i8* %472) #2, !llfi_index !629
  %473 = getelementptr inbounds %"class.std::basic_string"* %103, i64 0, i32 0, i32 0, !llfi_index !630
  %474 = load i8** %473, align 8, !tbaa !503, !llfi_index !631
  %475 = getelementptr inbounds i8* %474, i64 -24, !llfi_index !632
  %476 = bitcast i8* %475 to %"struct.std::basic_string<char, std::char_traits<char>, std::allocator<char> >::_Rep"*, !llfi_index !633
  %477 = icmp eq %"struct.std::basic_string<char, std::char_traits<char>, std::allocator<char> >::_Rep"* %476, bitcast ([0 x i64]* @_ZNSs4_Rep20_S_empty_rep_storageE to %"struct.std::basic_string<char, std::char_traits<char>, std::allocator<char> >::_Rep"*), !llfi_index !634
  br i1 %477, label %_ZNSsD1Ev.exit13, label %478, !prof !510, !llfi_index !635

; <label>:478                                     ; preds = %471
  %479 = getelementptr inbounds %"struct.std::basic_string<char, std::char_traits<char>, std::allocator<char> >::_Rep"* %476, i64 0, i32 0, i32 2, !llfi_index !636
  br i1 icmp ne (i8* bitcast (i32 (i32*, void (i8*)*)* @__pthread_key_create to i8*), i8* null), label %480, label %485, !llfi_index !637

; <label>:480                                     ; preds = %478
  %481 = bitcast i32* %83 to i8*, !llfi_index !638
  call void @llvm.lifetime.start(i64 4, i8* %481) #2, !llfi_index !639
  %482 = atomicrmw volatile add i32* %479, i32 -1 acq_rel, !llfi_index !640
  store i32 %482, i32* %83, align 4, !llfi_index !641
  %483 = load volatile i32* %83, align 4, !llfi_index !642
  %484 = bitcast i32* %83 to i8*, !llfi_index !643
  call void @llvm.lifetime.end(i64 4, i8* %484) #2, !llfi_index !644
  br label %_ZN9__gnu_cxxL27__exchange_and_add_dispatchEPii176.exit.i.i.i12, !llfi_index !645

; <label>:485                                     ; preds = %478
  %486 = load i32* %479, align 4, !tbaa !446, !llfi_index !646
  %487 = add nsw i32 %486, -1, !llfi_index !647
  store i32 %487, i32* %479, align 4, !tbaa !446, !llfi_index !648
  br label %_ZN9__gnu_cxxL27__exchange_and_add_dispatchEPii176.exit.i.i.i12, !llfi_index !649

_ZN9__gnu_cxxL27__exchange_and_add_dispatchEPii176.exit.i.i.i12: ; preds = %485, %480
  %.0.i.i.i.i11 = phi i32 [ %483, %480 ], [ %486, %485 ], !llfi_index !650
  %488 = icmp slt i32 %.0.i.i.i.i11, 1, !llfi_index !651
  br i1 %488, label %489, label %_ZNSsD1Ev.exit13, !llfi_index !652

; <label>:489                                     ; preds = %_ZN9__gnu_cxxL27__exchange_and_add_dispatchEPii176.exit.i.i.i12
  call void @_ZNSs4_Rep10_M_destroyERKSaIcE(%"struct.std::basic_string<char, std::char_traits<char>, std::allocator<char> >::_Rep"* %476, %"class.std::allocator"* %84) #2, !llfi_index !653
  br label %_ZNSsD1Ev.exit13, !llfi_index !654

_ZNSsD1Ev.exit13:                                 ; preds = %489, %_ZN9__gnu_cxxL27__exchange_and_add_dispatchEPii176.exit.i.i.i12, %471
  %490 = bitcast %"class.std::allocator"* %84 to i8*, !llfi_index !655
  call void @llvm.lifetime.end(i64 1, i8* %490) #2, !llfi_index !656
  br label %491, !llfi_index !657

; <label>:491                                     ; preds = %_ZNSsD1Ev.exit13
  %492 = bitcast %"class.std::allocator"* %82 to i8*, !llfi_index !658
  call void @llvm.lifetime.start(i64 1, i8* %492) #2, !llfi_index !659
  %493 = getelementptr inbounds %"class.std::basic_string"* %101, i64 0, i32 0, i32 0, !llfi_index !660
  %494 = load i8** %493, align 8, !tbaa !503, !llfi_index !661
  %495 = getelementptr inbounds i8* %494, i64 -24, !llfi_index !662
  %496 = bitcast i8* %495 to %"struct.std::basic_string<char, std::char_traits<char>, std::allocator<char> >::_Rep"*, !llfi_index !663
  %497 = icmp eq %"struct.std::basic_string<char, std::char_traits<char>, std::allocator<char> >::_Rep"* %496, bitcast ([0 x i64]* @_ZNSs4_Rep20_S_empty_rep_storageE to %"struct.std::basic_string<char, std::char_traits<char>, std::allocator<char> >::_Rep"*), !llfi_index !664
  br i1 %497, label %_ZNSsD1Ev.exit16, label %498, !prof !510, !llfi_index !665

; <label>:498                                     ; preds = %491
  %499 = getelementptr inbounds %"struct.std::basic_string<char, std::char_traits<char>, std::allocator<char> >::_Rep"* %496, i64 0, i32 0, i32 2, !llfi_index !666
  br i1 icmp ne (i8* bitcast (i32 (i32*, void (i8*)*)* @__pthread_key_create to i8*), i8* null), label %500, label %505, !llfi_index !667

; <label>:500                                     ; preds = %498
  %501 = bitcast i32* %81 to i8*, !llfi_index !668
  call void @llvm.lifetime.start(i64 4, i8* %501) #2, !llfi_index !669
  %502 = atomicrmw volatile add i32* %499, i32 -1 acq_rel, !llfi_index !670
  store i32 %502, i32* %81, align 4, !llfi_index !671
  %503 = load volatile i32* %81, align 4, !llfi_index !672
  %504 = bitcast i32* %81 to i8*, !llfi_index !673
  call void @llvm.lifetime.end(i64 4, i8* %504) #2, !llfi_index !674
  br label %_ZN9__gnu_cxxL27__exchange_and_add_dispatchEPii176.exit.i.i.i15, !llfi_index !675

; <label>:505                                     ; preds = %498
  %506 = load i32* %499, align 4, !tbaa !446, !llfi_index !676
  %507 = add nsw i32 %506, -1, !llfi_index !677
  store i32 %507, i32* %499, align 4, !tbaa !446, !llfi_index !678
  br label %_ZN9__gnu_cxxL27__exchange_and_add_dispatchEPii176.exit.i.i.i15, !llfi_index !679

_ZN9__gnu_cxxL27__exchange_and_add_dispatchEPii176.exit.i.i.i15: ; preds = %505, %500
  %.0.i.i.i.i14 = phi i32 [ %503, %500 ], [ %506, %505 ], !llfi_index !680
  %508 = icmp slt i32 %.0.i.i.i.i14, 1, !llfi_index !681
  br i1 %508, label %509, label %_ZNSsD1Ev.exit16, !llfi_index !682

; <label>:509                                     ; preds = %_ZN9__gnu_cxxL27__exchange_and_add_dispatchEPii176.exit.i.i.i15
  call void @_ZNSs4_Rep10_M_destroyERKSaIcE(%"struct.std::basic_string<char, std::char_traits<char>, std::allocator<char> >::_Rep"* %496, %"class.std::allocator"* %82) #2, !llfi_index !683
  br label %_ZNSsD1Ev.exit16, !llfi_index !684

_ZNSsD1Ev.exit16:                                 ; preds = %509, %_ZN9__gnu_cxxL27__exchange_and_add_dispatchEPii176.exit.i.i.i15, %491
  %510 = bitcast %"class.std::allocator"* %82 to i8*, !llfi_index !685
  call void @llvm.lifetime.end(i64 1, i8* %510) #2, !llfi_index !686
  br label %511, !llfi_index !687

; <label>:511                                     ; preds = %_ZNSsD1Ev.exit16
  invoke void @_ZNSsC1EPKcRKSaIcE(%"class.std::basic_string"* %105, i8* getelementptr inbounds ([12 x i8]* @.str12, i64 0, i64 0), %"class.std::allocator"* %106)
          to label %512 unwind label %1056, !llfi_index !688

; <label>:512                                     ; preds = %511
  %513 = invoke %class.YAML_Element* @_ZN12YAML_Element3getERKSs(%class.YAML_Element* %467, %"class.std::basic_string"* %105)
          to label %514 unwind label %1060, !llfi_index !689

; <label>:514                                     ; preds = %512
  invoke void @_ZNSsC1EPKcRKSaIcE(%"class.std::basic_string"* %107, i8* getelementptr inbounds ([16 x i8]* @.str13, i64 0, i64 0), %"class.std::allocator"* %108)
          to label %515 unwind label %1064, !llfi_index !690

; <label>:515                                     ; preds = %514
  invoke void @_ZNSsC1EPKcRKSaIcE(%"class.std::basic_string"* %109, i8* getelementptr inbounds ([1 x i8]* @.str11, i64 0, i64 0), %"class.std::allocator"* %110)
          to label %516 unwind label %1068, !llfi_index !691

; <label>:516                                     ; preds = %515
  %517 = invoke %class.YAML_Element* @_ZN12YAML_Element3addERKSsS1_(%class.YAML_Element* %513, %"class.std::basic_string"* %107, %"class.std::basic_string"* %109)
          to label %518 unwind label %1072, !llfi_index !692

; <label>:518                                     ; preds = %516
  %519 = bitcast %"class.std::allocator"* %80 to i8*, !llfi_index !693
  call void @llvm.lifetime.start(i64 1, i8* %519) #2, !llfi_index !694
  %520 = getelementptr inbounds %"class.std::basic_string"* %109, i64 0, i32 0, i32 0, !llfi_index !695
  %521 = load i8** %520, align 8, !tbaa !503, !llfi_index !696
  %522 = getelementptr inbounds i8* %521, i64 -24, !llfi_index !697
  %523 = bitcast i8* %522 to %"struct.std::basic_string<char, std::char_traits<char>, std::allocator<char> >::_Rep"*, !llfi_index !698
  %524 = icmp eq %"struct.std::basic_string<char, std::char_traits<char>, std::allocator<char> >::_Rep"* %523, bitcast ([0 x i64]* @_ZNSs4_Rep20_S_empty_rep_storageE to %"struct.std::basic_string<char, std::char_traits<char>, std::allocator<char> >::_Rep"*), !llfi_index !699
  br i1 %524, label %_ZNSsD1Ev.exit19, label %525, !prof !510, !llfi_index !700

; <label>:525                                     ; preds = %518
  %526 = getelementptr inbounds %"struct.std::basic_string<char, std::char_traits<char>, std::allocator<char> >::_Rep"* %523, i64 0, i32 0, i32 2, !llfi_index !701
  br i1 icmp ne (i8* bitcast (i32 (i32*, void (i8*)*)* @__pthread_key_create to i8*), i8* null), label %527, label %532, !llfi_index !702

; <label>:527                                     ; preds = %525
  %528 = bitcast i32* %79 to i8*, !llfi_index !703
  call void @llvm.lifetime.start(i64 4, i8* %528) #2, !llfi_index !704
  %529 = atomicrmw volatile add i32* %526, i32 -1 acq_rel, !llfi_index !705
  store i32 %529, i32* %79, align 4, !llfi_index !706
  %530 = load volatile i32* %79, align 4, !llfi_index !707
  %531 = bitcast i32* %79 to i8*, !llfi_index !708
  call void @llvm.lifetime.end(i64 4, i8* %531) #2, !llfi_index !709
  br label %_ZN9__gnu_cxxL27__exchange_and_add_dispatchEPii176.exit.i.i.i18, !llfi_index !710

; <label>:532                                     ; preds = %525
  %533 = load i32* %526, align 4, !tbaa !446, !llfi_index !711
  %534 = add nsw i32 %533, -1, !llfi_index !712
  store i32 %534, i32* %526, align 4, !tbaa !446, !llfi_index !713
  br label %_ZN9__gnu_cxxL27__exchange_and_add_dispatchEPii176.exit.i.i.i18, !llfi_index !714

_ZN9__gnu_cxxL27__exchange_and_add_dispatchEPii176.exit.i.i.i18: ; preds = %532, %527
  %.0.i.i.i.i17 = phi i32 [ %530, %527 ], [ %533, %532 ], !llfi_index !715
  %535 = icmp slt i32 %.0.i.i.i.i17, 1, !llfi_index !716
  br i1 %535, label %536, label %_ZNSsD1Ev.exit19, !llfi_index !717

; <label>:536                                     ; preds = %_ZN9__gnu_cxxL27__exchange_and_add_dispatchEPii176.exit.i.i.i18
  call void @_ZNSs4_Rep10_M_destroyERKSaIcE(%"struct.std::basic_string<char, std::char_traits<char>, std::allocator<char> >::_Rep"* %523, %"class.std::allocator"* %80) #2, !llfi_index !718
  br label %_ZNSsD1Ev.exit19, !llfi_index !719

_ZNSsD1Ev.exit19:                                 ; preds = %536, %_ZN9__gnu_cxxL27__exchange_and_add_dispatchEPii176.exit.i.i.i18, %518
  %537 = bitcast %"class.std::allocator"* %80 to i8*, !llfi_index !720
  call void @llvm.lifetime.end(i64 1, i8* %537) #2, !llfi_index !721
  br label %538, !llfi_index !722

; <label>:538                                     ; preds = %_ZNSsD1Ev.exit19
  %539 = bitcast %"class.std::allocator"* %78 to i8*, !llfi_index !723
  call void @llvm.lifetime.start(i64 1, i8* %539) #2, !llfi_index !724
  %540 = getelementptr inbounds %"class.std::basic_string"* %107, i64 0, i32 0, i32 0, !llfi_index !725
  %541 = load i8** %540, align 8, !tbaa !503, !llfi_index !726
  %542 = getelementptr inbounds i8* %541, i64 -24, !llfi_index !727
  %543 = bitcast i8* %542 to %"struct.std::basic_string<char, std::char_traits<char>, std::allocator<char> >::_Rep"*, !llfi_index !728
  %544 = icmp eq %"struct.std::basic_string<char, std::char_traits<char>, std::allocator<char> >::_Rep"* %543, bitcast ([0 x i64]* @_ZNSs4_Rep20_S_empty_rep_storageE to %"struct.std::basic_string<char, std::char_traits<char>, std::allocator<char> >::_Rep"*), !llfi_index !729
  br i1 %544, label %_ZNSsD1Ev.exit22, label %545, !prof !510, !llfi_index !730

; <label>:545                                     ; preds = %538
  %546 = getelementptr inbounds %"struct.std::basic_string<char, std::char_traits<char>, std::allocator<char> >::_Rep"* %543, i64 0, i32 0, i32 2, !llfi_index !731
  br i1 icmp ne (i8* bitcast (i32 (i32*, void (i8*)*)* @__pthread_key_create to i8*), i8* null), label %547, label %552, !llfi_index !732

; <label>:547                                     ; preds = %545
  %548 = bitcast i32* %77 to i8*, !llfi_index !733
  call void @llvm.lifetime.start(i64 4, i8* %548) #2, !llfi_index !734
  %549 = atomicrmw volatile add i32* %546, i32 -1 acq_rel, !llfi_index !735
  store i32 %549, i32* %77, align 4, !llfi_index !736
  %550 = load volatile i32* %77, align 4, !llfi_index !737
  %551 = bitcast i32* %77 to i8*, !llfi_index !738
  call void @llvm.lifetime.end(i64 4, i8* %551) #2, !llfi_index !739
  br label %_ZN9__gnu_cxxL27__exchange_and_add_dispatchEPii176.exit.i.i.i21, !llfi_index !740

; <label>:552                                     ; preds = %545
  %553 = load i32* %546, align 4, !tbaa !446, !llfi_index !741
  %554 = add nsw i32 %553, -1, !llfi_index !742
  store i32 %554, i32* %546, align 4, !tbaa !446, !llfi_index !743
  br label %_ZN9__gnu_cxxL27__exchange_and_add_dispatchEPii176.exit.i.i.i21, !llfi_index !744

_ZN9__gnu_cxxL27__exchange_and_add_dispatchEPii176.exit.i.i.i21: ; preds = %552, %547
  %.0.i.i.i.i20 = phi i32 [ %550, %547 ], [ %553, %552 ], !llfi_index !745
  %555 = icmp slt i32 %.0.i.i.i.i20, 1, !llfi_index !746
  br i1 %555, label %556, label %_ZNSsD1Ev.exit22, !llfi_index !747

; <label>:556                                     ; preds = %_ZN9__gnu_cxxL27__exchange_and_add_dispatchEPii176.exit.i.i.i21
  call void @_ZNSs4_Rep10_M_destroyERKSaIcE(%"struct.std::basic_string<char, std::char_traits<char>, std::allocator<char> >::_Rep"* %543, %"class.std::allocator"* %78) #2, !llfi_index !748
  br label %_ZNSsD1Ev.exit22, !llfi_index !749

_ZNSsD1Ev.exit22:                                 ; preds = %556, %_ZN9__gnu_cxxL27__exchange_and_add_dispatchEPii176.exit.i.i.i21, %538
  %557 = bitcast %"class.std::allocator"* %78 to i8*, !llfi_index !750
  call void @llvm.lifetime.end(i64 1, i8* %557) #2, !llfi_index !751
  br label %558, !llfi_index !752

; <label>:558                                     ; preds = %_ZNSsD1Ev.exit22
  %559 = bitcast %"class.std::allocator"* %76 to i8*, !llfi_index !753
  call void @llvm.lifetime.start(i64 1, i8* %559) #2, !llfi_index !754
  %560 = getelementptr inbounds %"class.std::basic_string"* %105, i64 0, i32 0, i32 0, !llfi_index !755
  %561 = load i8** %560, align 8, !tbaa !503, !llfi_index !756
  %562 = getelementptr inbounds i8* %561, i64 -24, !llfi_index !757
  %563 = bitcast i8* %562 to %"struct.std::basic_string<char, std::char_traits<char>, std::allocator<char> >::_Rep"*, !llfi_index !758
  %564 = icmp eq %"struct.std::basic_string<char, std::char_traits<char>, std::allocator<char> >::_Rep"* %563, bitcast ([0 x i64]* @_ZNSs4_Rep20_S_empty_rep_storageE to %"struct.std::basic_string<char, std::char_traits<char>, std::allocator<char> >::_Rep"*), !llfi_index !759
  br i1 %564, label %_ZNSsD1Ev.exit25, label %565, !prof !510, !llfi_index !760

; <label>:565                                     ; preds = %558
  %566 = getelementptr inbounds %"struct.std::basic_string<char, std::char_traits<char>, std::allocator<char> >::_Rep"* %563, i64 0, i32 0, i32 2, !llfi_index !761
  br i1 icmp ne (i8* bitcast (i32 (i32*, void (i8*)*)* @__pthread_key_create to i8*), i8* null), label %567, label %572, !llfi_index !762

; <label>:567                                     ; preds = %565
  %568 = bitcast i32* %75 to i8*, !llfi_index !763
  call void @llvm.lifetime.start(i64 4, i8* %568) #2, !llfi_index !764
  %569 = atomicrmw volatile add i32* %566, i32 -1 acq_rel, !llfi_index !765
  store i32 %569, i32* %75, align 4, !llfi_index !766
  %570 = load volatile i32* %75, align 4, !llfi_index !767
  %571 = bitcast i32* %75 to i8*, !llfi_index !768
  call void @llvm.lifetime.end(i64 4, i8* %571) #2, !llfi_index !769
  br label %_ZN9__gnu_cxxL27__exchange_and_add_dispatchEPii176.exit.i.i.i24, !llfi_index !770

; <label>:572                                     ; preds = %565
  %573 = load i32* %566, align 4, !tbaa !446, !llfi_index !771
  %574 = add nsw i32 %573, -1, !llfi_index !772
  store i32 %574, i32* %566, align 4, !tbaa !446, !llfi_index !773
  br label %_ZN9__gnu_cxxL27__exchange_and_add_dispatchEPii176.exit.i.i.i24, !llfi_index !774

_ZN9__gnu_cxxL27__exchange_and_add_dispatchEPii176.exit.i.i.i24: ; preds = %572, %567
  %.0.i.i.i.i23 = phi i32 [ %570, %567 ], [ %573, %572 ], !llfi_index !775
  %575 = icmp slt i32 %.0.i.i.i.i23, 1, !llfi_index !776
  br i1 %575, label %576, label %_ZNSsD1Ev.exit25, !llfi_index !777

; <label>:576                                     ; preds = %_ZN9__gnu_cxxL27__exchange_and_add_dispatchEPii176.exit.i.i.i24
  call void @_ZNSs4_Rep10_M_destroyERKSaIcE(%"struct.std::basic_string<char, std::char_traits<char>, std::allocator<char> >::_Rep"* %563, %"class.std::allocator"* %76) #2, !llfi_index !778
  br label %_ZNSsD1Ev.exit25, !llfi_index !779

_ZNSsD1Ev.exit25:                                 ; preds = %576, %_ZN9__gnu_cxxL27__exchange_and_add_dispatchEPii176.exit.i.i.i24, %558
  %577 = bitcast %"class.std::allocator"* %76 to i8*, !llfi_index !780
  call void @llvm.lifetime.end(i64 1, i8* %577) #2, !llfi_index !781
  br label %578, !llfi_index !782

; <label>:578                                     ; preds = %_ZNSsD1Ev.exit25
  invoke void @_ZNSsC1EPKcRKSaIcE(%"class.std::basic_string"* %111, i8* getelementptr inbounds ([12 x i8]* @.str12, i64 0, i64 0), %"class.std::allocator"* %112)
          to label %579 unwind label %1135, !llfi_index !783

; <label>:579                                     ; preds = %578
  %580 = invoke %class.YAML_Element* @_ZN12YAML_Element3getERKSs(%class.YAML_Element* %467, %"class.std::basic_string"* %111)
          to label %581 unwind label %1139, !llfi_index !784

; <label>:581                                     ; preds = %579
  invoke void @_ZNSsC1EPKcRKSaIcE(%"class.std::basic_string"* %113, i8* getelementptr inbounds ([19 x i8]* @.str14, i64 0, i64 0), %"class.std::allocator"* %114)
          to label %582 unwind label %1143, !llfi_index !785

; <label>:582                                     ; preds = %581
  invoke void @_ZNSsC1EPKcRKSaIcE(%"class.std::basic_string"* %115, i8* getelementptr inbounds ([1 x i8]* @.str11, i64 0, i64 0), %"class.std::allocator"* %116)
          to label %583 unwind label %1147, !llfi_index !786

; <label>:583                                     ; preds = %582
  %584 = invoke %class.YAML_Element* @_ZN12YAML_Element3addERKSsS1_(%class.YAML_Element* %580, %"class.std::basic_string"* %113, %"class.std::basic_string"* %115)
          to label %585 unwind label %1151, !llfi_index !787

; <label>:585                                     ; preds = %583
  %586 = bitcast %"class.std::allocator"* %74 to i8*, !llfi_index !788
  call void @llvm.lifetime.start(i64 1, i8* %586) #2, !llfi_index !789
  %587 = getelementptr inbounds %"class.std::basic_string"* %115, i64 0, i32 0, i32 0, !llfi_index !790
  %588 = load i8** %587, align 8, !tbaa !503, !llfi_index !791
  %589 = getelementptr inbounds i8* %588, i64 -24, !llfi_index !792
  %590 = bitcast i8* %589 to %"struct.std::basic_string<char, std::char_traits<char>, std::allocator<char> >::_Rep"*, !llfi_index !793
  %591 = icmp eq %"struct.std::basic_string<char, std::char_traits<char>, std::allocator<char> >::_Rep"* %590, bitcast ([0 x i64]* @_ZNSs4_Rep20_S_empty_rep_storageE to %"struct.std::basic_string<char, std::char_traits<char>, std::allocator<char> >::_Rep"*), !llfi_index !794
  br i1 %591, label %_ZNSsD1Ev.exit28, label %592, !prof !510, !llfi_index !795

; <label>:592                                     ; preds = %585
  %593 = getelementptr inbounds %"struct.std::basic_string<char, std::char_traits<char>, std::allocator<char> >::_Rep"* %590, i64 0, i32 0, i32 2, !llfi_index !796
  br i1 icmp ne (i8* bitcast (i32 (i32*, void (i8*)*)* @__pthread_key_create to i8*), i8* null), label %594, label %599, !llfi_index !797

; <label>:594                                     ; preds = %592
  %595 = bitcast i32* %73 to i8*, !llfi_index !798
  call void @llvm.lifetime.start(i64 4, i8* %595) #2, !llfi_index !799
  %596 = atomicrmw volatile add i32* %593, i32 -1 acq_rel, !llfi_index !800
  store i32 %596, i32* %73, align 4, !llfi_index !801
  %597 = load volatile i32* %73, align 4, !llfi_index !802
  %598 = bitcast i32* %73 to i8*, !llfi_index !803
  call void @llvm.lifetime.end(i64 4, i8* %598) #2, !llfi_index !804
  br label %_ZN9__gnu_cxxL27__exchange_and_add_dispatchEPii176.exit.i.i.i27, !llfi_index !805

; <label>:599                                     ; preds = %592
  %600 = load i32* %593, align 4, !tbaa !446, !llfi_index !806
  %601 = add nsw i32 %600, -1, !llfi_index !807
  store i32 %601, i32* %593, align 4, !tbaa !446, !llfi_index !808
  br label %_ZN9__gnu_cxxL27__exchange_and_add_dispatchEPii176.exit.i.i.i27, !llfi_index !809

_ZN9__gnu_cxxL27__exchange_and_add_dispatchEPii176.exit.i.i.i27: ; preds = %599, %594
  %.0.i.i.i.i26 = phi i32 [ %597, %594 ], [ %600, %599 ], !llfi_index !810
  %602 = icmp slt i32 %.0.i.i.i.i26, 1, !llfi_index !811
  br i1 %602, label %603, label %_ZNSsD1Ev.exit28, !llfi_index !812

; <label>:603                                     ; preds = %_ZN9__gnu_cxxL27__exchange_and_add_dispatchEPii176.exit.i.i.i27
  call void @_ZNSs4_Rep10_M_destroyERKSaIcE(%"struct.std::basic_string<char, std::char_traits<char>, std::allocator<char> >::_Rep"* %590, %"class.std::allocator"* %74) #2, !llfi_index !813
  br label %_ZNSsD1Ev.exit28, !llfi_index !814

_ZNSsD1Ev.exit28:                                 ; preds = %603, %_ZN9__gnu_cxxL27__exchange_and_add_dispatchEPii176.exit.i.i.i27, %585
  %604 = bitcast %"class.std::allocator"* %74 to i8*, !llfi_index !815
  call void @llvm.lifetime.end(i64 1, i8* %604) #2, !llfi_index !816
  br label %605, !llfi_index !817

; <label>:605                                     ; preds = %_ZNSsD1Ev.exit28
  %606 = bitcast %"class.std::allocator"* %72 to i8*, !llfi_index !818
  call void @llvm.lifetime.start(i64 1, i8* %606) #2, !llfi_index !819
  %607 = getelementptr inbounds %"class.std::basic_string"* %113, i64 0, i32 0, i32 0, !llfi_index !820
  %608 = load i8** %607, align 8, !tbaa !503, !llfi_index !821
  %609 = getelementptr inbounds i8* %608, i64 -24, !llfi_index !822
  %610 = bitcast i8* %609 to %"struct.std::basic_string<char, std::char_traits<char>, std::allocator<char> >::_Rep"*, !llfi_index !823
  %611 = icmp eq %"struct.std::basic_string<char, std::char_traits<char>, std::allocator<char> >::_Rep"* %610, bitcast ([0 x i64]* @_ZNSs4_Rep20_S_empty_rep_storageE to %"struct.std::basic_string<char, std::char_traits<char>, std::allocator<char> >::_Rep"*), !llfi_index !824
  br i1 %611, label %_ZNSsD1Ev.exit31, label %612, !prof !510, !llfi_index !825

; <label>:612                                     ; preds = %605
  %613 = getelementptr inbounds %"struct.std::basic_string<char, std::char_traits<char>, std::allocator<char> >::_Rep"* %610, i64 0, i32 0, i32 2, !llfi_index !826
  br i1 icmp ne (i8* bitcast (i32 (i32*, void (i8*)*)* @__pthread_key_create to i8*), i8* null), label %614, label %619, !llfi_index !827

; <label>:614                                     ; preds = %612
  %615 = bitcast i32* %71 to i8*, !llfi_index !828
  call void @llvm.lifetime.start(i64 4, i8* %615) #2, !llfi_index !829
  %616 = atomicrmw volatile add i32* %613, i32 -1 acq_rel, !llfi_index !830
  store i32 %616, i32* %71, align 4, !llfi_index !831
  %617 = load volatile i32* %71, align 4, !llfi_index !832
  %618 = bitcast i32* %71 to i8*, !llfi_index !833
  call void @llvm.lifetime.end(i64 4, i8* %618) #2, !llfi_index !834
  br label %_ZN9__gnu_cxxL27__exchange_and_add_dispatchEPii176.exit.i.i.i30, !llfi_index !835

; <label>:619                                     ; preds = %612
  %620 = load i32* %613, align 4, !tbaa !446, !llfi_index !836
  %621 = add nsw i32 %620, -1, !llfi_index !837
  store i32 %621, i32* %613, align 4, !tbaa !446, !llfi_index !838
  br label %_ZN9__gnu_cxxL27__exchange_and_add_dispatchEPii176.exit.i.i.i30, !llfi_index !839

_ZN9__gnu_cxxL27__exchange_and_add_dispatchEPii176.exit.i.i.i30: ; preds = %619, %614
  %.0.i.i.i.i29 = phi i32 [ %617, %614 ], [ %620, %619 ], !llfi_index !840
  %622 = icmp slt i32 %.0.i.i.i.i29, 1, !llfi_index !841
  br i1 %622, label %623, label %_ZNSsD1Ev.exit31, !llfi_index !842

; <label>:623                                     ; preds = %_ZN9__gnu_cxxL27__exchange_and_add_dispatchEPii176.exit.i.i.i30
  call void @_ZNSs4_Rep10_M_destroyERKSaIcE(%"struct.std::basic_string<char, std::char_traits<char>, std::allocator<char> >::_Rep"* %610, %"class.std::allocator"* %72) #2, !llfi_index !843
  br label %_ZNSsD1Ev.exit31, !llfi_index !844

_ZNSsD1Ev.exit31:                                 ; preds = %623, %_ZN9__gnu_cxxL27__exchange_and_add_dispatchEPii176.exit.i.i.i30, %605
  %624 = bitcast %"class.std::allocator"* %72 to i8*, !llfi_index !845
  call void @llvm.lifetime.end(i64 1, i8* %624) #2, !llfi_index !846
  br label %625, !llfi_index !847

; <label>:625                                     ; preds = %_ZNSsD1Ev.exit31
  %626 = bitcast %"class.std::allocator"* %70 to i8*, !llfi_index !848
  call void @llvm.lifetime.start(i64 1, i8* %626) #2, !llfi_index !849
  %627 = getelementptr inbounds %"class.std::basic_string"* %111, i64 0, i32 0, i32 0, !llfi_index !850
  %628 = load i8** %627, align 8, !tbaa !503, !llfi_index !851
  %629 = getelementptr inbounds i8* %628, i64 -24, !llfi_index !852
  %630 = bitcast i8* %629 to %"struct.std::basic_string<char, std::char_traits<char>, std::allocator<char> >::_Rep"*, !llfi_index !853
  %631 = icmp eq %"struct.std::basic_string<char, std::char_traits<char>, std::allocator<char> >::_Rep"* %630, bitcast ([0 x i64]* @_ZNSs4_Rep20_S_empty_rep_storageE to %"struct.std::basic_string<char, std::char_traits<char>, std::allocator<char> >::_Rep"*), !llfi_index !854
  br i1 %631, label %_ZNSsD1Ev.exit34, label %632, !prof !510, !llfi_index !855

; <label>:632                                     ; preds = %625
  %633 = getelementptr inbounds %"struct.std::basic_string<char, std::char_traits<char>, std::allocator<char> >::_Rep"* %630, i64 0, i32 0, i32 2, !llfi_index !856
  br i1 icmp ne (i8* bitcast (i32 (i32*, void (i8*)*)* @__pthread_key_create to i8*), i8* null), label %634, label %639, !llfi_index !857

; <label>:634                                     ; preds = %632
  %635 = bitcast i32* %69 to i8*, !llfi_index !858
  call void @llvm.lifetime.start(i64 4, i8* %635) #2, !llfi_index !859
  %636 = atomicrmw volatile add i32* %633, i32 -1 acq_rel, !llfi_index !860
  store i32 %636, i32* %69, align 4, !llfi_index !861
  %637 = load volatile i32* %69, align 4, !llfi_index !862
  %638 = bitcast i32* %69 to i8*, !llfi_index !863
  call void @llvm.lifetime.end(i64 4, i8* %638) #2, !llfi_index !864
  br label %_ZN9__gnu_cxxL27__exchange_and_add_dispatchEPii176.exit.i.i.i33, !llfi_index !865

; <label>:639                                     ; preds = %632
  %640 = load i32* %633, align 4, !tbaa !446, !llfi_index !866
  %641 = add nsw i32 %640, -1, !llfi_index !867
  store i32 %641, i32* %633, align 4, !tbaa !446, !llfi_index !868
  br label %_ZN9__gnu_cxxL27__exchange_and_add_dispatchEPii176.exit.i.i.i33, !llfi_index !869

_ZN9__gnu_cxxL27__exchange_and_add_dispatchEPii176.exit.i.i.i33: ; preds = %639, %634
  %.0.i.i.i.i32 = phi i32 [ %637, %634 ], [ %640, %639 ], !llfi_index !870
  %642 = icmp slt i32 %.0.i.i.i.i32, 1, !llfi_index !871
  br i1 %642, label %643, label %_ZNSsD1Ev.exit34, !llfi_index !872

; <label>:643                                     ; preds = %_ZN9__gnu_cxxL27__exchange_and_add_dispatchEPii176.exit.i.i.i33
  call void @_ZNSs4_Rep10_M_destroyERKSaIcE(%"struct.std::basic_string<char, std::char_traits<char>, std::allocator<char> >::_Rep"* %630, %"class.std::allocator"* %70) #2, !llfi_index !873
  br label %_ZNSsD1Ev.exit34, !llfi_index !874

_ZNSsD1Ev.exit34:                                 ; preds = %643, %_ZN9__gnu_cxxL27__exchange_and_add_dispatchEPii176.exit.i.i.i33, %625
  %644 = bitcast %"class.std::allocator"* %70 to i8*, !llfi_index !875
  call void @llvm.lifetime.end(i64 1, i8* %644) #2, !llfi_index !876
  br label %645, !llfi_index !877

; <label>:645                                     ; preds = %_ZNSsD1Ev.exit34
  invoke void @_ZNSsC1EPKcRKSaIcE(%"class.std::basic_string"* %117, i8* getelementptr inbounds ([11 x i8]* @.str15, i64 0, i64 0), %"class.std::allocator"* %118)
          to label %646 unwind label %1214, !llfi_index !878

; <label>:646                                     ; preds = %645
  invoke void @_ZNSsC1EPKcRKSaIcE(%"class.std::basic_string"* %119, i8* getelementptr inbounds ([1 x i8]* @.str11, i64 0, i64 0), %"class.std::allocator"* %120)
          to label %647 unwind label %1218, !llfi_index !879

; <label>:647                                     ; preds = %646
  %648 = invoke %class.YAML_Element* @_ZN12YAML_Element3addERKSsS1_(%class.YAML_Element* %467, %"class.std::basic_string"* %117, %"class.std::basic_string"* %119)
          to label %649 unwind label %1222, !llfi_index !880

; <label>:649                                     ; preds = %647
  %650 = bitcast %"class.std::allocator"* %68 to i8*, !llfi_index !881
  call void @llvm.lifetime.start(i64 1, i8* %650) #2, !llfi_index !882
  %651 = getelementptr inbounds %"class.std::basic_string"* %119, i64 0, i32 0, i32 0, !llfi_index !883
  %652 = load i8** %651, align 8, !tbaa !503, !llfi_index !884
  %653 = getelementptr inbounds i8* %652, i64 -24, !llfi_index !885
  %654 = bitcast i8* %653 to %"struct.std::basic_string<char, std::char_traits<char>, std::allocator<char> >::_Rep"*, !llfi_index !886
  %655 = icmp eq %"struct.std::basic_string<char, std::char_traits<char>, std::allocator<char> >::_Rep"* %654, bitcast ([0 x i64]* @_ZNSs4_Rep20_S_empty_rep_storageE to %"struct.std::basic_string<char, std::char_traits<char>, std::allocator<char> >::_Rep"*), !llfi_index !887
  br i1 %655, label %_ZNSsD1Ev.exit37, label %656, !prof !510, !llfi_index !888

; <label>:656                                     ; preds = %649
  %657 = getelementptr inbounds %"struct.std::basic_string<char, std::char_traits<char>, std::allocator<char> >::_Rep"* %654, i64 0, i32 0, i32 2, !llfi_index !889
  br i1 icmp ne (i8* bitcast (i32 (i32*, void (i8*)*)* @__pthread_key_create to i8*), i8* null), label %658, label %663, !llfi_index !890

; <label>:658                                     ; preds = %656
  %659 = bitcast i32* %67 to i8*, !llfi_index !891
  call void @llvm.lifetime.start(i64 4, i8* %659) #2, !llfi_index !892
  %660 = atomicrmw volatile add i32* %657, i32 -1 acq_rel, !llfi_index !893
  store i32 %660, i32* %67, align 4, !llfi_index !894
  %661 = load volatile i32* %67, align 4, !llfi_index !895
  %662 = bitcast i32* %67 to i8*, !llfi_index !896
  call void @llvm.lifetime.end(i64 4, i8* %662) #2, !llfi_index !897
  br label %_ZN9__gnu_cxxL27__exchange_and_add_dispatchEPii176.exit.i.i.i36, !llfi_index !898

; <label>:663                                     ; preds = %656
  %664 = load i32* %657, align 4, !tbaa !446, !llfi_index !899
  %665 = add nsw i32 %664, -1, !llfi_index !900
  store i32 %665, i32* %657, align 4, !tbaa !446, !llfi_index !901
  br label %_ZN9__gnu_cxxL27__exchange_and_add_dispatchEPii176.exit.i.i.i36, !llfi_index !902

_ZN9__gnu_cxxL27__exchange_and_add_dispatchEPii176.exit.i.i.i36: ; preds = %663, %658
  %.0.i.i.i.i35 = phi i32 [ %661, %658 ], [ %664, %663 ], !llfi_index !903
  %666 = icmp slt i32 %.0.i.i.i.i35, 1, !llfi_index !904
  br i1 %666, label %667, label %_ZNSsD1Ev.exit37, !llfi_index !905

; <label>:667                                     ; preds = %_ZN9__gnu_cxxL27__exchange_and_add_dispatchEPii176.exit.i.i.i36
  call void @_ZNSs4_Rep10_M_destroyERKSaIcE(%"struct.std::basic_string<char, std::char_traits<char>, std::allocator<char> >::_Rep"* %654, %"class.std::allocator"* %68) #2, !llfi_index !906
  br label %_ZNSsD1Ev.exit37, !llfi_index !907

_ZNSsD1Ev.exit37:                                 ; preds = %667, %_ZN9__gnu_cxxL27__exchange_and_add_dispatchEPii176.exit.i.i.i36, %649
  %668 = bitcast %"class.std::allocator"* %68 to i8*, !llfi_index !908
  call void @llvm.lifetime.end(i64 1, i8* %668) #2, !llfi_index !909
  br label %669, !llfi_index !910

; <label>:669                                     ; preds = %_ZNSsD1Ev.exit37
  %670 = bitcast %"class.std::allocator"* %66 to i8*, !llfi_index !911
  call void @llvm.lifetime.start(i64 1, i8* %670) #2, !llfi_index !912
  %671 = getelementptr inbounds %"class.std::basic_string"* %117, i64 0, i32 0, i32 0, !llfi_index !913
  %672 = load i8** %671, align 8, !tbaa !503, !llfi_index !914
  %673 = getelementptr inbounds i8* %672, i64 -24, !llfi_index !915
  %674 = bitcast i8* %673 to %"struct.std::basic_string<char, std::char_traits<char>, std::allocator<char> >::_Rep"*, !llfi_index !916
  %675 = icmp eq %"struct.std::basic_string<char, std::char_traits<char>, std::allocator<char> >::_Rep"* %674, bitcast ([0 x i64]* @_ZNSs4_Rep20_S_empty_rep_storageE to %"struct.std::basic_string<char, std::char_traits<char>, std::allocator<char> >::_Rep"*), !llfi_index !917
  br i1 %675, label %_ZNSsD1Ev.exit40, label %676, !prof !510, !llfi_index !918

; <label>:676                                     ; preds = %669
  %677 = getelementptr inbounds %"struct.std::basic_string<char, std::char_traits<char>, std::allocator<char> >::_Rep"* %674, i64 0, i32 0, i32 2, !llfi_index !919
  br i1 icmp ne (i8* bitcast (i32 (i32*, void (i8*)*)* @__pthread_key_create to i8*), i8* null), label %678, label %683, !llfi_index !920

; <label>:678                                     ; preds = %676
  %679 = bitcast i32* %65 to i8*, !llfi_index !921
  call void @llvm.lifetime.start(i64 4, i8* %679) #2, !llfi_index !922
  %680 = atomicrmw volatile add i32* %677, i32 -1 acq_rel, !llfi_index !923
  store i32 %680, i32* %65, align 4, !llfi_index !924
  %681 = load volatile i32* %65, align 4, !llfi_index !925
  %682 = bitcast i32* %65 to i8*, !llfi_index !926
  call void @llvm.lifetime.end(i64 4, i8* %682) #2, !llfi_index !927
  br label %_ZN9__gnu_cxxL27__exchange_and_add_dispatchEPii176.exit.i.i.i39, !llfi_index !928

; <label>:683                                     ; preds = %676
  %684 = load i32* %677, align 4, !tbaa !446, !llfi_index !929
  %685 = add nsw i32 %684, -1, !llfi_index !930
  store i32 %685, i32* %677, align 4, !tbaa !446, !llfi_index !931
  br label %_ZN9__gnu_cxxL27__exchange_and_add_dispatchEPii176.exit.i.i.i39, !llfi_index !932

_ZN9__gnu_cxxL27__exchange_and_add_dispatchEPii176.exit.i.i.i39: ; preds = %683, %678
  %.0.i.i.i.i38 = phi i32 [ %681, %678 ], [ %684, %683 ], !llfi_index !933
  %686 = icmp slt i32 %.0.i.i.i.i38, 1, !llfi_index !934
  br i1 %686, label %687, label %_ZNSsD1Ev.exit40, !llfi_index !935

; <label>:687                                     ; preds = %_ZN9__gnu_cxxL27__exchange_and_add_dispatchEPii176.exit.i.i.i39
  call void @_ZNSs4_Rep10_M_destroyERKSaIcE(%"struct.std::basic_string<char, std::char_traits<char>, std::allocator<char> >::_Rep"* %674, %"class.std::allocator"* %66) #2, !llfi_index !936
  br label %_ZNSsD1Ev.exit40, !llfi_index !937

_ZNSsD1Ev.exit40:                                 ; preds = %687, %_ZN9__gnu_cxxL27__exchange_and_add_dispatchEPii176.exit.i.i.i39, %669
  %688 = bitcast %"class.std::allocator"* %66 to i8*, !llfi_index !938
  call void @llvm.lifetime.end(i64 1, i8* %688) #2, !llfi_index !939
  br label %689, !llfi_index !940

; <label>:689                                     ; preds = %_ZNSsD1Ev.exit40
  invoke void @_ZNSsC1EPKcRKSaIcE(%"class.std::basic_string"* %121, i8* getelementptr inbounds ([11 x i8]* @.str15, i64 0, i64 0), %"class.std::allocator"* %122)
          to label %690 unwind label %1265, !llfi_index !941

; <label>:690                                     ; preds = %689
  %691 = invoke %class.YAML_Element* @_ZN12YAML_Element3getERKSs(%class.YAML_Element* %467, %"class.std::basic_string"* %121)
          to label %692 unwind label %1269, !llfi_index !942

; <label>:692                                     ; preds = %690
  invoke void @_ZNSsC1EPKcRKSaIcE(%"class.std::basic_string"* %123, i8* getelementptr inbounds ([3 x i8]* @.str16, i64 0, i64 0), %"class.std::allocator"* %124)
          to label %693 unwind label %1273, !llfi_index !943

; <label>:693                                     ; preds = %692
  %694 = invoke %class.YAML_Element* @_ZN12YAML_Element3addERKSsi(%class.YAML_Element* %691, %"class.std::basic_string"* %123, i32 %nx.0)
          to label %695 unwind label %1277, !llfi_index !944

; <label>:695                                     ; preds = %693
  %696 = bitcast %"class.std::allocator"* %64 to i8*, !llfi_index !945
  call void @llvm.lifetime.start(i64 1, i8* %696) #2, !llfi_index !946
  %697 = getelementptr inbounds %"class.std::basic_string"* %123, i64 0, i32 0, i32 0, !llfi_index !947
  %698 = load i8** %697, align 8, !tbaa !503, !llfi_index !948
  %699 = getelementptr inbounds i8* %698, i64 -24, !llfi_index !949
  %700 = bitcast i8* %699 to %"struct.std::basic_string<char, std::char_traits<char>, std::allocator<char> >::_Rep"*, !llfi_index !950
  %701 = icmp eq %"struct.std::basic_string<char, std::char_traits<char>, std::allocator<char> >::_Rep"* %700, bitcast ([0 x i64]* @_ZNSs4_Rep20_S_empty_rep_storageE to %"struct.std::basic_string<char, std::char_traits<char>, std::allocator<char> >::_Rep"*), !llfi_index !951
  br i1 %701, label %_ZNSsD1Ev.exit43, label %702, !prof !510, !llfi_index !952

; <label>:702                                     ; preds = %695
  %703 = getelementptr inbounds %"struct.std::basic_string<char, std::char_traits<char>, std::allocator<char> >::_Rep"* %700, i64 0, i32 0, i32 2, !llfi_index !953
  br i1 icmp ne (i8* bitcast (i32 (i32*, void (i8*)*)* @__pthread_key_create to i8*), i8* null), label %704, label %709, !llfi_index !954

; <label>:704                                     ; preds = %702
  %705 = bitcast i32* %63 to i8*, !llfi_index !955
  call void @llvm.lifetime.start(i64 4, i8* %705) #2, !llfi_index !956
  %706 = atomicrmw volatile add i32* %703, i32 -1 acq_rel, !llfi_index !957
  store i32 %706, i32* %63, align 4, !llfi_index !958
  %707 = load volatile i32* %63, align 4, !llfi_index !959
  %708 = bitcast i32* %63 to i8*, !llfi_index !960
  call void @llvm.lifetime.end(i64 4, i8* %708) #2, !llfi_index !961
  br label %_ZN9__gnu_cxxL27__exchange_and_add_dispatchEPii176.exit.i.i.i42, !llfi_index !962

; <label>:709                                     ; preds = %702
  %710 = load i32* %703, align 4, !tbaa !446, !llfi_index !963
  %711 = add nsw i32 %710, -1, !llfi_index !964
  store i32 %711, i32* %703, align 4, !tbaa !446, !llfi_index !965
  br label %_ZN9__gnu_cxxL27__exchange_and_add_dispatchEPii176.exit.i.i.i42, !llfi_index !966

_ZN9__gnu_cxxL27__exchange_and_add_dispatchEPii176.exit.i.i.i42: ; preds = %709, %704
  %.0.i.i.i.i41 = phi i32 [ %707, %704 ], [ %710, %709 ], !llfi_index !967
  %712 = icmp slt i32 %.0.i.i.i.i41, 1, !llfi_index !968
  br i1 %712, label %713, label %_ZNSsD1Ev.exit43, !llfi_index !969

; <label>:713                                     ; preds = %_ZN9__gnu_cxxL27__exchange_and_add_dispatchEPii176.exit.i.i.i42
  call void @_ZNSs4_Rep10_M_destroyERKSaIcE(%"struct.std::basic_string<char, std::char_traits<char>, std::allocator<char> >::_Rep"* %700, %"class.std::allocator"* %64) #2, !llfi_index !970
  br label %_ZNSsD1Ev.exit43, !llfi_index !971

_ZNSsD1Ev.exit43:                                 ; preds = %713, %_ZN9__gnu_cxxL27__exchange_and_add_dispatchEPii176.exit.i.i.i42, %695
  %714 = bitcast %"class.std::allocator"* %64 to i8*, !llfi_index !972
  call void @llvm.lifetime.end(i64 1, i8* %714) #2, !llfi_index !973
  br label %715, !llfi_index !974

; <label>:715                                     ; preds = %_ZNSsD1Ev.exit43
  %716 = bitcast %"class.std::allocator"* %62 to i8*, !llfi_index !975
  call void @llvm.lifetime.start(i64 1, i8* %716) #2, !llfi_index !976
  %717 = getelementptr inbounds %"class.std::basic_string"* %121, i64 0, i32 0, i32 0, !llfi_index !977
  %718 = load i8** %717, align 8, !tbaa !503, !llfi_index !978
  %719 = getelementptr inbounds i8* %718, i64 -24, !llfi_index !979
  %720 = bitcast i8* %719 to %"struct.std::basic_string<char, std::char_traits<char>, std::allocator<char> >::_Rep"*, !llfi_index !980
  %721 = icmp eq %"struct.std::basic_string<char, std::char_traits<char>, std::allocator<char> >::_Rep"* %720, bitcast ([0 x i64]* @_ZNSs4_Rep20_S_empty_rep_storageE to %"struct.std::basic_string<char, std::char_traits<char>, std::allocator<char> >::_Rep"*), !llfi_index !981
  br i1 %721, label %_ZNSsD1Ev.exit46, label %722, !prof !510, !llfi_index !982

; <label>:722                                     ; preds = %715
  %723 = getelementptr inbounds %"struct.std::basic_string<char, std::char_traits<char>, std::allocator<char> >::_Rep"* %720, i64 0, i32 0, i32 2, !llfi_index !983
  br i1 icmp ne (i8* bitcast (i32 (i32*, void (i8*)*)* @__pthread_key_create to i8*), i8* null), label %724, label %729, !llfi_index !984

; <label>:724                                     ; preds = %722
  %725 = bitcast i32* %61 to i8*, !llfi_index !985
  call void @llvm.lifetime.start(i64 4, i8* %725) #2, !llfi_index !986
  %726 = atomicrmw volatile add i32* %723, i32 -1 acq_rel, !llfi_index !987
  store i32 %726, i32* %61, align 4, !llfi_index !988
  %727 = load volatile i32* %61, align 4, !llfi_index !989
  %728 = bitcast i32* %61 to i8*, !llfi_index !990
  call void @llvm.lifetime.end(i64 4, i8* %728) #2, !llfi_index !991
  br label %_ZN9__gnu_cxxL27__exchange_and_add_dispatchEPii176.exit.i.i.i45, !llfi_index !992

; <label>:729                                     ; preds = %722
  %730 = load i32* %723, align 4, !tbaa !446, !llfi_index !993
  %731 = add nsw i32 %730, -1, !llfi_index !994
  store i32 %731, i32* %723, align 4, !tbaa !446, !llfi_index !995
  br label %_ZN9__gnu_cxxL27__exchange_and_add_dispatchEPii176.exit.i.i.i45, !llfi_index !996

_ZN9__gnu_cxxL27__exchange_and_add_dispatchEPii176.exit.i.i.i45: ; preds = %729, %724
  %.0.i.i.i.i44 = phi i32 [ %727, %724 ], [ %730, %729 ], !llfi_index !997
  %732 = icmp slt i32 %.0.i.i.i.i44, 1, !llfi_index !998
  br i1 %732, label %733, label %_ZNSsD1Ev.exit46, !llfi_index !999

; <label>:733                                     ; preds = %_ZN9__gnu_cxxL27__exchange_and_add_dispatchEPii176.exit.i.i.i45
  call void @_ZNSs4_Rep10_M_destroyERKSaIcE(%"struct.std::basic_string<char, std::char_traits<char>, std::allocator<char> >::_Rep"* %720, %"class.std::allocator"* %62) #2, !llfi_index !1000
  br label %_ZNSsD1Ev.exit46, !llfi_index !1001

_ZNSsD1Ev.exit46:                                 ; preds = %733, %_ZN9__gnu_cxxL27__exchange_and_add_dispatchEPii176.exit.i.i.i45, %715
  %734 = bitcast %"class.std::allocator"* %62 to i8*, !llfi_index !1002
  call void @llvm.lifetime.end(i64 1, i8* %734) #2, !llfi_index !1003
  br label %735, !llfi_index !1004

; <label>:735                                     ; preds = %_ZNSsD1Ev.exit46
  invoke void @_ZNSsC1EPKcRKSaIcE(%"class.std::basic_string"* %125, i8* getelementptr inbounds ([11 x i8]* @.str15, i64 0, i64 0), %"class.std::allocator"* %126)
          to label %736 unwind label %1320, !llfi_index !1005

; <label>:736                                     ; preds = %735
  %737 = invoke %class.YAML_Element* @_ZN12YAML_Element3getERKSs(%class.YAML_Element* %467, %"class.std::basic_string"* %125)
          to label %738 unwind label %1324, !llfi_index !1006

; <label>:738                                     ; preds = %736
  invoke void @_ZNSsC1EPKcRKSaIcE(%"class.std::basic_string"* %127, i8* getelementptr inbounds ([3 x i8]* @.str17, i64 0, i64 0), %"class.std::allocator"* %128)
          to label %739 unwind label %1328, !llfi_index !1007

; <label>:739                                     ; preds = %738
  %740 = invoke %class.YAML_Element* @_ZN12YAML_Element3addERKSsi(%class.YAML_Element* %737, %"class.std::basic_string"* %127, i32 %ny.0)
          to label %741 unwind label %1332, !llfi_index !1008

; <label>:741                                     ; preds = %739
  %742 = bitcast %"class.std::allocator"* %60 to i8*, !llfi_index !1009
  call void @llvm.lifetime.start(i64 1, i8* %742) #2, !llfi_index !1010
  %743 = getelementptr inbounds %"class.std::basic_string"* %127, i64 0, i32 0, i32 0, !llfi_index !1011
  %744 = load i8** %743, align 8, !tbaa !503, !llfi_index !1012
  %745 = getelementptr inbounds i8* %744, i64 -24, !llfi_index !1013
  %746 = bitcast i8* %745 to %"struct.std::basic_string<char, std::char_traits<char>, std::allocator<char> >::_Rep"*, !llfi_index !1014
  %747 = icmp eq %"struct.std::basic_string<char, std::char_traits<char>, std::allocator<char> >::_Rep"* %746, bitcast ([0 x i64]* @_ZNSs4_Rep20_S_empty_rep_storageE to %"struct.std::basic_string<char, std::char_traits<char>, std::allocator<char> >::_Rep"*), !llfi_index !1015
  br i1 %747, label %_ZNSsD1Ev.exit49, label %748, !prof !510, !llfi_index !1016

; <label>:748                                     ; preds = %741
  %749 = getelementptr inbounds %"struct.std::basic_string<char, std::char_traits<char>, std::allocator<char> >::_Rep"* %746, i64 0, i32 0, i32 2, !llfi_index !1017
  br i1 icmp ne (i8* bitcast (i32 (i32*, void (i8*)*)* @__pthread_key_create to i8*), i8* null), label %750, label %755, !llfi_index !1018

; <label>:750                                     ; preds = %748
  %751 = bitcast i32* %59 to i8*, !llfi_index !1019
  call void @llvm.lifetime.start(i64 4, i8* %751) #2, !llfi_index !1020
  %752 = atomicrmw volatile add i32* %749, i32 -1 acq_rel, !llfi_index !1021
  store i32 %752, i32* %59, align 4, !llfi_index !1022
  %753 = load volatile i32* %59, align 4, !llfi_index !1023
  %754 = bitcast i32* %59 to i8*, !llfi_index !1024
  call void @llvm.lifetime.end(i64 4, i8* %754) #2, !llfi_index !1025
  br label %_ZN9__gnu_cxxL27__exchange_and_add_dispatchEPii176.exit.i.i.i48, !llfi_index !1026

; <label>:755                                     ; preds = %748
  %756 = load i32* %749, align 4, !tbaa !446, !llfi_index !1027
  %757 = add nsw i32 %756, -1, !llfi_index !1028
  store i32 %757, i32* %749, align 4, !tbaa !446, !llfi_index !1029
  br label %_ZN9__gnu_cxxL27__exchange_and_add_dispatchEPii176.exit.i.i.i48, !llfi_index !1030

_ZN9__gnu_cxxL27__exchange_and_add_dispatchEPii176.exit.i.i.i48: ; preds = %755, %750
  %.0.i.i.i.i47 = phi i32 [ %753, %750 ], [ %756, %755 ], !llfi_index !1031
  %758 = icmp slt i32 %.0.i.i.i.i47, 1, !llfi_index !1032
  br i1 %758, label %759, label %_ZNSsD1Ev.exit49, !llfi_index !1033

; <label>:759                                     ; preds = %_ZN9__gnu_cxxL27__exchange_and_add_dispatchEPii176.exit.i.i.i48
  call void @_ZNSs4_Rep10_M_destroyERKSaIcE(%"struct.std::basic_string<char, std::char_traits<char>, std::allocator<char> >::_Rep"* %746, %"class.std::allocator"* %60) #2, !llfi_index !1034
  br label %_ZNSsD1Ev.exit49, !llfi_index !1035

_ZNSsD1Ev.exit49:                                 ; preds = %759, %_ZN9__gnu_cxxL27__exchange_and_add_dispatchEPii176.exit.i.i.i48, %741
  %760 = bitcast %"class.std::allocator"* %60 to i8*, !llfi_index !1036
  call void @llvm.lifetime.end(i64 1, i8* %760) #2, !llfi_index !1037
  br label %761, !llfi_index !1038

; <label>:761                                     ; preds = %_ZNSsD1Ev.exit49
  %762 = bitcast %"class.std::allocator"* %58 to i8*, !llfi_index !1039
  call void @llvm.lifetime.start(i64 1, i8* %762) #2, !llfi_index !1040
  %763 = getelementptr inbounds %"class.std::basic_string"* %125, i64 0, i32 0, i32 0, !llfi_index !1041
  %764 = load i8** %763, align 8, !tbaa !503, !llfi_index !1042
  %765 = getelementptr inbounds i8* %764, i64 -24, !llfi_index !1043
  %766 = bitcast i8* %765 to %"struct.std::basic_string<char, std::char_traits<char>, std::allocator<char> >::_Rep"*, !llfi_index !1044
  %767 = icmp eq %"struct.std::basic_string<char, std::char_traits<char>, std::allocator<char> >::_Rep"* %766, bitcast ([0 x i64]* @_ZNSs4_Rep20_S_empty_rep_storageE to %"struct.std::basic_string<char, std::char_traits<char>, std::allocator<char> >::_Rep"*), !llfi_index !1045
  br i1 %767, label %_ZNSsD1Ev.exit52, label %768, !prof !510, !llfi_index !1046

; <label>:768                                     ; preds = %761
  %769 = getelementptr inbounds %"struct.std::basic_string<char, std::char_traits<char>, std::allocator<char> >::_Rep"* %766, i64 0, i32 0, i32 2, !llfi_index !1047
  br i1 icmp ne (i8* bitcast (i32 (i32*, void (i8*)*)* @__pthread_key_create to i8*), i8* null), label %770, label %775, !llfi_index !1048

; <label>:770                                     ; preds = %768
  %771 = bitcast i32* %57 to i8*, !llfi_index !1049
  call void @llvm.lifetime.start(i64 4, i8* %771) #2, !llfi_index !1050
  %772 = atomicrmw volatile add i32* %769, i32 -1 acq_rel, !llfi_index !1051
  store i32 %772, i32* %57, align 4, !llfi_index !1052
  %773 = load volatile i32* %57, align 4, !llfi_index !1053
  %774 = bitcast i32* %57 to i8*, !llfi_index !1054
  call void @llvm.lifetime.end(i64 4, i8* %774) #2, !llfi_index !1055
  br label %_ZN9__gnu_cxxL27__exchange_and_add_dispatchEPii176.exit.i.i.i51, !llfi_index !1056

; <label>:775                                     ; preds = %768
  %776 = load i32* %769, align 4, !tbaa !446, !llfi_index !1057
  %777 = add nsw i32 %776, -1, !llfi_index !1058
  store i32 %777, i32* %769, align 4, !tbaa !446, !llfi_index !1059
  br label %_ZN9__gnu_cxxL27__exchange_and_add_dispatchEPii176.exit.i.i.i51, !llfi_index !1060

_ZN9__gnu_cxxL27__exchange_and_add_dispatchEPii176.exit.i.i.i51: ; preds = %775, %770
  %.0.i.i.i.i50 = phi i32 [ %773, %770 ], [ %776, %775 ], !llfi_index !1061
  %778 = icmp slt i32 %.0.i.i.i.i50, 1, !llfi_index !1062
  br i1 %778, label %779, label %_ZNSsD1Ev.exit52, !llfi_index !1063

; <label>:779                                     ; preds = %_ZN9__gnu_cxxL27__exchange_and_add_dispatchEPii176.exit.i.i.i51
  call void @_ZNSs4_Rep10_M_destroyERKSaIcE(%"struct.std::basic_string<char, std::char_traits<char>, std::allocator<char> >::_Rep"* %766, %"class.std::allocator"* %58) #2, !llfi_index !1064
  br label %_ZNSsD1Ev.exit52, !llfi_index !1065

_ZNSsD1Ev.exit52:                                 ; preds = %779, %_ZN9__gnu_cxxL27__exchange_and_add_dispatchEPii176.exit.i.i.i51, %761
  %780 = bitcast %"class.std::allocator"* %58 to i8*, !llfi_index !1066
  call void @llvm.lifetime.end(i64 1, i8* %780) #2, !llfi_index !1067
  br label %781, !llfi_index !1068

; <label>:781                                     ; preds = %_ZNSsD1Ev.exit52
  invoke void @_ZNSsC1EPKcRKSaIcE(%"class.std::basic_string"* %129, i8* getelementptr inbounds ([11 x i8]* @.str15, i64 0, i64 0), %"class.std::allocator"* %130)
          to label %782 unwind label %1375, !llfi_index !1069

; <label>:782                                     ; preds = %781
  %783 = invoke %class.YAML_Element* @_ZN12YAML_Element3getERKSs(%class.YAML_Element* %467, %"class.std::basic_string"* %129)
          to label %784 unwind label %1379, !llfi_index !1070

; <label>:784                                     ; preds = %782
  invoke void @_ZNSsC1EPKcRKSaIcE(%"class.std::basic_string"* %131, i8* getelementptr inbounds ([3 x i8]* @.str18, i64 0, i64 0), %"class.std::allocator"* %132)
          to label %785 unwind label %1383, !llfi_index !1071

; <label>:785                                     ; preds = %784
  %786 = invoke %class.YAML_Element* @_ZN12YAML_Element3addERKSsi(%class.YAML_Element* %783, %"class.std::basic_string"* %131, i32 %nz.0)
          to label %787 unwind label %1387, !llfi_index !1072

; <label>:787                                     ; preds = %785
  %788 = bitcast %"class.std::allocator"* %56 to i8*, !llfi_index !1073
  call void @llvm.lifetime.start(i64 1, i8* %788) #2, !llfi_index !1074
  %789 = getelementptr inbounds %"class.std::basic_string"* %131, i64 0, i32 0, i32 0, !llfi_index !1075
  %790 = load i8** %789, align 8, !tbaa !503, !llfi_index !1076
  %791 = getelementptr inbounds i8* %790, i64 -24, !llfi_index !1077
  %792 = bitcast i8* %791 to %"struct.std::basic_string<char, std::char_traits<char>, std::allocator<char> >::_Rep"*, !llfi_index !1078
  %793 = icmp eq %"struct.std::basic_string<char, std::char_traits<char>, std::allocator<char> >::_Rep"* %792, bitcast ([0 x i64]* @_ZNSs4_Rep20_S_empty_rep_storageE to %"struct.std::basic_string<char, std::char_traits<char>, std::allocator<char> >::_Rep"*), !llfi_index !1079
  br i1 %793, label %_ZNSsD1Ev.exit55, label %794, !prof !510, !llfi_index !1080

; <label>:794                                     ; preds = %787
  %795 = getelementptr inbounds %"struct.std::basic_string<char, std::char_traits<char>, std::allocator<char> >::_Rep"* %792, i64 0, i32 0, i32 2, !llfi_index !1081
  br i1 icmp ne (i8* bitcast (i32 (i32*, void (i8*)*)* @__pthread_key_create to i8*), i8* null), label %796, label %801, !llfi_index !1082

; <label>:796                                     ; preds = %794
  %797 = bitcast i32* %55 to i8*, !llfi_index !1083
  call void @llvm.lifetime.start(i64 4, i8* %797) #2, !llfi_index !1084
  %798 = atomicrmw volatile add i32* %795, i32 -1 acq_rel, !llfi_index !1085
  store i32 %798, i32* %55, align 4, !llfi_index !1086
  %799 = load volatile i32* %55, align 4, !llfi_index !1087
  %800 = bitcast i32* %55 to i8*, !llfi_index !1088
  call void @llvm.lifetime.end(i64 4, i8* %800) #2, !llfi_index !1089
  br label %_ZN9__gnu_cxxL27__exchange_and_add_dispatchEPii176.exit.i.i.i54, !llfi_index !1090

; <label>:801                                     ; preds = %794
  %802 = load i32* %795, align 4, !tbaa !446, !llfi_index !1091
  %803 = add nsw i32 %802, -1, !llfi_index !1092
  store i32 %803, i32* %795, align 4, !tbaa !446, !llfi_index !1093
  br label %_ZN9__gnu_cxxL27__exchange_and_add_dispatchEPii176.exit.i.i.i54, !llfi_index !1094

_ZN9__gnu_cxxL27__exchange_and_add_dispatchEPii176.exit.i.i.i54: ; preds = %801, %796
  %.0.i.i.i.i53 = phi i32 [ %799, %796 ], [ %802, %801 ], !llfi_index !1095
  %804 = icmp slt i32 %.0.i.i.i.i53, 1, !llfi_index !1096
  br i1 %804, label %805, label %_ZNSsD1Ev.exit55, !llfi_index !1097

; <label>:805                                     ; preds = %_ZN9__gnu_cxxL27__exchange_and_add_dispatchEPii176.exit.i.i.i54
  call void @_ZNSs4_Rep10_M_destroyERKSaIcE(%"struct.std::basic_string<char, std::char_traits<char>, std::allocator<char> >::_Rep"* %792, %"class.std::allocator"* %56) #2, !llfi_index !1098
  br label %_ZNSsD1Ev.exit55, !llfi_index !1099

_ZNSsD1Ev.exit55:                                 ; preds = %805, %_ZN9__gnu_cxxL27__exchange_and_add_dispatchEPii176.exit.i.i.i54, %787
  %806 = bitcast %"class.std::allocator"* %56 to i8*, !llfi_index !1100
  call void @llvm.lifetime.end(i64 1, i8* %806) #2, !llfi_index !1101
  br label %807, !llfi_index !1102

; <label>:807                                     ; preds = %_ZNSsD1Ev.exit55
  %808 = bitcast %"class.std::allocator"* %54 to i8*, !llfi_index !1103
  call void @llvm.lifetime.start(i64 1, i8* %808) #2, !llfi_index !1104
  %809 = getelementptr inbounds %"class.std::basic_string"* %129, i64 0, i32 0, i32 0, !llfi_index !1105
  %810 = load i8** %809, align 8, !tbaa !503, !llfi_index !1106
  %811 = getelementptr inbounds i8* %810, i64 -24, !llfi_index !1107
  %812 = bitcast i8* %811 to %"struct.std::basic_string<char, std::char_traits<char>, std::allocator<char> >::_Rep"*, !llfi_index !1108
  %813 = icmp eq %"struct.std::basic_string<char, std::char_traits<char>, std::allocator<char> >::_Rep"* %812, bitcast ([0 x i64]* @_ZNSs4_Rep20_S_empty_rep_storageE to %"struct.std::basic_string<char, std::char_traits<char>, std::allocator<char> >::_Rep"*), !llfi_index !1109
  br i1 %813, label %_ZNSsD1Ev.exit58, label %814, !prof !510, !llfi_index !1110

; <label>:814                                     ; preds = %807
  %815 = getelementptr inbounds %"struct.std::basic_string<char, std::char_traits<char>, std::allocator<char> >::_Rep"* %812, i64 0, i32 0, i32 2, !llfi_index !1111
  br i1 icmp ne (i8* bitcast (i32 (i32*, void (i8*)*)* @__pthread_key_create to i8*), i8* null), label %816, label %821, !llfi_index !1112

; <label>:816                                     ; preds = %814
  %817 = bitcast i32* %53 to i8*, !llfi_index !1113
  call void @llvm.lifetime.start(i64 4, i8* %817) #2, !llfi_index !1114
  %818 = atomicrmw volatile add i32* %815, i32 -1 acq_rel, !llfi_index !1115
  store i32 %818, i32* %53, align 4, !llfi_index !1116
  %819 = load volatile i32* %53, align 4, !llfi_index !1117
  %820 = bitcast i32* %53 to i8*, !llfi_index !1118
  call void @llvm.lifetime.end(i64 4, i8* %820) #2, !llfi_index !1119
  br label %_ZN9__gnu_cxxL27__exchange_and_add_dispatchEPii176.exit.i.i.i57, !llfi_index !1120

; <label>:821                                     ; preds = %814
  %822 = load i32* %815, align 4, !tbaa !446, !llfi_index !1121
  %823 = add nsw i32 %822, -1, !llfi_index !1122
  store i32 %823, i32* %815, align 4, !tbaa !446, !llfi_index !1123
  br label %_ZN9__gnu_cxxL27__exchange_and_add_dispatchEPii176.exit.i.i.i57, !llfi_index !1124

_ZN9__gnu_cxxL27__exchange_and_add_dispatchEPii176.exit.i.i.i57: ; preds = %821, %816
  %.0.i.i.i.i56 = phi i32 [ %819, %816 ], [ %822, %821 ], !llfi_index !1125
  %824 = icmp slt i32 %.0.i.i.i.i56, 1, !llfi_index !1126
  br i1 %824, label %825, label %_ZNSsD1Ev.exit58, !llfi_index !1127

; <label>:825                                     ; preds = %_ZN9__gnu_cxxL27__exchange_and_add_dispatchEPii176.exit.i.i.i57
  call void @_ZNSs4_Rep10_M_destroyERKSaIcE(%"struct.std::basic_string<char, std::char_traits<char>, std::allocator<char> >::_Rep"* %812, %"class.std::allocator"* %54) #2, !llfi_index !1128
  br label %_ZNSsD1Ev.exit58, !llfi_index !1129

_ZNSsD1Ev.exit58:                                 ; preds = %825, %_ZN9__gnu_cxxL27__exchange_and_add_dispatchEPii176.exit.i.i.i57, %807
  %826 = bitcast %"class.std::allocator"* %54 to i8*, !llfi_index !1130
  call void @llvm.lifetime.end(i64 1, i8* %826) #2, !llfi_index !1131
  br label %827, !llfi_index !1132

; <label>:827                                     ; preds = %_ZNSsD1Ev.exit58
  invoke void @_ZNSsC1EPKcRKSaIcE(%"class.std::basic_string"* %133, i8* getelementptr inbounds ([23 x i8]* @.str19, i64 0, i64 0), %"class.std::allocator"* %134)
          to label %828 unwind label %1430, !llfi_index !1133

; <label>:828                                     ; preds = %827
  %829 = load i32* %niters, align 4, !tbaa !446, !llfi_index !1134
  %830 = invoke %class.YAML_Element* @_ZN12YAML_Element3addERKSsi(%class.YAML_Element* %467, %"class.std::basic_string"* %133, i32 %829)
          to label %831 unwind label %1434, !llfi_index !1135

; <label>:831                                     ; preds = %828
  %832 = bitcast %"class.std::allocator"* %52 to i8*, !llfi_index !1136
  call void @llvm.lifetime.start(i64 1, i8* %832) #2, !llfi_index !1137
  %833 = getelementptr inbounds %"class.std::basic_string"* %133, i64 0, i32 0, i32 0, !llfi_index !1138
  %834 = load i8** %833, align 8, !tbaa !503, !llfi_index !1139
  %835 = getelementptr inbounds i8* %834, i64 -24, !llfi_index !1140
  %836 = bitcast i8* %835 to %"struct.std::basic_string<char, std::char_traits<char>, std::allocator<char> >::_Rep"*, !llfi_index !1141
  %837 = icmp eq %"struct.std::basic_string<char, std::char_traits<char>, std::allocator<char> >::_Rep"* %836, bitcast ([0 x i64]* @_ZNSs4_Rep20_S_empty_rep_storageE to %"struct.std::basic_string<char, std::char_traits<char>, std::allocator<char> >::_Rep"*), !llfi_index !1142
  br i1 %837, label %_ZNSsD1Ev.exit61, label %838, !prof !510, !llfi_index !1143

; <label>:838                                     ; preds = %831
  %839 = getelementptr inbounds %"struct.std::basic_string<char, std::char_traits<char>, std::allocator<char> >::_Rep"* %836, i64 0, i32 0, i32 2, !llfi_index !1144
  br i1 icmp ne (i8* bitcast (i32 (i32*, void (i8*)*)* @__pthread_key_create to i8*), i8* null), label %840, label %845, !llfi_index !1145

; <label>:840                                     ; preds = %838
  %841 = bitcast i32* %51 to i8*, !llfi_index !1146
  call void @llvm.lifetime.start(i64 4, i8* %841) #2, !llfi_index !1147
  %842 = atomicrmw volatile add i32* %839, i32 -1 acq_rel, !llfi_index !1148
  store i32 %842, i32* %51, align 4, !llfi_index !1149
  %843 = load volatile i32* %51, align 4, !llfi_index !1150
  %844 = bitcast i32* %51 to i8*, !llfi_index !1151
  call void @llvm.lifetime.end(i64 4, i8* %844) #2, !llfi_index !1152
  br label %_ZN9__gnu_cxxL27__exchange_and_add_dispatchEPii176.exit.i.i.i60, !llfi_index !1153

; <label>:845                                     ; preds = %838
  %846 = load i32* %839, align 4, !tbaa !446, !llfi_index !1154
  %847 = add nsw i32 %846, -1, !llfi_index !1155
  store i32 %847, i32* %839, align 4, !tbaa !446, !llfi_index !1156
  br label %_ZN9__gnu_cxxL27__exchange_and_add_dispatchEPii176.exit.i.i.i60, !llfi_index !1157

_ZN9__gnu_cxxL27__exchange_and_add_dispatchEPii176.exit.i.i.i60: ; preds = %845, %840
  %.0.i.i.i.i59 = phi i32 [ %843, %840 ], [ %846, %845 ], !llfi_index !1158
  %848 = icmp slt i32 %.0.i.i.i.i59, 1, !llfi_index !1159
  br i1 %848, label %849, label %_ZNSsD1Ev.exit61, !llfi_index !1160

; <label>:849                                     ; preds = %_ZN9__gnu_cxxL27__exchange_and_add_dispatchEPii176.exit.i.i.i60
  call void @_ZNSs4_Rep10_M_destroyERKSaIcE(%"struct.std::basic_string<char, std::char_traits<char>, std::allocator<char> >::_Rep"* %836, %"class.std::allocator"* %52) #2, !llfi_index !1161
  br label %_ZNSsD1Ev.exit61, !llfi_index !1162

_ZNSsD1Ev.exit61:                                 ; preds = %849, %_ZN9__gnu_cxxL27__exchange_and_add_dispatchEPii176.exit.i.i.i60, %831
  %850 = bitcast %"class.std::allocator"* %52 to i8*, !llfi_index !1163
  call void @llvm.lifetime.end(i64 1, i8* %850) #2, !llfi_index !1164
  br label %851, !llfi_index !1165

; <label>:851                                     ; preds = %_ZNSsD1Ev.exit61
  invoke void @_ZNSsC1EPKcRKSaIcE(%"class.std::basic_string"* %135, i8* getelementptr inbounds ([17 x i8]* @.str20, i64 0, i64 0), %"class.std::allocator"* %136)
          to label %852 unwind label %1457, !llfi_index !1166

; <label>:852                                     ; preds = %851
  %853 = load double* %normr, align 8, !tbaa !9, !llfi_index !1167
  %854 = invoke %class.YAML_Element* @_ZN12YAML_Element3addERKSsd(%class.YAML_Element* %467, %"class.std::basic_string"* %135, double %853)
          to label %855 unwind label %1461, !llfi_index !1168

; <label>:855                                     ; preds = %852
  %856 = bitcast %"class.std::allocator"* %50 to i8*, !llfi_index !1169
  call void @llvm.lifetime.start(i64 1, i8* %856) #2, !llfi_index !1170
  %857 = getelementptr inbounds %"class.std::basic_string"* %135, i64 0, i32 0, i32 0, !llfi_index !1171
  %858 = load i8** %857, align 8, !tbaa !503, !llfi_index !1172
  %859 = getelementptr inbounds i8* %858, i64 -24, !llfi_index !1173
  %860 = bitcast i8* %859 to %"struct.std::basic_string<char, std::char_traits<char>, std::allocator<char> >::_Rep"*, !llfi_index !1174
  %861 = icmp eq %"struct.std::basic_string<char, std::char_traits<char>, std::allocator<char> >::_Rep"* %860, bitcast ([0 x i64]* @_ZNSs4_Rep20_S_empty_rep_storageE to %"struct.std::basic_string<char, std::char_traits<char>, std::allocator<char> >::_Rep"*), !llfi_index !1175
  br i1 %861, label %_ZNSsD1Ev.exit64, label %862, !prof !510, !llfi_index !1176

; <label>:862                                     ; preds = %855
  %863 = getelementptr inbounds %"struct.std::basic_string<char, std::char_traits<char>, std::allocator<char> >::_Rep"* %860, i64 0, i32 0, i32 2, !llfi_index !1177
  br i1 icmp ne (i8* bitcast (i32 (i32*, void (i8*)*)* @__pthread_key_create to i8*), i8* null), label %864, label %869, !llfi_index !1178

; <label>:864                                     ; preds = %862
  %865 = bitcast i32* %49 to i8*, !llfi_index !1179
  call void @llvm.lifetime.start(i64 4, i8* %865) #2, !llfi_index !1180
  %866 = atomicrmw volatile add i32* %863, i32 -1 acq_rel, !llfi_index !1181
  store i32 %866, i32* %49, align 4, !llfi_index !1182
  %867 = load volatile i32* %49, align 4, !llfi_index !1183
  %868 = bitcast i32* %49 to i8*, !llfi_index !1184
  call void @llvm.lifetime.end(i64 4, i8* %868) #2, !llfi_index !1185
  br label %_ZN9__gnu_cxxL27__exchange_and_add_dispatchEPii176.exit.i.i.i63, !llfi_index !1186

; <label>:869                                     ; preds = %862
  %870 = load i32* %863, align 4, !tbaa !446, !llfi_index !1187
  %871 = add nsw i32 %870, -1, !llfi_index !1188
  store i32 %871, i32* %863, align 4, !tbaa !446, !llfi_index !1189
  br label %_ZN9__gnu_cxxL27__exchange_and_add_dispatchEPii176.exit.i.i.i63, !llfi_index !1190

_ZN9__gnu_cxxL27__exchange_and_add_dispatchEPii176.exit.i.i.i63: ; preds = %869, %864
  %.0.i.i.i.i62 = phi i32 [ %867, %864 ], [ %870, %869 ], !llfi_index !1191
  %872 = icmp slt i32 %.0.i.i.i.i62, 1, !llfi_index !1192
  br i1 %872, label %873, label %_ZNSsD1Ev.exit64, !llfi_index !1193

; <label>:873                                     ; preds = %_ZN9__gnu_cxxL27__exchange_and_add_dispatchEPii176.exit.i.i.i63
  call void @_ZNSs4_Rep10_M_destroyERKSaIcE(%"struct.std::basic_string<char, std::char_traits<char>, std::allocator<char> >::_Rep"* %860, %"class.std::allocator"* %50) #2, !llfi_index !1194
  br label %_ZNSsD1Ev.exit64, !llfi_index !1195

_ZNSsD1Ev.exit64:                                 ; preds = %873, %_ZN9__gnu_cxxL27__exchange_and_add_dispatchEPii176.exit.i.i.i63, %855
  %874 = bitcast %"class.std::allocator"* %50 to i8*, !llfi_index !1196
  call void @llvm.lifetime.end(i64 1, i8* %874) #2, !llfi_index !1197
  br label %875, !llfi_index !1198

; <label>:875                                     ; preds = %_ZNSsD1Ev.exit64
  invoke void @_ZN8YAML_Doc12generateYAMLEv(%"class.std::basic_string"* sret %yaml, %class.YAML_Doc* %doc)
          to label %876 unwind label %1484, !llfi_index !1199

; <label>:876                                     ; preds = %875
  %877 = getelementptr inbounds %"class.std::basic_string"* %yaml, i64 0, i32 0, i32 0, !llfi_index !1200
  %878 = load i8** %877, align 8, !tbaa !503, !llfi_index !1201
  %879 = getelementptr inbounds %"class.std::basic_string"* %yaml, i64 0, i32 0, i32 0, !llfi_index !1202
  %880 = load i8** %879, align 8, !tbaa !503, !llfi_index !1203
  %881 = getelementptr inbounds i8* %880, i64 -24, !llfi_index !1204
  %882 = bitcast i8* %881 to %"struct.std::basic_string<char, std::char_traits<char>, std::allocator<char> >::_Rep"*, !llfi_index !1205
  %883 = getelementptr inbounds %"struct.std::basic_string<char, std::char_traits<char>, std::allocator<char> >::_Rep"* %882, i64 0, i32 0, i32 0, !llfi_index !1206
  %884 = load i64* %883, align 8, !tbaa !1207, !llfi_index !1209
  %885 = invoke %"class.std::basic_ostream"* @_ZSt16__ostream_insertIcSt11char_traitsIcEERSt13basic_ostreamIT_T0_ES6_PKS3_l(%"class.std::basic_ostream"* @_ZSt4cout, i8* %878, i64 %884)
          to label %_ZStlsIcSt11char_traitsIcESaIcEERSt13basic_ostreamIT_T0_ES7_RKSbIS4_S5_T1_E.exit unwind label %1488, !llfi_index !1210

_ZStlsIcSt11char_traitsIcESaIcEERSt13basic_ostreamIT_T0_ES7_RKSbIS4_S5_T1_E.exit: ; preds = %876
  br label %886, !llfi_index !1211

; <label>:886                                     ; preds = %_ZStlsIcSt11char_traitsIcESaIcEERSt13basic_ostreamIT_T0_ES7_RKSbIS4_S5_T1_E.exit
  %887 = bitcast %"class.std::allocator"* %48 to i8*, !llfi_index !1212
  call void @llvm.lifetime.start(i64 1, i8* %887) #2, !llfi_index !1213
  %888 = getelementptr inbounds %"class.std::basic_string"* %yaml, i64 0, i32 0, i32 0, !llfi_index !1214
  %889 = load i8** %888, align 8, !tbaa !503, !llfi_index !1215
  %890 = getelementptr inbounds i8* %889, i64 -24, !llfi_index !1216
  %891 = bitcast i8* %890 to %"struct.std::basic_string<char, std::char_traits<char>, std::allocator<char> >::_Rep"*, !llfi_index !1217
  %892 = icmp eq %"struct.std::basic_string<char, std::char_traits<char>, std::allocator<char> >::_Rep"* %891, bitcast ([0 x i64]* @_ZNSs4_Rep20_S_empty_rep_storageE to %"struct.std::basic_string<char, std::char_traits<char>, std::allocator<char> >::_Rep"*), !llfi_index !1218
  br i1 %892, label %_ZNSsD1Ev.exit67, label %893, !prof !510, !llfi_index !1219

; <label>:893                                     ; preds = %886
  %894 = getelementptr inbounds %"struct.std::basic_string<char, std::char_traits<char>, std::allocator<char> >::_Rep"* %891, i64 0, i32 0, i32 2, !llfi_index !1220
  br i1 icmp ne (i8* bitcast (i32 (i32*, void (i8*)*)* @__pthread_key_create to i8*), i8* null), label %895, label %900, !llfi_index !1221

; <label>:895                                     ; preds = %893
  %896 = bitcast i32* %47 to i8*, !llfi_index !1222
  call void @llvm.lifetime.start(i64 4, i8* %896) #2, !llfi_index !1223
  %897 = atomicrmw volatile add i32* %894, i32 -1 acq_rel, !llfi_index !1224
  store i32 %897, i32* %47, align 4, !llfi_index !1225
  %898 = load volatile i32* %47, align 4, !llfi_index !1226
  %899 = bitcast i32* %47 to i8*, !llfi_index !1227
  call void @llvm.lifetime.end(i64 4, i8* %899) #2, !llfi_index !1228
  br label %_ZN9__gnu_cxxL27__exchange_and_add_dispatchEPii176.exit.i.i.i66, !llfi_index !1229

; <label>:900                                     ; preds = %893
  %901 = load i32* %894, align 4, !tbaa !446, !llfi_index !1230
  %902 = add nsw i32 %901, -1, !llfi_index !1231
  store i32 %902, i32* %894, align 4, !tbaa !446, !llfi_index !1232
  br label %_ZN9__gnu_cxxL27__exchange_and_add_dispatchEPii176.exit.i.i.i66, !llfi_index !1233

_ZN9__gnu_cxxL27__exchange_and_add_dispatchEPii176.exit.i.i.i66: ; preds = %900, %895
  %.0.i.i.i.i65 = phi i32 [ %898, %895 ], [ %901, %900 ], !llfi_index !1234
  %903 = icmp slt i32 %.0.i.i.i.i65, 1, !llfi_index !1235
  br i1 %903, label %904, label %_ZNSsD1Ev.exit67, !llfi_index !1236

; <label>:904                                     ; preds = %_ZN9__gnu_cxxL27__exchange_and_add_dispatchEPii176.exit.i.i.i66
  call void @_ZNSs4_Rep10_M_destroyERKSaIcE(%"struct.std::basic_string<char, std::char_traits<char>, std::allocator<char> >::_Rep"* %891, %"class.std::allocator"* %48) #2, !llfi_index !1237
  br label %_ZNSsD1Ev.exit67, !llfi_index !1238

_ZNSsD1Ev.exit67:                                 ; preds = %904, %_ZN9__gnu_cxxL27__exchange_and_add_dispatchEPii176.exit.i.i.i66, %886
  %905 = bitcast %"class.std::allocator"* %48 to i8*, !llfi_index !1239
  call void @llvm.lifetime.end(i64 1, i8* %905) #2, !llfi_index !1240
  br label %1511, !llfi_index !1241

; <label>:906                                     ; preds = %380
  %907 = landingpad { i8*, i32 } personality i8* bitcast (i32 (...)* @__gxx_personality_v0 to i8*)
          cleanup, !llfi_index !1242
  %908 = extractvalue { i8*, i32 } %907, 0, !llfi_index !1243
  %909 = extractvalue { i8*, i32 } %907, 1, !llfi_index !1244
  br label %1513, !llfi_index !1245

; <label>:910                                     ; preds = %382
  %911 = landingpad { i8*, i32 } personality i8* bitcast (i32 (...)* @__gxx_personality_v0 to i8*)
          cleanup, !llfi_index !1246
  %912 = extractvalue { i8*, i32 } %911, 0, !llfi_index !1247
  %913 = extractvalue { i8*, i32 } %911, 1, !llfi_index !1248
  br label %985, !llfi_index !1249

; <label>:914                                     ; preds = %383
  %915 = landingpad { i8*, i32 } personality i8* bitcast (i32 (...)* @__gxx_personality_v0 to i8*)
          cleanup, !llfi_index !1250
  %916 = extractvalue { i8*, i32 } %915, 0, !llfi_index !1251
  %917 = extractvalue { i8*, i32 } %915, 1, !llfi_index !1252
  br label %965, !llfi_index !1253

; <label>:918                                     ; preds = %384
  %919 = landingpad { i8*, i32 } personality i8* bitcast (i32 (...)* @__gxx_personality_v0 to i8*)
          cleanup, !llfi_index !1254
  %920 = extractvalue { i8*, i32 } %919, 0, !llfi_index !1255
  %921 = extractvalue { i8*, i32 } %919, 1, !llfi_index !1256
  br label %945, !llfi_index !1257

; <label>:922                                     ; preds = %385
  %923 = landingpad { i8*, i32 } personality i8* bitcast (i32 (...)* @__gxx_personality_v0 to i8*)
          cleanup, !llfi_index !1258
  %924 = extractvalue { i8*, i32 } %923, 0, !llfi_index !1259
  %925 = extractvalue { i8*, i32 } %923, 1, !llfi_index !1260
  %926 = bitcast %"class.std::allocator"* %46 to i8*, !llfi_index !1261
  call void @llvm.lifetime.start(i64 1, i8* %926) #2, !llfi_index !1262
  %927 = getelementptr inbounds %"class.std::basic_string"* %99, i64 0, i32 0, i32 0, !llfi_index !1263
  %928 = load i8** %927, align 8, !tbaa !503, !llfi_index !1264
  %929 = getelementptr inbounds i8* %928, i64 -24, !llfi_index !1265
  %930 = bitcast i8* %929 to %"struct.std::basic_string<char, std::char_traits<char>, std::allocator<char> >::_Rep"*, !llfi_index !1266
  %931 = icmp eq %"struct.std::basic_string<char, std::char_traits<char>, std::allocator<char> >::_Rep"* %930, bitcast ([0 x i64]* @_ZNSs4_Rep20_S_empty_rep_storageE to %"struct.std::basic_string<char, std::char_traits<char>, std::allocator<char> >::_Rep"*), !llfi_index !1267
  br i1 %931, label %_ZNSsD1Ev.exit70, label %932, !prof !510, !llfi_index !1268

; <label>:932                                     ; preds = %922
  %933 = getelementptr inbounds %"struct.std::basic_string<char, std::char_traits<char>, std::allocator<char> >::_Rep"* %930, i64 0, i32 0, i32 2, !llfi_index !1269
  br i1 icmp ne (i8* bitcast (i32 (i32*, void (i8*)*)* @__pthread_key_create to i8*), i8* null), label %934, label %939, !llfi_index !1270

; <label>:934                                     ; preds = %932
  %935 = bitcast i32* %45 to i8*, !llfi_index !1271
  call void @llvm.lifetime.start(i64 4, i8* %935) #2, !llfi_index !1272
  %936 = atomicrmw volatile add i32* %933, i32 -1 acq_rel, !llfi_index !1273
  store i32 %936, i32* %45, align 4, !llfi_index !1274
  %937 = load volatile i32* %45, align 4, !llfi_index !1275
  %938 = bitcast i32* %45 to i8*, !llfi_index !1276
  call void @llvm.lifetime.end(i64 4, i8* %938) #2, !llfi_index !1277
  br label %_ZN9__gnu_cxxL27__exchange_and_add_dispatchEPii176.exit.i.i.i69, !llfi_index !1278

; <label>:939                                     ; preds = %932
  %940 = load i32* %933, align 4, !tbaa !446, !llfi_index !1279
  %941 = add nsw i32 %940, -1, !llfi_index !1280
  store i32 %941, i32* %933, align 4, !tbaa !446, !llfi_index !1281
  br label %_ZN9__gnu_cxxL27__exchange_and_add_dispatchEPii176.exit.i.i.i69, !llfi_index !1282

_ZN9__gnu_cxxL27__exchange_and_add_dispatchEPii176.exit.i.i.i69: ; preds = %939, %934
  %.0.i.i.i.i68 = phi i32 [ %937, %934 ], [ %940, %939 ], !llfi_index !1283
  %942 = icmp slt i32 %.0.i.i.i.i68, 1, !llfi_index !1284
  br i1 %942, label %943, label %_ZNSsD1Ev.exit70, !llfi_index !1285

; <label>:943                                     ; preds = %_ZN9__gnu_cxxL27__exchange_and_add_dispatchEPii176.exit.i.i.i69
  call void @_ZNSs4_Rep10_M_destroyERKSaIcE(%"struct.std::basic_string<char, std::char_traits<char>, std::allocator<char> >::_Rep"* %930, %"class.std::allocator"* %46) #2, !llfi_index !1286
  br label %_ZNSsD1Ev.exit70, !llfi_index !1287

_ZNSsD1Ev.exit70:                                 ; preds = %943, %_ZN9__gnu_cxxL27__exchange_and_add_dispatchEPii176.exit.i.i.i69, %922
  %944 = bitcast %"class.std::allocator"* %46 to i8*, !llfi_index !1288
  call void @llvm.lifetime.end(i64 1, i8* %944) #2, !llfi_index !1289
  br label %945, !llfi_index !1290

; <label>:945                                     ; preds = %_ZNSsD1Ev.exit70, %918
  %.04 = phi i8* [ %920, %918 ], [ %924, %_ZNSsD1Ev.exit70 ], !llfi_index !1291
  %.0 = phi i32 [ %921, %918 ], [ %925, %_ZNSsD1Ev.exit70 ], !llfi_index !1292
  %946 = bitcast %"class.std::allocator"* %44 to i8*, !llfi_index !1293
  call void @llvm.lifetime.start(i64 1, i8* %946) #2, !llfi_index !1294
  %947 = getelementptr inbounds %"class.std::basic_string"* %97, i64 0, i32 0, i32 0, !llfi_index !1295
  %948 = load i8** %947, align 8, !tbaa !503, !llfi_index !1296
  %949 = getelementptr inbounds i8* %948, i64 -24, !llfi_index !1297
  %950 = bitcast i8* %949 to %"struct.std::basic_string<char, std::char_traits<char>, std::allocator<char> >::_Rep"*, !llfi_index !1298
  %951 = icmp eq %"struct.std::basic_string<char, std::char_traits<char>, std::allocator<char> >::_Rep"* %950, bitcast ([0 x i64]* @_ZNSs4_Rep20_S_empty_rep_storageE to %"struct.std::basic_string<char, std::char_traits<char>, std::allocator<char> >::_Rep"*), !llfi_index !1299
  br i1 %951, label %_ZNSsD1Ev.exit73, label %952, !prof !510, !llfi_index !1300

; <label>:952                                     ; preds = %945
  %953 = getelementptr inbounds %"struct.std::basic_string<char, std::char_traits<char>, std::allocator<char> >::_Rep"* %950, i64 0, i32 0, i32 2, !llfi_index !1301
  br i1 icmp ne (i8* bitcast (i32 (i32*, void (i8*)*)* @__pthread_key_create to i8*), i8* null), label %954, label %959, !llfi_index !1302

; <label>:954                                     ; preds = %952
  %955 = bitcast i32* %43 to i8*, !llfi_index !1303
  call void @llvm.lifetime.start(i64 4, i8* %955) #2, !llfi_index !1304
  %956 = atomicrmw volatile add i32* %953, i32 -1 acq_rel, !llfi_index !1305
  store i32 %956, i32* %43, align 4, !llfi_index !1306
  %957 = load volatile i32* %43, align 4, !llfi_index !1307
  %958 = bitcast i32* %43 to i8*, !llfi_index !1308
  call void @llvm.lifetime.end(i64 4, i8* %958) #2, !llfi_index !1309
  br label %_ZN9__gnu_cxxL27__exchange_and_add_dispatchEPii176.exit.i.i.i72, !llfi_index !1310

; <label>:959                                     ; preds = %952
  %960 = load i32* %953, align 4, !tbaa !446, !llfi_index !1311
  %961 = add nsw i32 %960, -1, !llfi_index !1312
  store i32 %961, i32* %953, align 4, !tbaa !446, !llfi_index !1313
  br label %_ZN9__gnu_cxxL27__exchange_and_add_dispatchEPii176.exit.i.i.i72, !llfi_index !1314

_ZN9__gnu_cxxL27__exchange_and_add_dispatchEPii176.exit.i.i.i72: ; preds = %959, %954
  %.0.i.i.i.i71 = phi i32 [ %957, %954 ], [ %960, %959 ], !llfi_index !1315
  %962 = icmp slt i32 %.0.i.i.i.i71, 1, !llfi_index !1316
  br i1 %962, label %963, label %_ZNSsD1Ev.exit73, !llfi_index !1317

; <label>:963                                     ; preds = %_ZN9__gnu_cxxL27__exchange_and_add_dispatchEPii176.exit.i.i.i72
  call void @_ZNSs4_Rep10_M_destroyERKSaIcE(%"struct.std::basic_string<char, std::char_traits<char>, std::allocator<char> >::_Rep"* %950, %"class.std::allocator"* %44) #2, !llfi_index !1318
  br label %_ZNSsD1Ev.exit73, !llfi_index !1319

_ZNSsD1Ev.exit73:                                 ; preds = %963, %_ZN9__gnu_cxxL27__exchange_and_add_dispatchEPii176.exit.i.i.i72, %945
  %964 = bitcast %"class.std::allocator"* %44 to i8*, !llfi_index !1320
  call void @llvm.lifetime.end(i64 1, i8* %964) #2, !llfi_index !1321
  br label %965, !llfi_index !1322

; <label>:965                                     ; preds = %_ZNSsD1Ev.exit73, %914
  %.110 = phi i8* [ %916, %914 ], [ %.04, %_ZNSsD1Ev.exit73 ], !llfi_index !1323
  %.1 = phi i32 [ %917, %914 ], [ %.0, %_ZNSsD1Ev.exit73 ], !llfi_index !1324
  %966 = bitcast %"class.std::allocator"* %42 to i8*, !llfi_index !1325
  call void @llvm.lifetime.start(i64 1, i8* %966) #2, !llfi_index !1326
  %967 = getelementptr inbounds %"class.std::basic_string"* %95, i64 0, i32 0, i32 0, !llfi_index !1327
  %968 = load i8** %967, align 8, !tbaa !503, !llfi_index !1328
  %969 = getelementptr inbounds i8* %968, i64 -24, !llfi_index !1329
  %970 = bitcast i8* %969 to %"struct.std::basic_string<char, std::char_traits<char>, std::allocator<char> >::_Rep"*, !llfi_index !1330
  %971 = icmp eq %"struct.std::basic_string<char, std::char_traits<char>, std::allocator<char> >::_Rep"* %970, bitcast ([0 x i64]* @_ZNSs4_Rep20_S_empty_rep_storageE to %"struct.std::basic_string<char, std::char_traits<char>, std::allocator<char> >::_Rep"*), !llfi_index !1331
  br i1 %971, label %_ZNSsD1Ev.exit76, label %972, !prof !510, !llfi_index !1332

; <label>:972                                     ; preds = %965
  %973 = getelementptr inbounds %"struct.std::basic_string<char, std::char_traits<char>, std::allocator<char> >::_Rep"* %970, i64 0, i32 0, i32 2, !llfi_index !1333
  br i1 icmp ne (i8* bitcast (i32 (i32*, void (i8*)*)* @__pthread_key_create to i8*), i8* null), label %974, label %979, !llfi_index !1334

; <label>:974                                     ; preds = %972
  %975 = bitcast i32* %41 to i8*, !llfi_index !1335
  call void @llvm.lifetime.start(i64 4, i8* %975) #2, !llfi_index !1336
  %976 = atomicrmw volatile add i32* %973, i32 -1 acq_rel, !llfi_index !1337
  store i32 %976, i32* %41, align 4, !llfi_index !1338
  %977 = load volatile i32* %41, align 4, !llfi_index !1339
  %978 = bitcast i32* %41 to i8*, !llfi_index !1340
  call void @llvm.lifetime.end(i64 4, i8* %978) #2, !llfi_index !1341
  br label %_ZN9__gnu_cxxL27__exchange_and_add_dispatchEPii176.exit.i.i.i75, !llfi_index !1342

; <label>:979                                     ; preds = %972
  %980 = load i32* %973, align 4, !tbaa !446, !llfi_index !1343
  %981 = add nsw i32 %980, -1, !llfi_index !1344
  store i32 %981, i32* %973, align 4, !tbaa !446, !llfi_index !1345
  br label %_ZN9__gnu_cxxL27__exchange_and_add_dispatchEPii176.exit.i.i.i75, !llfi_index !1346

_ZN9__gnu_cxxL27__exchange_and_add_dispatchEPii176.exit.i.i.i75: ; preds = %979, %974
  %.0.i.i.i.i74 = phi i32 [ %977, %974 ], [ %980, %979 ], !llfi_index !1347
  %982 = icmp slt i32 %.0.i.i.i.i74, 1, !llfi_index !1348
  br i1 %982, label %983, label %_ZNSsD1Ev.exit76, !llfi_index !1349

; <label>:983                                     ; preds = %_ZN9__gnu_cxxL27__exchange_and_add_dispatchEPii176.exit.i.i.i75
  call void @_ZNSs4_Rep10_M_destroyERKSaIcE(%"struct.std::basic_string<char, std::char_traits<char>, std::allocator<char> >::_Rep"* %970, %"class.std::allocator"* %42) #2, !llfi_index !1350
  br label %_ZNSsD1Ev.exit76, !llfi_index !1351

_ZNSsD1Ev.exit76:                                 ; preds = %983, %_ZN9__gnu_cxxL27__exchange_and_add_dispatchEPii176.exit.i.i.i75, %965
  %984 = bitcast %"class.std::allocator"* %42 to i8*, !llfi_index !1352
  call void @llvm.lifetime.end(i64 1, i8* %984) #2, !llfi_index !1353
  br label %985, !llfi_index !1354

; <label>:985                                     ; preds = %_ZNSsD1Ev.exit76, %910
  %.211 = phi i8* [ %912, %910 ], [ %.110, %_ZNSsD1Ev.exit76 ], !llfi_index !1355
  %.2 = phi i32 [ %913, %910 ], [ %.1, %_ZNSsD1Ev.exit76 ], !llfi_index !1356
  %986 = bitcast %"class.std::allocator"* %40 to i8*, !llfi_index !1357
  call void @llvm.lifetime.start(i64 1, i8* %986) #2, !llfi_index !1358
  %987 = getelementptr inbounds %"class.std::basic_string"* %93, i64 0, i32 0, i32 0, !llfi_index !1359
  %988 = load i8** %987, align 8, !tbaa !503, !llfi_index !1360
  %989 = getelementptr inbounds i8* %988, i64 -24, !llfi_index !1361
  %990 = bitcast i8* %989 to %"struct.std::basic_string<char, std::char_traits<char>, std::allocator<char> >::_Rep"*, !llfi_index !1362
  %991 = icmp eq %"struct.std::basic_string<char, std::char_traits<char>, std::allocator<char> >::_Rep"* %990, bitcast ([0 x i64]* @_ZNSs4_Rep20_S_empty_rep_storageE to %"struct.std::basic_string<char, std::char_traits<char>, std::allocator<char> >::_Rep"*), !llfi_index !1363
  br i1 %991, label %_ZNSsD1Ev.exit79, label %992, !prof !510, !llfi_index !1364

; <label>:992                                     ; preds = %985
  %993 = getelementptr inbounds %"struct.std::basic_string<char, std::char_traits<char>, std::allocator<char> >::_Rep"* %990, i64 0, i32 0, i32 2, !llfi_index !1365
  br i1 icmp ne (i8* bitcast (i32 (i32*, void (i8*)*)* @__pthread_key_create to i8*), i8* null), label %994, label %999, !llfi_index !1366

; <label>:994                                     ; preds = %992
  %995 = bitcast i32* %39 to i8*, !llfi_index !1367
  call void @llvm.lifetime.start(i64 4, i8* %995) #2, !llfi_index !1368
  %996 = atomicrmw volatile add i32* %993, i32 -1 acq_rel, !llfi_index !1369
  store i32 %996, i32* %39, align 4, !llfi_index !1370
  %997 = load volatile i32* %39, align 4, !llfi_index !1371
  %998 = bitcast i32* %39 to i8*, !llfi_index !1372
  call void @llvm.lifetime.end(i64 4, i8* %998) #2, !llfi_index !1373
  br label %_ZN9__gnu_cxxL27__exchange_and_add_dispatchEPii176.exit.i.i.i78, !llfi_index !1374

; <label>:999                                     ; preds = %992
  %1000 = load i32* %993, align 4, !tbaa !446, !llfi_index !1375
  %1001 = add nsw i32 %1000, -1, !llfi_index !1376
  store i32 %1001, i32* %993, align 4, !tbaa !446, !llfi_index !1377
  br label %_ZN9__gnu_cxxL27__exchange_and_add_dispatchEPii176.exit.i.i.i78, !llfi_index !1378

_ZN9__gnu_cxxL27__exchange_and_add_dispatchEPii176.exit.i.i.i78: ; preds = %999, %994
  %.0.i.i.i.i77 = phi i32 [ %997, %994 ], [ %1000, %999 ], !llfi_index !1379
  %1002 = icmp slt i32 %.0.i.i.i.i77, 1, !llfi_index !1380
  br i1 %1002, label %1003, label %_ZNSsD1Ev.exit79, !llfi_index !1381

; <label>:1003                                    ; preds = %_ZN9__gnu_cxxL27__exchange_and_add_dispatchEPii176.exit.i.i.i78
  call void @_ZNSs4_Rep10_M_destroyERKSaIcE(%"struct.std::basic_string<char, std::char_traits<char>, std::allocator<char> >::_Rep"* %990, %"class.std::allocator"* %40) #2, !llfi_index !1382
  br label %_ZNSsD1Ev.exit79, !llfi_index !1383

_ZNSsD1Ev.exit79:                                 ; preds = %1003, %_ZN9__gnu_cxxL27__exchange_and_add_dispatchEPii176.exit.i.i.i78, %985
  %1004 = bitcast %"class.std::allocator"* %40 to i8*, !llfi_index !1384
  call void @llvm.lifetime.end(i64 1, i8* %1004) #2, !llfi_index !1385
  br label %1513, !llfi_index !1386

; <label>:1005                                    ; preds = %466
  %1006 = landingpad { i8*, i32 } personality i8* bitcast (i32 (...)* @__gxx_personality_v0 to i8*)
          cleanup, !llfi_index !1387
  %1007 = extractvalue { i8*, i32 } %1006, 0, !llfi_index !1388
  %1008 = extractvalue { i8*, i32 } %1006, 1, !llfi_index !1389
  br label %1512, !llfi_index !1390

; <label>:1009                                    ; preds = %468
  %1010 = landingpad { i8*, i32 } personality i8* bitcast (i32 (...)* @__gxx_personality_v0 to i8*)
          cleanup, !llfi_index !1391
  %1011 = extractvalue { i8*, i32 } %1010, 0, !llfi_index !1392
  %1012 = extractvalue { i8*, i32 } %1010, 1, !llfi_index !1393
  br label %1036, !llfi_index !1394

; <label>:1013                                    ; preds = %469
  %1014 = landingpad { i8*, i32 } personality i8* bitcast (i32 (...)* @__gxx_personality_v0 to i8*)
          cleanup, !llfi_index !1395
  %1015 = extractvalue { i8*, i32 } %1014, 0, !llfi_index !1396
  %1016 = extractvalue { i8*, i32 } %1014, 1, !llfi_index !1397
  %1017 = bitcast %"class.std::allocator"* %38 to i8*, !llfi_index !1398
  call void @llvm.lifetime.start(i64 1, i8* %1017) #2, !llfi_index !1399
  %1018 = getelementptr inbounds %"class.std::basic_string"* %103, i64 0, i32 0, i32 0, !llfi_index !1400
  %1019 = load i8** %1018, align 8, !tbaa !503, !llfi_index !1401
  %1020 = getelementptr inbounds i8* %1019, i64 -24, !llfi_index !1402
  %1021 = bitcast i8* %1020 to %"struct.std::basic_string<char, std::char_traits<char>, std::allocator<char> >::_Rep"*, !llfi_index !1403
  %1022 = icmp eq %"struct.std::basic_string<char, std::char_traits<char>, std::allocator<char> >::_Rep"* %1021, bitcast ([0 x i64]* @_ZNSs4_Rep20_S_empty_rep_storageE to %"struct.std::basic_string<char, std::char_traits<char>, std::allocator<char> >::_Rep"*), !llfi_index !1404
  br i1 %1022, label %_ZNSsD1Ev.exit82, label %1023, !prof !510, !llfi_index !1405

; <label>:1023                                    ; preds = %1013
  %1024 = getelementptr inbounds %"struct.std::basic_string<char, std::char_traits<char>, std::allocator<char> >::_Rep"* %1021, i64 0, i32 0, i32 2, !llfi_index !1406
  br i1 icmp ne (i8* bitcast (i32 (i32*, void (i8*)*)* @__pthread_key_create to i8*), i8* null), label %1025, label %1030, !llfi_index !1407

; <label>:1025                                    ; preds = %1023
  %1026 = bitcast i32* %37 to i8*, !llfi_index !1408
  call void @llvm.lifetime.start(i64 4, i8* %1026) #2, !llfi_index !1409
  %1027 = atomicrmw volatile add i32* %1024, i32 -1 acq_rel, !llfi_index !1410
  store i32 %1027, i32* %37, align 4, !llfi_index !1411
  %1028 = load volatile i32* %37, align 4, !llfi_index !1412
  %1029 = bitcast i32* %37 to i8*, !llfi_index !1413
  call void @llvm.lifetime.end(i64 4, i8* %1029) #2, !llfi_index !1414
  br label %_ZN9__gnu_cxxL27__exchange_and_add_dispatchEPii176.exit.i.i.i81, !llfi_index !1415

; <label>:1030                                    ; preds = %1023
  %1031 = load i32* %1024, align 4, !tbaa !446, !llfi_index !1416
  %1032 = add nsw i32 %1031, -1, !llfi_index !1417
  store i32 %1032, i32* %1024, align 4, !tbaa !446, !llfi_index !1418
  br label %_ZN9__gnu_cxxL27__exchange_and_add_dispatchEPii176.exit.i.i.i81, !llfi_index !1419

_ZN9__gnu_cxxL27__exchange_and_add_dispatchEPii176.exit.i.i.i81: ; preds = %1030, %1025
  %.0.i.i.i.i80 = phi i32 [ %1028, %1025 ], [ %1031, %1030 ], !llfi_index !1420
  %1033 = icmp slt i32 %.0.i.i.i.i80, 1, !llfi_index !1421
  br i1 %1033, label %1034, label %_ZNSsD1Ev.exit82, !llfi_index !1422

; <label>:1034                                    ; preds = %_ZN9__gnu_cxxL27__exchange_and_add_dispatchEPii176.exit.i.i.i81
  call void @_ZNSs4_Rep10_M_destroyERKSaIcE(%"struct.std::basic_string<char, std::char_traits<char>, std::allocator<char> >::_Rep"* %1021, %"class.std::allocator"* %38) #2, !llfi_index !1423
  br label %_ZNSsD1Ev.exit82, !llfi_index !1424

_ZNSsD1Ev.exit82:                                 ; preds = %1034, %_ZN9__gnu_cxxL27__exchange_and_add_dispatchEPii176.exit.i.i.i81, %1013
  %1035 = bitcast %"class.std::allocator"* %38 to i8*, !llfi_index !1425
  call void @llvm.lifetime.end(i64 1, i8* %1035) #2, !llfi_index !1426
  br label %1036, !llfi_index !1427

; <label>:1036                                    ; preds = %_ZNSsD1Ev.exit82, %1009
  %.413 = phi i8* [ %1011, %1009 ], [ %1015, %_ZNSsD1Ev.exit82 ], !llfi_index !1428
  %.4 = phi i32 [ %1012, %1009 ], [ %1016, %_ZNSsD1Ev.exit82 ], !llfi_index !1429
  %1037 = bitcast %"class.std::allocator"* %36 to i8*, !llfi_index !1430
  call void @llvm.lifetime.start(i64 1, i8* %1037) #2, !llfi_index !1431
  %1038 = getelementptr inbounds %"class.std::basic_string"* %101, i64 0, i32 0, i32 0, !llfi_index !1432
  %1039 = load i8** %1038, align 8, !tbaa !503, !llfi_index !1433
  %1040 = getelementptr inbounds i8* %1039, i64 -24, !llfi_index !1434
  %1041 = bitcast i8* %1040 to %"struct.std::basic_string<char, std::char_traits<char>, std::allocator<char> >::_Rep"*, !llfi_index !1435
  %1042 = icmp eq %"struct.std::basic_string<char, std::char_traits<char>, std::allocator<char> >::_Rep"* %1041, bitcast ([0 x i64]* @_ZNSs4_Rep20_S_empty_rep_storageE to %"struct.std::basic_string<char, std::char_traits<char>, std::allocator<char> >::_Rep"*), !llfi_index !1436
  br i1 %1042, label %_ZNSsD1Ev.exit85, label %1043, !prof !510, !llfi_index !1437

; <label>:1043                                    ; preds = %1036
  %1044 = getelementptr inbounds %"struct.std::basic_string<char, std::char_traits<char>, std::allocator<char> >::_Rep"* %1041, i64 0, i32 0, i32 2, !llfi_index !1438
  br i1 icmp ne (i8* bitcast (i32 (i32*, void (i8*)*)* @__pthread_key_create to i8*), i8* null), label %1045, label %1050, !llfi_index !1439

; <label>:1045                                    ; preds = %1043
  %1046 = bitcast i32* %35 to i8*, !llfi_index !1440
  call void @llvm.lifetime.start(i64 4, i8* %1046) #2, !llfi_index !1441
  %1047 = atomicrmw volatile add i32* %1044, i32 -1 acq_rel, !llfi_index !1442
  store i32 %1047, i32* %35, align 4, !llfi_index !1443
  %1048 = load volatile i32* %35, align 4, !llfi_index !1444
  %1049 = bitcast i32* %35 to i8*, !llfi_index !1445
  call void @llvm.lifetime.end(i64 4, i8* %1049) #2, !llfi_index !1446
  br label %_ZN9__gnu_cxxL27__exchange_and_add_dispatchEPii176.exit.i.i.i84, !llfi_index !1447

; <label>:1050                                    ; preds = %1043
  %1051 = load i32* %1044, align 4, !tbaa !446, !llfi_index !1448
  %1052 = add nsw i32 %1051, -1, !llfi_index !1449
  store i32 %1052, i32* %1044, align 4, !tbaa !446, !llfi_index !1450
  br label %_ZN9__gnu_cxxL27__exchange_and_add_dispatchEPii176.exit.i.i.i84, !llfi_index !1451

_ZN9__gnu_cxxL27__exchange_and_add_dispatchEPii176.exit.i.i.i84: ; preds = %1050, %1045
  %.0.i.i.i.i83 = phi i32 [ %1048, %1045 ], [ %1051, %1050 ], !llfi_index !1452
  %1053 = icmp slt i32 %.0.i.i.i.i83, 1, !llfi_index !1453
  br i1 %1053, label %1054, label %_ZNSsD1Ev.exit85, !llfi_index !1454

; <label>:1054                                    ; preds = %_ZN9__gnu_cxxL27__exchange_and_add_dispatchEPii176.exit.i.i.i84
  call void @_ZNSs4_Rep10_M_destroyERKSaIcE(%"struct.std::basic_string<char, std::char_traits<char>, std::allocator<char> >::_Rep"* %1041, %"class.std::allocator"* %36) #2, !llfi_index !1455
  br label %_ZNSsD1Ev.exit85, !llfi_index !1456

_ZNSsD1Ev.exit85:                                 ; preds = %1054, %_ZN9__gnu_cxxL27__exchange_and_add_dispatchEPii176.exit.i.i.i84, %1036
  %1055 = bitcast %"class.std::allocator"* %36 to i8*, !llfi_index !1457
  call void @llvm.lifetime.end(i64 1, i8* %1055) #2, !llfi_index !1458
  br label %1512, !llfi_index !1459

; <label>:1056                                    ; preds = %511
  %1057 = landingpad { i8*, i32 } personality i8* bitcast (i32 (...)* @__gxx_personality_v0 to i8*)
          cleanup, !llfi_index !1460
  %1058 = extractvalue { i8*, i32 } %1057, 0, !llfi_index !1461
  %1059 = extractvalue { i8*, i32 } %1057, 1, !llfi_index !1462
  br label %1512, !llfi_index !1463

; <label>:1060                                    ; preds = %512
  %1061 = landingpad { i8*, i32 } personality i8* bitcast (i32 (...)* @__gxx_personality_v0 to i8*)
          cleanup, !llfi_index !1464
  %1062 = extractvalue { i8*, i32 } %1061, 0, !llfi_index !1465
  %1063 = extractvalue { i8*, i32 } %1061, 1, !llfi_index !1466
  br label %1115, !llfi_index !1467

; <label>:1064                                    ; preds = %514
  %1065 = landingpad { i8*, i32 } personality i8* bitcast (i32 (...)* @__gxx_personality_v0 to i8*)
          cleanup, !llfi_index !1468
  %1066 = extractvalue { i8*, i32 } %1065, 0, !llfi_index !1469
  %1067 = extractvalue { i8*, i32 } %1065, 1, !llfi_index !1470
  br label %1115, !llfi_index !1471

; <label>:1068                                    ; preds = %515
  %1069 = landingpad { i8*, i32 } personality i8* bitcast (i32 (...)* @__gxx_personality_v0 to i8*)
          cleanup, !llfi_index !1472
  %1070 = extractvalue { i8*, i32 } %1069, 0, !llfi_index !1473
  %1071 = extractvalue { i8*, i32 } %1069, 1, !llfi_index !1474
  br label %1095, !llfi_index !1475

; <label>:1072                                    ; preds = %516
  %1073 = landingpad { i8*, i32 } personality i8* bitcast (i32 (...)* @__gxx_personality_v0 to i8*)
          cleanup, !llfi_index !1476
  %1074 = extractvalue { i8*, i32 } %1073, 0, !llfi_index !1477
  %1075 = extractvalue { i8*, i32 } %1073, 1, !llfi_index !1478
  %1076 = bitcast %"class.std::allocator"* %34 to i8*, !llfi_index !1479
  call void @llvm.lifetime.start(i64 1, i8* %1076) #2, !llfi_index !1480
  %1077 = getelementptr inbounds %"class.std::basic_string"* %109, i64 0, i32 0, i32 0, !llfi_index !1481
  %1078 = load i8** %1077, align 8, !tbaa !503, !llfi_index !1482
  %1079 = getelementptr inbounds i8* %1078, i64 -24, !llfi_index !1483
  %1080 = bitcast i8* %1079 to %"struct.std::basic_string<char, std::char_traits<char>, std::allocator<char> >::_Rep"*, !llfi_index !1484
  %1081 = icmp eq %"struct.std::basic_string<char, std::char_traits<char>, std::allocator<char> >::_Rep"* %1080, bitcast ([0 x i64]* @_ZNSs4_Rep20_S_empty_rep_storageE to %"struct.std::basic_string<char, std::char_traits<char>, std::allocator<char> >::_Rep"*), !llfi_index !1485
  br i1 %1081, label %_ZNSsD1Ev.exit88, label %1082, !prof !510, !llfi_index !1486

; <label>:1082                                    ; preds = %1072
  %1083 = getelementptr inbounds %"struct.std::basic_string<char, std::char_traits<char>, std::allocator<char> >::_Rep"* %1080, i64 0, i32 0, i32 2, !llfi_index !1487
  br i1 icmp ne (i8* bitcast (i32 (i32*, void (i8*)*)* @__pthread_key_create to i8*), i8* null), label %1084, label %1089, !llfi_index !1488

; <label>:1084                                    ; preds = %1082
  %1085 = bitcast i32* %33 to i8*, !llfi_index !1489
  call void @llvm.lifetime.start(i64 4, i8* %1085) #2, !llfi_index !1490
  %1086 = atomicrmw volatile add i32* %1083, i32 -1 acq_rel, !llfi_index !1491
  store i32 %1086, i32* %33, align 4, !llfi_index !1492
  %1087 = load volatile i32* %33, align 4, !llfi_index !1493
  %1088 = bitcast i32* %33 to i8*, !llfi_index !1494
  call void @llvm.lifetime.end(i64 4, i8* %1088) #2, !llfi_index !1495
  br label %_ZN9__gnu_cxxL27__exchange_and_add_dispatchEPii176.exit.i.i.i87, !llfi_index !1496

; <label>:1089                                    ; preds = %1082
  %1090 = load i32* %1083, align 4, !tbaa !446, !llfi_index !1497
  %1091 = add nsw i32 %1090, -1, !llfi_index !1498
  store i32 %1091, i32* %1083, align 4, !tbaa !446, !llfi_index !1499
  br label %_ZN9__gnu_cxxL27__exchange_and_add_dispatchEPii176.exit.i.i.i87, !llfi_index !1500

_ZN9__gnu_cxxL27__exchange_and_add_dispatchEPii176.exit.i.i.i87: ; preds = %1089, %1084
  %.0.i.i.i.i86 = phi i32 [ %1087, %1084 ], [ %1090, %1089 ], !llfi_index !1501
  %1092 = icmp slt i32 %.0.i.i.i.i86, 1, !llfi_index !1502
  br i1 %1092, label %1093, label %_ZNSsD1Ev.exit88, !llfi_index !1503

; <label>:1093                                    ; preds = %_ZN9__gnu_cxxL27__exchange_and_add_dispatchEPii176.exit.i.i.i87
  call void @_ZNSs4_Rep10_M_destroyERKSaIcE(%"struct.std::basic_string<char, std::char_traits<char>, std::allocator<char> >::_Rep"* %1080, %"class.std::allocator"* %34) #2, !llfi_index !1504
  br label %_ZNSsD1Ev.exit88, !llfi_index !1505

_ZNSsD1Ev.exit88:                                 ; preds = %1093, %_ZN9__gnu_cxxL27__exchange_and_add_dispatchEPii176.exit.i.i.i87, %1072
  %1094 = bitcast %"class.std::allocator"* %34 to i8*, !llfi_index !1506
  call void @llvm.lifetime.end(i64 1, i8* %1094) #2, !llfi_index !1507
  br label %1095, !llfi_index !1508

; <label>:1095                                    ; preds = %_ZNSsD1Ev.exit88, %1068
  %.615 = phi i8* [ %1070, %1068 ], [ %1074, %_ZNSsD1Ev.exit88 ], !llfi_index !1509
  %.6 = phi i32 [ %1071, %1068 ], [ %1075, %_ZNSsD1Ev.exit88 ], !llfi_index !1510
  %1096 = bitcast %"class.std::allocator"* %32 to i8*, !llfi_index !1511
  call void @llvm.lifetime.start(i64 1, i8* %1096) #2, !llfi_index !1512
  %1097 = getelementptr inbounds %"class.std::basic_string"* %107, i64 0, i32 0, i32 0, !llfi_index !1513
  %1098 = load i8** %1097, align 8, !tbaa !503, !llfi_index !1514
  %1099 = getelementptr inbounds i8* %1098, i64 -24, !llfi_index !1515
  %1100 = bitcast i8* %1099 to %"struct.std::basic_string<char, std::char_traits<char>, std::allocator<char> >::_Rep"*, !llfi_index !1516
  %1101 = icmp eq %"struct.std::basic_string<char, std::char_traits<char>, std::allocator<char> >::_Rep"* %1100, bitcast ([0 x i64]* @_ZNSs4_Rep20_S_empty_rep_storageE to %"struct.std::basic_string<char, std::char_traits<char>, std::allocator<char> >::_Rep"*), !llfi_index !1517
  br i1 %1101, label %_ZNSsD1Ev.exit91, label %1102, !prof !510, !llfi_index !1518

; <label>:1102                                    ; preds = %1095
  %1103 = getelementptr inbounds %"struct.std::basic_string<char, std::char_traits<char>, std::allocator<char> >::_Rep"* %1100, i64 0, i32 0, i32 2, !llfi_index !1519
  br i1 icmp ne (i8* bitcast (i32 (i32*, void (i8*)*)* @__pthread_key_create to i8*), i8* null), label %1104, label %1109, !llfi_index !1520

; <label>:1104                                    ; preds = %1102
  %1105 = bitcast i32* %31 to i8*, !llfi_index !1521
  call void @llvm.lifetime.start(i64 4, i8* %1105) #2, !llfi_index !1522
  %1106 = atomicrmw volatile add i32* %1103, i32 -1 acq_rel, !llfi_index !1523
  store i32 %1106, i32* %31, align 4, !llfi_index !1524
  %1107 = load volatile i32* %31, align 4, !llfi_index !1525
  %1108 = bitcast i32* %31 to i8*, !llfi_index !1526
  call void @llvm.lifetime.end(i64 4, i8* %1108) #2, !llfi_index !1527
  br label %_ZN9__gnu_cxxL27__exchange_and_add_dispatchEPii176.exit.i.i.i90, !llfi_index !1528

; <label>:1109                                    ; preds = %1102
  %1110 = load i32* %1103, align 4, !tbaa !446, !llfi_index !1529
  %1111 = add nsw i32 %1110, -1, !llfi_index !1530
  store i32 %1111, i32* %1103, align 4, !tbaa !446, !llfi_index !1531
  br label %_ZN9__gnu_cxxL27__exchange_and_add_dispatchEPii176.exit.i.i.i90, !llfi_index !1532

_ZN9__gnu_cxxL27__exchange_and_add_dispatchEPii176.exit.i.i.i90: ; preds = %1109, %1104
  %.0.i.i.i.i89 = phi i32 [ %1107, %1104 ], [ %1110, %1109 ], !llfi_index !1533
  %1112 = icmp slt i32 %.0.i.i.i.i89, 1, !llfi_index !1534
  br i1 %1112, label %1113, label %_ZNSsD1Ev.exit91, !llfi_index !1535

; <label>:1113                                    ; preds = %_ZN9__gnu_cxxL27__exchange_and_add_dispatchEPii176.exit.i.i.i90
  call void @_ZNSs4_Rep10_M_destroyERKSaIcE(%"struct.std::basic_string<char, std::char_traits<char>, std::allocator<char> >::_Rep"* %1100, %"class.std::allocator"* %32) #2, !llfi_index !1536
  br label %_ZNSsD1Ev.exit91, !llfi_index !1537

_ZNSsD1Ev.exit91:                                 ; preds = %1113, %_ZN9__gnu_cxxL27__exchange_and_add_dispatchEPii176.exit.i.i.i90, %1095
  %1114 = bitcast %"class.std::allocator"* %32 to i8*, !llfi_index !1538
  call void @llvm.lifetime.end(i64 1, i8* %1114) #2, !llfi_index !1539
  br label %1115, !llfi_index !1540

; <label>:1115                                    ; preds = %_ZNSsD1Ev.exit91, %1064, %1060
  %.817 = phi i8* [ %1062, %1060 ], [ %1066, %1064 ], [ %.615, %_ZNSsD1Ev.exit91 ], !llfi_index !1541
  %.8 = phi i32 [ %1063, %1060 ], [ %1067, %1064 ], [ %.6, %_ZNSsD1Ev.exit91 ], !llfi_index !1542
  %1116 = bitcast %"class.std::allocator"* %30 to i8*, !llfi_index !1543
  call void @llvm.lifetime.start(i64 1, i8* %1116) #2, !llfi_index !1544
  %1117 = getelementptr inbounds %"class.std::basic_string"* %105, i64 0, i32 0, i32 0, !llfi_index !1545
  %1118 = load i8** %1117, align 8, !tbaa !503, !llfi_index !1546
  %1119 = getelementptr inbounds i8* %1118, i64 -24, !llfi_index !1547
  %1120 = bitcast i8* %1119 to %"struct.std::basic_string<char, std::char_traits<char>, std::allocator<char> >::_Rep"*, !llfi_index !1548
  %1121 = icmp eq %"struct.std::basic_string<char, std::char_traits<char>, std::allocator<char> >::_Rep"* %1120, bitcast ([0 x i64]* @_ZNSs4_Rep20_S_empty_rep_storageE to %"struct.std::basic_string<char, std::char_traits<char>, std::allocator<char> >::_Rep"*), !llfi_index !1549
  br i1 %1121, label %_ZNSsD1Ev.exit94, label %1122, !prof !510, !llfi_index !1550

; <label>:1122                                    ; preds = %1115
  %1123 = getelementptr inbounds %"struct.std::basic_string<char, std::char_traits<char>, std::allocator<char> >::_Rep"* %1120, i64 0, i32 0, i32 2, !llfi_index !1551
  br i1 icmp ne (i8* bitcast (i32 (i32*, void (i8*)*)* @__pthread_key_create to i8*), i8* null), label %1124, label %1129, !llfi_index !1552

; <label>:1124                                    ; preds = %1122
  %1125 = bitcast i32* %29 to i8*, !llfi_index !1553
  call void @llvm.lifetime.start(i64 4, i8* %1125) #2, !llfi_index !1554
  %1126 = atomicrmw volatile add i32* %1123, i32 -1 acq_rel, !llfi_index !1555
  store i32 %1126, i32* %29, align 4, !llfi_index !1556
  %1127 = load volatile i32* %29, align 4, !llfi_index !1557
  %1128 = bitcast i32* %29 to i8*, !llfi_index !1558
  call void @llvm.lifetime.end(i64 4, i8* %1128) #2, !llfi_index !1559
  br label %_ZN9__gnu_cxxL27__exchange_and_add_dispatchEPii176.exit.i.i.i93, !llfi_index !1560

; <label>:1129                                    ; preds = %1122
  %1130 = load i32* %1123, align 4, !tbaa !446, !llfi_index !1561
  %1131 = add nsw i32 %1130, -1, !llfi_index !1562
  store i32 %1131, i32* %1123, align 4, !tbaa !446, !llfi_index !1563
  br label %_ZN9__gnu_cxxL27__exchange_and_add_dispatchEPii176.exit.i.i.i93, !llfi_index !1564

_ZN9__gnu_cxxL27__exchange_and_add_dispatchEPii176.exit.i.i.i93: ; preds = %1129, %1124
  %.0.i.i.i.i92 = phi i32 [ %1127, %1124 ], [ %1130, %1129 ], !llfi_index !1565
  %1132 = icmp slt i32 %.0.i.i.i.i92, 1, !llfi_index !1566
  br i1 %1132, label %1133, label %_ZNSsD1Ev.exit94, !llfi_index !1567

; <label>:1133                                    ; preds = %_ZN9__gnu_cxxL27__exchange_and_add_dispatchEPii176.exit.i.i.i93
  call void @_ZNSs4_Rep10_M_destroyERKSaIcE(%"struct.std::basic_string<char, std::char_traits<char>, std::allocator<char> >::_Rep"* %1120, %"class.std::allocator"* %30) #2, !llfi_index !1568
  br label %_ZNSsD1Ev.exit94, !llfi_index !1569

_ZNSsD1Ev.exit94:                                 ; preds = %1133, %_ZN9__gnu_cxxL27__exchange_and_add_dispatchEPii176.exit.i.i.i93, %1115
  %1134 = bitcast %"class.std::allocator"* %30 to i8*, !llfi_index !1570
  call void @llvm.lifetime.end(i64 1, i8* %1134) #2, !llfi_index !1571
  br label %1512, !llfi_index !1572

; <label>:1135                                    ; preds = %578
  %1136 = landingpad { i8*, i32 } personality i8* bitcast (i32 (...)* @__gxx_personality_v0 to i8*)
          cleanup, !llfi_index !1573
  %1137 = extractvalue { i8*, i32 } %1136, 0, !llfi_index !1574
  %1138 = extractvalue { i8*, i32 } %1136, 1, !llfi_index !1575
  br label %1512, !llfi_index !1576

; <label>:1139                                    ; preds = %579
  %1140 = landingpad { i8*, i32 } personality i8* bitcast (i32 (...)* @__gxx_personality_v0 to i8*)
          cleanup, !llfi_index !1577
  %1141 = extractvalue { i8*, i32 } %1140, 0, !llfi_index !1578
  %1142 = extractvalue { i8*, i32 } %1140, 1, !llfi_index !1579
  br label %1194, !llfi_index !1580

; <label>:1143                                    ; preds = %581
  %1144 = landingpad { i8*, i32 } personality i8* bitcast (i32 (...)* @__gxx_personality_v0 to i8*)
          cleanup, !llfi_index !1581
  %1145 = extractvalue { i8*, i32 } %1144, 0, !llfi_index !1582
  %1146 = extractvalue { i8*, i32 } %1144, 1, !llfi_index !1583
  br label %1194, !llfi_index !1584

; <label>:1147                                    ; preds = %582
  %1148 = landingpad { i8*, i32 } personality i8* bitcast (i32 (...)* @__gxx_personality_v0 to i8*)
          cleanup, !llfi_index !1585
  %1149 = extractvalue { i8*, i32 } %1148, 0, !llfi_index !1586
  %1150 = extractvalue { i8*, i32 } %1148, 1, !llfi_index !1587
  br label %1174, !llfi_index !1588

; <label>:1151                                    ; preds = %583
  %1152 = landingpad { i8*, i32 } personality i8* bitcast (i32 (...)* @__gxx_personality_v0 to i8*)
          cleanup, !llfi_index !1589
  %1153 = extractvalue { i8*, i32 } %1152, 0, !llfi_index !1590
  %1154 = extractvalue { i8*, i32 } %1152, 1, !llfi_index !1591
  %1155 = bitcast %"class.std::allocator"* %28 to i8*, !llfi_index !1592
  call void @llvm.lifetime.start(i64 1, i8* %1155) #2, !llfi_index !1593
  %1156 = getelementptr inbounds %"class.std::basic_string"* %115, i64 0, i32 0, i32 0, !llfi_index !1594
  %1157 = load i8** %1156, align 8, !tbaa !503, !llfi_index !1595
  %1158 = getelementptr inbounds i8* %1157, i64 -24, !llfi_index !1596
  %1159 = bitcast i8* %1158 to %"struct.std::basic_string<char, std::char_traits<char>, std::allocator<char> >::_Rep"*, !llfi_index !1597
  %1160 = icmp eq %"struct.std::basic_string<char, std::char_traits<char>, std::allocator<char> >::_Rep"* %1159, bitcast ([0 x i64]* @_ZNSs4_Rep20_S_empty_rep_storageE to %"struct.std::basic_string<char, std::char_traits<char>, std::allocator<char> >::_Rep"*), !llfi_index !1598
  br i1 %1160, label %_ZNSsD1Ev.exit97, label %1161, !prof !510, !llfi_index !1599

; <label>:1161                                    ; preds = %1151
  %1162 = getelementptr inbounds %"struct.std::basic_string<char, std::char_traits<char>, std::allocator<char> >::_Rep"* %1159, i64 0, i32 0, i32 2, !llfi_index !1600
  br i1 icmp ne (i8* bitcast (i32 (i32*, void (i8*)*)* @__pthread_key_create to i8*), i8* null), label %1163, label %1168, !llfi_index !1601

; <label>:1163                                    ; preds = %1161
  %1164 = bitcast i32* %27 to i8*, !llfi_index !1602
  call void @llvm.lifetime.start(i64 4, i8* %1164) #2, !llfi_index !1603
  %1165 = atomicrmw volatile add i32* %1162, i32 -1 acq_rel, !llfi_index !1604
  store i32 %1165, i32* %27, align 4, !llfi_index !1605
  %1166 = load volatile i32* %27, align 4, !llfi_index !1606
  %1167 = bitcast i32* %27 to i8*, !llfi_index !1607
  call void @llvm.lifetime.end(i64 4, i8* %1167) #2, !llfi_index !1608
  br label %_ZN9__gnu_cxxL27__exchange_and_add_dispatchEPii176.exit.i.i.i96, !llfi_index !1609

; <label>:1168                                    ; preds = %1161
  %1169 = load i32* %1162, align 4, !tbaa !446, !llfi_index !1610
  %1170 = add nsw i32 %1169, -1, !llfi_index !1611
  store i32 %1170, i32* %1162, align 4, !tbaa !446, !llfi_index !1612
  br label %_ZN9__gnu_cxxL27__exchange_and_add_dispatchEPii176.exit.i.i.i96, !llfi_index !1613

_ZN9__gnu_cxxL27__exchange_and_add_dispatchEPii176.exit.i.i.i96: ; preds = %1168, %1163
  %.0.i.i.i.i95 = phi i32 [ %1166, %1163 ], [ %1169, %1168 ], !llfi_index !1614
  %1171 = icmp slt i32 %.0.i.i.i.i95, 1, !llfi_index !1615
  br i1 %1171, label %1172, label %_ZNSsD1Ev.exit97, !llfi_index !1616

; <label>:1172                                    ; preds = %_ZN9__gnu_cxxL27__exchange_and_add_dispatchEPii176.exit.i.i.i96
  call void @_ZNSs4_Rep10_M_destroyERKSaIcE(%"struct.std::basic_string<char, std::char_traits<char>, std::allocator<char> >::_Rep"* %1159, %"class.std::allocator"* %28) #2, !llfi_index !1617
  br label %_ZNSsD1Ev.exit97, !llfi_index !1618

_ZNSsD1Ev.exit97:                                 ; preds = %1172, %_ZN9__gnu_cxxL27__exchange_and_add_dispatchEPii176.exit.i.i.i96, %1151
  %1173 = bitcast %"class.std::allocator"* %28 to i8*, !llfi_index !1619
  call void @llvm.lifetime.end(i64 1, i8* %1173) #2, !llfi_index !1620
  br label %1174, !llfi_index !1621

; <label>:1174                                    ; preds = %_ZNSsD1Ev.exit97, %1147
  %.1019 = phi i8* [ %1149, %1147 ], [ %1153, %_ZNSsD1Ev.exit97 ], !llfi_index !1622
  %.10 = phi i32 [ %1150, %1147 ], [ %1154, %_ZNSsD1Ev.exit97 ], !llfi_index !1623
  %1175 = bitcast %"class.std::allocator"* %26 to i8*, !llfi_index !1624
  call void @llvm.lifetime.start(i64 1, i8* %1175) #2, !llfi_index !1625
  %1176 = getelementptr inbounds %"class.std::basic_string"* %113, i64 0, i32 0, i32 0, !llfi_index !1626
  %1177 = load i8** %1176, align 8, !tbaa !503, !llfi_index !1627
  %1178 = getelementptr inbounds i8* %1177, i64 -24, !llfi_index !1628
  %1179 = bitcast i8* %1178 to %"struct.std::basic_string<char, std::char_traits<char>, std::allocator<char> >::_Rep"*, !llfi_index !1629
  %1180 = icmp eq %"struct.std::basic_string<char, std::char_traits<char>, std::allocator<char> >::_Rep"* %1179, bitcast ([0 x i64]* @_ZNSs4_Rep20_S_empty_rep_storageE to %"struct.std::basic_string<char, std::char_traits<char>, std::allocator<char> >::_Rep"*), !llfi_index !1630
  br i1 %1180, label %_ZNSsD1Ev.exit100, label %1181, !prof !510, !llfi_index !1631

; <label>:1181                                    ; preds = %1174
  %1182 = getelementptr inbounds %"struct.std::basic_string<char, std::char_traits<char>, std::allocator<char> >::_Rep"* %1179, i64 0, i32 0, i32 2, !llfi_index !1632
  br i1 icmp ne (i8* bitcast (i32 (i32*, void (i8*)*)* @__pthread_key_create to i8*), i8* null), label %1183, label %1188, !llfi_index !1633

; <label>:1183                                    ; preds = %1181
  %1184 = bitcast i32* %25 to i8*, !llfi_index !1634
  call void @llvm.lifetime.start(i64 4, i8* %1184) #2, !llfi_index !1635
  %1185 = atomicrmw volatile add i32* %1182, i32 -1 acq_rel, !llfi_index !1636
  store i32 %1185, i32* %25, align 4, !llfi_index !1637
  %1186 = load volatile i32* %25, align 4, !llfi_index !1638
  %1187 = bitcast i32* %25 to i8*, !llfi_index !1639
  call void @llvm.lifetime.end(i64 4, i8* %1187) #2, !llfi_index !1640
  br label %_ZN9__gnu_cxxL27__exchange_and_add_dispatchEPii176.exit.i.i.i99, !llfi_index !1641

; <label>:1188                                    ; preds = %1181
  %1189 = load i32* %1182, align 4, !tbaa !446, !llfi_index !1642
  %1190 = add nsw i32 %1189, -1, !llfi_index !1643
  store i32 %1190, i32* %1182, align 4, !tbaa !446, !llfi_index !1644
  br label %_ZN9__gnu_cxxL27__exchange_and_add_dispatchEPii176.exit.i.i.i99, !llfi_index !1645

_ZN9__gnu_cxxL27__exchange_and_add_dispatchEPii176.exit.i.i.i99: ; preds = %1188, %1183
  %.0.i.i.i.i98 = phi i32 [ %1186, %1183 ], [ %1189, %1188 ], !llfi_index !1646
  %1191 = icmp slt i32 %.0.i.i.i.i98, 1, !llfi_index !1647
  br i1 %1191, label %1192, label %_ZNSsD1Ev.exit100, !llfi_index !1648

; <label>:1192                                    ; preds = %_ZN9__gnu_cxxL27__exchange_and_add_dispatchEPii176.exit.i.i.i99
  call void @_ZNSs4_Rep10_M_destroyERKSaIcE(%"struct.std::basic_string<char, std::char_traits<char>, std::allocator<char> >::_Rep"* %1179, %"class.std::allocator"* %26) #2, !llfi_index !1649
  br label %_ZNSsD1Ev.exit100, !llfi_index !1650

_ZNSsD1Ev.exit100:                                ; preds = %1192, %_ZN9__gnu_cxxL27__exchange_and_add_dispatchEPii176.exit.i.i.i99, %1174
  %1193 = bitcast %"class.std::allocator"* %26 to i8*, !llfi_index !1651
  call void @llvm.lifetime.end(i64 1, i8* %1193) #2, !llfi_index !1652
  br label %1194, !llfi_index !1653

; <label>:1194                                    ; preds = %_ZNSsD1Ev.exit100, %1143, %1139
  %.1221 = phi i8* [ %1141, %1139 ], [ %1145, %1143 ], [ %.1019, %_ZNSsD1Ev.exit100 ], !llfi_index !1654
  %.12 = phi i32 [ %1142, %1139 ], [ %1146, %1143 ], [ %.10, %_ZNSsD1Ev.exit100 ], !llfi_index !1655
  %1195 = bitcast %"class.std::allocator"* %24 to i8*, !llfi_index !1656
  call void @llvm.lifetime.start(i64 1, i8* %1195) #2, !llfi_index !1657
  %1196 = getelementptr inbounds %"class.std::basic_string"* %111, i64 0, i32 0, i32 0, !llfi_index !1658
  %1197 = load i8** %1196, align 8, !tbaa !503, !llfi_index !1659
  %1198 = getelementptr inbounds i8* %1197, i64 -24, !llfi_index !1660
  %1199 = bitcast i8* %1198 to %"struct.std::basic_string<char, std::char_traits<char>, std::allocator<char> >::_Rep"*, !llfi_index !1661
  %1200 = icmp eq %"struct.std::basic_string<char, std::char_traits<char>, std::allocator<char> >::_Rep"* %1199, bitcast ([0 x i64]* @_ZNSs4_Rep20_S_empty_rep_storageE to %"struct.std::basic_string<char, std::char_traits<char>, std::allocator<char> >::_Rep"*), !llfi_index !1662
  br i1 %1200, label %_ZNSsD1Ev.exit103, label %1201, !prof !510, !llfi_index !1663

; <label>:1201                                    ; preds = %1194
  %1202 = getelementptr inbounds %"struct.std::basic_string<char, std::char_traits<char>, std::allocator<char> >::_Rep"* %1199, i64 0, i32 0, i32 2, !llfi_index !1664
  br i1 icmp ne (i8* bitcast (i32 (i32*, void (i8*)*)* @__pthread_key_create to i8*), i8* null), label %1203, label %1208, !llfi_index !1665

; <label>:1203                                    ; preds = %1201
  %1204 = bitcast i32* %23 to i8*, !llfi_index !1666
  call void @llvm.lifetime.start(i64 4, i8* %1204) #2, !llfi_index !1667
  %1205 = atomicrmw volatile add i32* %1202, i32 -1 acq_rel, !llfi_index !1668
  store i32 %1205, i32* %23, align 4, !llfi_index !1669
  %1206 = load volatile i32* %23, align 4, !llfi_index !1670
  %1207 = bitcast i32* %23 to i8*, !llfi_index !1671
  call void @llvm.lifetime.end(i64 4, i8* %1207) #2, !llfi_index !1672
  br label %_ZN9__gnu_cxxL27__exchange_and_add_dispatchEPii176.exit.i.i.i102, !llfi_index !1673

; <label>:1208                                    ; preds = %1201
  %1209 = load i32* %1202, align 4, !tbaa !446, !llfi_index !1674
  %1210 = add nsw i32 %1209, -1, !llfi_index !1675
  store i32 %1210, i32* %1202, align 4, !tbaa !446, !llfi_index !1676
  br label %_ZN9__gnu_cxxL27__exchange_and_add_dispatchEPii176.exit.i.i.i102, !llfi_index !1677

_ZN9__gnu_cxxL27__exchange_and_add_dispatchEPii176.exit.i.i.i102: ; preds = %1208, %1203
  %.0.i.i.i.i101 = phi i32 [ %1206, %1203 ], [ %1209, %1208 ], !llfi_index !1678
  %1211 = icmp slt i32 %.0.i.i.i.i101, 1, !llfi_index !1679
  br i1 %1211, label %1212, label %_ZNSsD1Ev.exit103, !llfi_index !1680

; <label>:1212                                    ; preds = %_ZN9__gnu_cxxL27__exchange_and_add_dispatchEPii176.exit.i.i.i102
  call void @_ZNSs4_Rep10_M_destroyERKSaIcE(%"struct.std::basic_string<char, std::char_traits<char>, std::allocator<char> >::_Rep"* %1199, %"class.std::allocator"* %24) #2, !llfi_index !1681
  br label %_ZNSsD1Ev.exit103, !llfi_index !1682

_ZNSsD1Ev.exit103:                                ; preds = %1212, %_ZN9__gnu_cxxL27__exchange_and_add_dispatchEPii176.exit.i.i.i102, %1194
  %1213 = bitcast %"class.std::allocator"* %24 to i8*, !llfi_index !1683
  call void @llvm.lifetime.end(i64 1, i8* %1213) #2, !llfi_index !1684
  br label %1512, !llfi_index !1685

; <label>:1214                                    ; preds = %645
  %1215 = landingpad { i8*, i32 } personality i8* bitcast (i32 (...)* @__gxx_personality_v0 to i8*)
          cleanup, !llfi_index !1686
  %1216 = extractvalue { i8*, i32 } %1215, 0, !llfi_index !1687
  %1217 = extractvalue { i8*, i32 } %1215, 1, !llfi_index !1688
  br label %1512, !llfi_index !1689

; <label>:1218                                    ; preds = %646
  %1219 = landingpad { i8*, i32 } personality i8* bitcast (i32 (...)* @__gxx_personality_v0 to i8*)
          cleanup, !llfi_index !1690
  %1220 = extractvalue { i8*, i32 } %1219, 0, !llfi_index !1691
  %1221 = extractvalue { i8*, i32 } %1219, 1, !llfi_index !1692
  br label %1245, !llfi_index !1693

; <label>:1222                                    ; preds = %647
  %1223 = landingpad { i8*, i32 } personality i8* bitcast (i32 (...)* @__gxx_personality_v0 to i8*)
          cleanup, !llfi_index !1694
  %1224 = extractvalue { i8*, i32 } %1223, 0, !llfi_index !1695
  %1225 = extractvalue { i8*, i32 } %1223, 1, !llfi_index !1696
  %1226 = bitcast %"class.std::allocator"* %22 to i8*, !llfi_index !1697
  call void @llvm.lifetime.start(i64 1, i8* %1226) #2, !llfi_index !1698
  %1227 = getelementptr inbounds %"class.std::basic_string"* %119, i64 0, i32 0, i32 0, !llfi_index !1699
  %1228 = load i8** %1227, align 8, !tbaa !503, !llfi_index !1700
  %1229 = getelementptr inbounds i8* %1228, i64 -24, !llfi_index !1701
  %1230 = bitcast i8* %1229 to %"struct.std::basic_string<char, std::char_traits<char>, std::allocator<char> >::_Rep"*, !llfi_index !1702
  %1231 = icmp eq %"struct.std::basic_string<char, std::char_traits<char>, std::allocator<char> >::_Rep"* %1230, bitcast ([0 x i64]* @_ZNSs4_Rep20_S_empty_rep_storageE to %"struct.std::basic_string<char, std::char_traits<char>, std::allocator<char> >::_Rep"*), !llfi_index !1703
  br i1 %1231, label %_ZNSsD1Ev.exit106, label %1232, !prof !510, !llfi_index !1704

; <label>:1232                                    ; preds = %1222
  %1233 = getelementptr inbounds %"struct.std::basic_string<char, std::char_traits<char>, std::allocator<char> >::_Rep"* %1230, i64 0, i32 0, i32 2, !llfi_index !1705
  br i1 icmp ne (i8* bitcast (i32 (i32*, void (i8*)*)* @__pthread_key_create to i8*), i8* null), label %1234, label %1239, !llfi_index !1706

; <label>:1234                                    ; preds = %1232
  %1235 = bitcast i32* %21 to i8*, !llfi_index !1707
  call void @llvm.lifetime.start(i64 4, i8* %1235) #2, !llfi_index !1708
  %1236 = atomicrmw volatile add i32* %1233, i32 -1 acq_rel, !llfi_index !1709
  store i32 %1236, i32* %21, align 4, !llfi_index !1710
  %1237 = load volatile i32* %21, align 4, !llfi_index !1711
  %1238 = bitcast i32* %21 to i8*, !llfi_index !1712
  call void @llvm.lifetime.end(i64 4, i8* %1238) #2, !llfi_index !1713
  br label %_ZN9__gnu_cxxL27__exchange_and_add_dispatchEPii176.exit.i.i.i105, !llfi_index !1714

; <label>:1239                                    ; preds = %1232
  %1240 = load i32* %1233, align 4, !tbaa !446, !llfi_index !1715
  %1241 = add nsw i32 %1240, -1, !llfi_index !1716
  store i32 %1241, i32* %1233, align 4, !tbaa !446, !llfi_index !1717
  br label %_ZN9__gnu_cxxL27__exchange_and_add_dispatchEPii176.exit.i.i.i105, !llfi_index !1718

_ZN9__gnu_cxxL27__exchange_and_add_dispatchEPii176.exit.i.i.i105: ; preds = %1239, %1234
  %.0.i.i.i.i104 = phi i32 [ %1237, %1234 ], [ %1240, %1239 ], !llfi_index !1719
  %1242 = icmp slt i32 %.0.i.i.i.i104, 1, !llfi_index !1720
  br i1 %1242, label %1243, label %_ZNSsD1Ev.exit106, !llfi_index !1721

; <label>:1243                                    ; preds = %_ZN9__gnu_cxxL27__exchange_and_add_dispatchEPii176.exit.i.i.i105
  call void @_ZNSs4_Rep10_M_destroyERKSaIcE(%"struct.std::basic_string<char, std::char_traits<char>, std::allocator<char> >::_Rep"* %1230, %"class.std::allocator"* %22) #2, !llfi_index !1722
  br label %_ZNSsD1Ev.exit106, !llfi_index !1723

_ZNSsD1Ev.exit106:                                ; preds = %1243, %_ZN9__gnu_cxxL27__exchange_and_add_dispatchEPii176.exit.i.i.i105, %1222
  %1244 = bitcast %"class.std::allocator"* %22 to i8*, !llfi_index !1724
  call void @llvm.lifetime.end(i64 1, i8* %1244) #2, !llfi_index !1725
  br label %1245, !llfi_index !1726

; <label>:1245                                    ; preds = %_ZNSsD1Ev.exit106, %1218
  %.1423 = phi i8* [ %1220, %1218 ], [ %1224, %_ZNSsD1Ev.exit106 ], !llfi_index !1727
  %.14 = phi i32 [ %1221, %1218 ], [ %1225, %_ZNSsD1Ev.exit106 ], !llfi_index !1728
  %1246 = bitcast %"class.std::allocator"* %20 to i8*, !llfi_index !1729
  call void @llvm.lifetime.start(i64 1, i8* %1246) #2, !llfi_index !1730
  %1247 = getelementptr inbounds %"class.std::basic_string"* %117, i64 0, i32 0, i32 0, !llfi_index !1731
  %1248 = load i8** %1247, align 8, !tbaa !503, !llfi_index !1732
  %1249 = getelementptr inbounds i8* %1248, i64 -24, !llfi_index !1733
  %1250 = bitcast i8* %1249 to %"struct.std::basic_string<char, std::char_traits<char>, std::allocator<char> >::_Rep"*, !llfi_index !1734
  %1251 = icmp eq %"struct.std::basic_string<char, std::char_traits<char>, std::allocator<char> >::_Rep"* %1250, bitcast ([0 x i64]* @_ZNSs4_Rep20_S_empty_rep_storageE to %"struct.std::basic_string<char, std::char_traits<char>, std::allocator<char> >::_Rep"*), !llfi_index !1735
  br i1 %1251, label %_ZNSsD1Ev.exit109, label %1252, !prof !510, !llfi_index !1736

; <label>:1252                                    ; preds = %1245
  %1253 = getelementptr inbounds %"struct.std::basic_string<char, std::char_traits<char>, std::allocator<char> >::_Rep"* %1250, i64 0, i32 0, i32 2, !llfi_index !1737
  br i1 icmp ne (i8* bitcast (i32 (i32*, void (i8*)*)* @__pthread_key_create to i8*), i8* null), label %1254, label %1259, !llfi_index !1738

; <label>:1254                                    ; preds = %1252
  %1255 = bitcast i32* %19 to i8*, !llfi_index !1739
  call void @llvm.lifetime.start(i64 4, i8* %1255) #2, !llfi_index !1740
  %1256 = atomicrmw volatile add i32* %1253, i32 -1 acq_rel, !llfi_index !1741
  store i32 %1256, i32* %19, align 4, !llfi_index !1742
  %1257 = load volatile i32* %19, align 4, !llfi_index !1743
  %1258 = bitcast i32* %19 to i8*, !llfi_index !1744
  call void @llvm.lifetime.end(i64 4, i8* %1258) #2, !llfi_index !1745
  br label %_ZN9__gnu_cxxL27__exchange_and_add_dispatchEPii176.exit.i.i.i108, !llfi_index !1746

; <label>:1259                                    ; preds = %1252
  %1260 = load i32* %1253, align 4, !tbaa !446, !llfi_index !1747
  %1261 = add nsw i32 %1260, -1, !llfi_index !1748
  store i32 %1261, i32* %1253, align 4, !tbaa !446, !llfi_index !1749
  br label %_ZN9__gnu_cxxL27__exchange_and_add_dispatchEPii176.exit.i.i.i108, !llfi_index !1750

_ZN9__gnu_cxxL27__exchange_and_add_dispatchEPii176.exit.i.i.i108: ; preds = %1259, %1254
  %.0.i.i.i.i107 = phi i32 [ %1257, %1254 ], [ %1260, %1259 ], !llfi_index !1751
  %1262 = icmp slt i32 %.0.i.i.i.i107, 1, !llfi_index !1752
  br i1 %1262, label %1263, label %_ZNSsD1Ev.exit109, !llfi_index !1753

; <label>:1263                                    ; preds = %_ZN9__gnu_cxxL27__exchange_and_add_dispatchEPii176.exit.i.i.i108
  call void @_ZNSs4_Rep10_M_destroyERKSaIcE(%"struct.std::basic_string<char, std::char_traits<char>, std::allocator<char> >::_Rep"* %1250, %"class.std::allocator"* %20) #2, !llfi_index !1754
  br label %_ZNSsD1Ev.exit109, !llfi_index !1755

_ZNSsD1Ev.exit109:                                ; preds = %1263, %_ZN9__gnu_cxxL27__exchange_and_add_dispatchEPii176.exit.i.i.i108, %1245
  %1264 = bitcast %"class.std::allocator"* %20 to i8*, !llfi_index !1756
  call void @llvm.lifetime.end(i64 1, i8* %1264) #2, !llfi_index !1757
  br label %1512, !llfi_index !1758

; <label>:1265                                    ; preds = %689
  %1266 = landingpad { i8*, i32 } personality i8* bitcast (i32 (...)* @__gxx_personality_v0 to i8*)
          cleanup, !llfi_index !1759
  %1267 = extractvalue { i8*, i32 } %1266, 0, !llfi_index !1760
  %1268 = extractvalue { i8*, i32 } %1266, 1, !llfi_index !1761
  br label %1512, !llfi_index !1762

; <label>:1269                                    ; preds = %690
  %1270 = landingpad { i8*, i32 } personality i8* bitcast (i32 (...)* @__gxx_personality_v0 to i8*)
          cleanup, !llfi_index !1763
  %1271 = extractvalue { i8*, i32 } %1270, 0, !llfi_index !1764
  %1272 = extractvalue { i8*, i32 } %1270, 1, !llfi_index !1765
  br label %1300, !llfi_index !1766

; <label>:1273                                    ; preds = %692
  %1274 = landingpad { i8*, i32 } personality i8* bitcast (i32 (...)* @__gxx_personality_v0 to i8*)
          cleanup, !llfi_index !1767
  %1275 = extractvalue { i8*, i32 } %1274, 0, !llfi_index !1768
  %1276 = extractvalue { i8*, i32 } %1274, 1, !llfi_index !1769
  br label %1300, !llfi_index !1770

; <label>:1277                                    ; preds = %693
  %1278 = landingpad { i8*, i32 } personality i8* bitcast (i32 (...)* @__gxx_personality_v0 to i8*)
          cleanup, !llfi_index !1771
  %1279 = extractvalue { i8*, i32 } %1278, 0, !llfi_index !1772
  %1280 = extractvalue { i8*, i32 } %1278, 1, !llfi_index !1773
  %1281 = bitcast %"class.std::allocator"* %18 to i8*, !llfi_index !1774
  call void @llvm.lifetime.start(i64 1, i8* %1281) #2, !llfi_index !1775
  %1282 = getelementptr inbounds %"class.std::basic_string"* %123, i64 0, i32 0, i32 0, !llfi_index !1776
  %1283 = load i8** %1282, align 8, !tbaa !503, !llfi_index !1777
  %1284 = getelementptr inbounds i8* %1283, i64 -24, !llfi_index !1778
  %1285 = bitcast i8* %1284 to %"struct.std::basic_string<char, std::char_traits<char>, std::allocator<char> >::_Rep"*, !llfi_index !1779
  %1286 = icmp eq %"struct.std::basic_string<char, std::char_traits<char>, std::allocator<char> >::_Rep"* %1285, bitcast ([0 x i64]* @_ZNSs4_Rep20_S_empty_rep_storageE to %"struct.std::basic_string<char, std::char_traits<char>, std::allocator<char> >::_Rep"*), !llfi_index !1780
  br i1 %1286, label %_ZNSsD1Ev.exit112, label %1287, !prof !510, !llfi_index !1781

; <label>:1287                                    ; preds = %1277
  %1288 = getelementptr inbounds %"struct.std::basic_string<char, std::char_traits<char>, std::allocator<char> >::_Rep"* %1285, i64 0, i32 0, i32 2, !llfi_index !1782
  br i1 icmp ne (i8* bitcast (i32 (i32*, void (i8*)*)* @__pthread_key_create to i8*), i8* null), label %1289, label %1294, !llfi_index !1783

; <label>:1289                                    ; preds = %1287
  %1290 = bitcast i32* %17 to i8*, !llfi_index !1784
  call void @llvm.lifetime.start(i64 4, i8* %1290) #2, !llfi_index !1785
  %1291 = atomicrmw volatile add i32* %1288, i32 -1 acq_rel, !llfi_index !1786
  store i32 %1291, i32* %17, align 4, !llfi_index !1787
  %1292 = load volatile i32* %17, align 4, !llfi_index !1788
  %1293 = bitcast i32* %17 to i8*, !llfi_index !1789
  call void @llvm.lifetime.end(i64 4, i8* %1293) #2, !llfi_index !1790
  br label %_ZN9__gnu_cxxL27__exchange_and_add_dispatchEPii176.exit.i.i.i111, !llfi_index !1791

; <label>:1294                                    ; preds = %1287
  %1295 = load i32* %1288, align 4, !tbaa !446, !llfi_index !1792
  %1296 = add nsw i32 %1295, -1, !llfi_index !1793
  store i32 %1296, i32* %1288, align 4, !tbaa !446, !llfi_index !1794
  br label %_ZN9__gnu_cxxL27__exchange_and_add_dispatchEPii176.exit.i.i.i111, !llfi_index !1795

_ZN9__gnu_cxxL27__exchange_and_add_dispatchEPii176.exit.i.i.i111: ; preds = %1294, %1289
  %.0.i.i.i.i110 = phi i32 [ %1292, %1289 ], [ %1295, %1294 ], !llfi_index !1796
  %1297 = icmp slt i32 %.0.i.i.i.i110, 1, !llfi_index !1797
  br i1 %1297, label %1298, label %_ZNSsD1Ev.exit112, !llfi_index !1798

; <label>:1298                                    ; preds = %_ZN9__gnu_cxxL27__exchange_and_add_dispatchEPii176.exit.i.i.i111
  call void @_ZNSs4_Rep10_M_destroyERKSaIcE(%"struct.std::basic_string<char, std::char_traits<char>, std::allocator<char> >::_Rep"* %1285, %"class.std::allocator"* %18) #2, !llfi_index !1799
  br label %_ZNSsD1Ev.exit112, !llfi_index !1800

_ZNSsD1Ev.exit112:                                ; preds = %1298, %_ZN9__gnu_cxxL27__exchange_and_add_dispatchEPii176.exit.i.i.i111, %1277
  %1299 = bitcast %"class.std::allocator"* %18 to i8*, !llfi_index !1801
  call void @llvm.lifetime.end(i64 1, i8* %1299) #2, !llfi_index !1802
  br label %1300, !llfi_index !1803

; <label>:1300                                    ; preds = %_ZNSsD1Ev.exit112, %1273, %1269
  %.1726 = phi i8* [ %1271, %1269 ], [ %1275, %1273 ], [ %1279, %_ZNSsD1Ev.exit112 ], !llfi_index !1804
  %.17 = phi i32 [ %1272, %1269 ], [ %1276, %1273 ], [ %1280, %_ZNSsD1Ev.exit112 ], !llfi_index !1805
  %1301 = bitcast %"class.std::allocator"* %16 to i8*, !llfi_index !1806
  call void @llvm.lifetime.start(i64 1, i8* %1301) #2, !llfi_index !1807
  %1302 = getelementptr inbounds %"class.std::basic_string"* %121, i64 0, i32 0, i32 0, !llfi_index !1808
  %1303 = load i8** %1302, align 8, !tbaa !503, !llfi_index !1809
  %1304 = getelementptr inbounds i8* %1303, i64 -24, !llfi_index !1810
  %1305 = bitcast i8* %1304 to %"struct.std::basic_string<char, std::char_traits<char>, std::allocator<char> >::_Rep"*, !llfi_index !1811
  %1306 = icmp eq %"struct.std::basic_string<char, std::char_traits<char>, std::allocator<char> >::_Rep"* %1305, bitcast ([0 x i64]* @_ZNSs4_Rep20_S_empty_rep_storageE to %"struct.std::basic_string<char, std::char_traits<char>, std::allocator<char> >::_Rep"*), !llfi_index !1812
  br i1 %1306, label %_ZNSsD1Ev.exit115, label %1307, !prof !510, !llfi_index !1813

; <label>:1307                                    ; preds = %1300
  %1308 = getelementptr inbounds %"struct.std::basic_string<char, std::char_traits<char>, std::allocator<char> >::_Rep"* %1305, i64 0, i32 0, i32 2, !llfi_index !1814
  br i1 icmp ne (i8* bitcast (i32 (i32*, void (i8*)*)* @__pthread_key_create to i8*), i8* null), label %1309, label %1314, !llfi_index !1815

; <label>:1309                                    ; preds = %1307
  %1310 = bitcast i32* %15 to i8*, !llfi_index !1816
  call void @llvm.lifetime.start(i64 4, i8* %1310) #2, !llfi_index !1817
  %1311 = atomicrmw volatile add i32* %1308, i32 -1 acq_rel, !llfi_index !1818
  store i32 %1311, i32* %15, align 4, !llfi_index !1819
  %1312 = load volatile i32* %15, align 4, !llfi_index !1820
  %1313 = bitcast i32* %15 to i8*, !llfi_index !1821
  call void @llvm.lifetime.end(i64 4, i8* %1313) #2, !llfi_index !1822
  br label %_ZN9__gnu_cxxL27__exchange_and_add_dispatchEPii176.exit.i.i.i114, !llfi_index !1823

; <label>:1314                                    ; preds = %1307
  %1315 = load i32* %1308, align 4, !tbaa !446, !llfi_index !1824
  %1316 = add nsw i32 %1315, -1, !llfi_index !1825
  store i32 %1316, i32* %1308, align 4, !tbaa !446, !llfi_index !1826
  br label %_ZN9__gnu_cxxL27__exchange_and_add_dispatchEPii176.exit.i.i.i114, !llfi_index !1827

_ZN9__gnu_cxxL27__exchange_and_add_dispatchEPii176.exit.i.i.i114: ; preds = %1314, %1309
  %.0.i.i.i.i113 = phi i32 [ %1312, %1309 ], [ %1315, %1314 ], !llfi_index !1828
  %1317 = icmp slt i32 %.0.i.i.i.i113, 1, !llfi_index !1829
  br i1 %1317, label %1318, label %_ZNSsD1Ev.exit115, !llfi_index !1830

; <label>:1318                                    ; preds = %_ZN9__gnu_cxxL27__exchange_and_add_dispatchEPii176.exit.i.i.i114
  call void @_ZNSs4_Rep10_M_destroyERKSaIcE(%"struct.std::basic_string<char, std::char_traits<char>, std::allocator<char> >::_Rep"* %1305, %"class.std::allocator"* %16) #2, !llfi_index !1831
  br label %_ZNSsD1Ev.exit115, !llfi_index !1832

_ZNSsD1Ev.exit115:                                ; preds = %1318, %_ZN9__gnu_cxxL27__exchange_and_add_dispatchEPii176.exit.i.i.i114, %1300
  %1319 = bitcast %"class.std::allocator"* %16 to i8*, !llfi_index !1833
  call void @llvm.lifetime.end(i64 1, i8* %1319) #2, !llfi_index !1834
  br label %1512, !llfi_index !1835

; <label>:1320                                    ; preds = %735
  %1321 = landingpad { i8*, i32 } personality i8* bitcast (i32 (...)* @__gxx_personality_v0 to i8*)
          cleanup, !llfi_index !1836
  %1322 = extractvalue { i8*, i32 } %1321, 0, !llfi_index !1837
  %1323 = extractvalue { i8*, i32 } %1321, 1, !llfi_index !1838
  br label %1512, !llfi_index !1839

; <label>:1324                                    ; preds = %736
  %1325 = landingpad { i8*, i32 } personality i8* bitcast (i32 (...)* @__gxx_personality_v0 to i8*)
          cleanup, !llfi_index !1840
  %1326 = extractvalue { i8*, i32 } %1325, 0, !llfi_index !1841
  %1327 = extractvalue { i8*, i32 } %1325, 1, !llfi_index !1842
  br label %1355, !llfi_index !1843

; <label>:1328                                    ; preds = %738
  %1329 = landingpad { i8*, i32 } personality i8* bitcast (i32 (...)* @__gxx_personality_v0 to i8*)
          cleanup, !llfi_index !1844
  %1330 = extractvalue { i8*, i32 } %1329, 0, !llfi_index !1845
  %1331 = extractvalue { i8*, i32 } %1329, 1, !llfi_index !1846
  br label %1355, !llfi_index !1847

; <label>:1332                                    ; preds = %739
  %1333 = landingpad { i8*, i32 } personality i8* bitcast (i32 (...)* @__gxx_personality_v0 to i8*)
          cleanup, !llfi_index !1848
  %1334 = extractvalue { i8*, i32 } %1333, 0, !llfi_index !1849
  %1335 = extractvalue { i8*, i32 } %1333, 1, !llfi_index !1850
  %1336 = bitcast %"class.std::allocator"* %14 to i8*, !llfi_index !1851
  call void @llvm.lifetime.start(i64 1, i8* %1336) #2, !llfi_index !1852
  %1337 = getelementptr inbounds %"class.std::basic_string"* %127, i64 0, i32 0, i32 0, !llfi_index !1853
  %1338 = load i8** %1337, align 8, !tbaa !503, !llfi_index !1854
  %1339 = getelementptr inbounds i8* %1338, i64 -24, !llfi_index !1855
  %1340 = bitcast i8* %1339 to %"struct.std::basic_string<char, std::char_traits<char>, std::allocator<char> >::_Rep"*, !llfi_index !1856
  %1341 = icmp eq %"struct.std::basic_string<char, std::char_traits<char>, std::allocator<char> >::_Rep"* %1340, bitcast ([0 x i64]* @_ZNSs4_Rep20_S_empty_rep_storageE to %"struct.std::basic_string<char, std::char_traits<char>, std::allocator<char> >::_Rep"*), !llfi_index !1857
  br i1 %1341, label %_ZNSsD1Ev.exit118, label %1342, !prof !510, !llfi_index !1858

; <label>:1342                                    ; preds = %1332
  %1343 = getelementptr inbounds %"struct.std::basic_string<char, std::char_traits<char>, std::allocator<char> >::_Rep"* %1340, i64 0, i32 0, i32 2, !llfi_index !1859
  br i1 icmp ne (i8* bitcast (i32 (i32*, void (i8*)*)* @__pthread_key_create to i8*), i8* null), label %1344, label %1349, !llfi_index !1860

; <label>:1344                                    ; preds = %1342
  %1345 = bitcast i32* %13 to i8*, !llfi_index !1861
  call void @llvm.lifetime.start(i64 4, i8* %1345) #2, !llfi_index !1862
  %1346 = atomicrmw volatile add i32* %1343, i32 -1 acq_rel, !llfi_index !1863
  store i32 %1346, i32* %13, align 4, !llfi_index !1864
  %1347 = load volatile i32* %13, align 4, !llfi_index !1865
  %1348 = bitcast i32* %13 to i8*, !llfi_index !1866
  call void @llvm.lifetime.end(i64 4, i8* %1348) #2, !llfi_index !1867
  br label %_ZN9__gnu_cxxL27__exchange_and_add_dispatchEPii176.exit.i.i.i117, !llfi_index !1868

; <label>:1349                                    ; preds = %1342
  %1350 = load i32* %1343, align 4, !tbaa !446, !llfi_index !1869
  %1351 = add nsw i32 %1350, -1, !llfi_index !1870
  store i32 %1351, i32* %1343, align 4, !tbaa !446, !llfi_index !1871
  br label %_ZN9__gnu_cxxL27__exchange_and_add_dispatchEPii176.exit.i.i.i117, !llfi_index !1872

_ZN9__gnu_cxxL27__exchange_and_add_dispatchEPii176.exit.i.i.i117: ; preds = %1349, %1344
  %.0.i.i.i.i116 = phi i32 [ %1347, %1344 ], [ %1350, %1349 ], !llfi_index !1873
  %1352 = icmp slt i32 %.0.i.i.i.i116, 1, !llfi_index !1874
  br i1 %1352, label %1353, label %_ZNSsD1Ev.exit118, !llfi_index !1875

; <label>:1353                                    ; preds = %_ZN9__gnu_cxxL27__exchange_and_add_dispatchEPii176.exit.i.i.i117
  call void @_ZNSs4_Rep10_M_destroyERKSaIcE(%"struct.std::basic_string<char, std::char_traits<char>, std::allocator<char> >::_Rep"* %1340, %"class.std::allocator"* %14) #2, !llfi_index !1876
  br label %_ZNSsD1Ev.exit118, !llfi_index !1877

_ZNSsD1Ev.exit118:                                ; preds = %1353, %_ZN9__gnu_cxxL27__exchange_and_add_dispatchEPii176.exit.i.i.i117, %1332
  %1354 = bitcast %"class.std::allocator"* %14 to i8*, !llfi_index !1878
  call void @llvm.lifetime.end(i64 1, i8* %1354) #2, !llfi_index !1879
  br label %1355, !llfi_index !1880

; <label>:1355                                    ; preds = %_ZNSsD1Ev.exit118, %1328, %1324
  %.2029 = phi i8* [ %1326, %1324 ], [ %1330, %1328 ], [ %1334, %_ZNSsD1Ev.exit118 ], !llfi_index !1881
  %.20 = phi i32 [ %1327, %1324 ], [ %1331, %1328 ], [ %1335, %_ZNSsD1Ev.exit118 ], !llfi_index !1882
  %1356 = bitcast %"class.std::allocator"* %12 to i8*, !llfi_index !1883
  call void @llvm.lifetime.start(i64 1, i8* %1356) #2, !llfi_index !1884
  %1357 = getelementptr inbounds %"class.std::basic_string"* %125, i64 0, i32 0, i32 0, !llfi_index !1885
  %1358 = load i8** %1357, align 8, !tbaa !503, !llfi_index !1886
  %1359 = getelementptr inbounds i8* %1358, i64 -24, !llfi_index !1887
  %1360 = bitcast i8* %1359 to %"struct.std::basic_string<char, std::char_traits<char>, std::allocator<char> >::_Rep"*, !llfi_index !1888
  %1361 = icmp eq %"struct.std::basic_string<char, std::char_traits<char>, std::allocator<char> >::_Rep"* %1360, bitcast ([0 x i64]* @_ZNSs4_Rep20_S_empty_rep_storageE to %"struct.std::basic_string<char, std::char_traits<char>, std::allocator<char> >::_Rep"*), !llfi_index !1889
  br i1 %1361, label %_ZNSsD1Ev.exit121, label %1362, !prof !510, !llfi_index !1890

; <label>:1362                                    ; preds = %1355
  %1363 = getelementptr inbounds %"struct.std::basic_string<char, std::char_traits<char>, std::allocator<char> >::_Rep"* %1360, i64 0, i32 0, i32 2, !llfi_index !1891
  br i1 icmp ne (i8* bitcast (i32 (i32*, void (i8*)*)* @__pthread_key_create to i8*), i8* null), label %1364, label %1369, !llfi_index !1892

; <label>:1364                                    ; preds = %1362
  %1365 = bitcast i32* %11 to i8*, !llfi_index !1893
  call void @llvm.lifetime.start(i64 4, i8* %1365) #2, !llfi_index !1894
  %1366 = atomicrmw volatile add i32* %1363, i32 -1 acq_rel, !llfi_index !1895
  store i32 %1366, i32* %11, align 4, !llfi_index !1896
  %1367 = load volatile i32* %11, align 4, !llfi_index !1897
  %1368 = bitcast i32* %11 to i8*, !llfi_index !1898
  call void @llvm.lifetime.end(i64 4, i8* %1368) #2, !llfi_index !1899
  br label %_ZN9__gnu_cxxL27__exchange_and_add_dispatchEPii176.exit.i.i.i120, !llfi_index !1900

; <label>:1369                                    ; preds = %1362
  %1370 = load i32* %1363, align 4, !tbaa !446, !llfi_index !1901
  %1371 = add nsw i32 %1370, -1, !llfi_index !1902
  store i32 %1371, i32* %1363, align 4, !tbaa !446, !llfi_index !1903
  br label %_ZN9__gnu_cxxL27__exchange_and_add_dispatchEPii176.exit.i.i.i120, !llfi_index !1904

_ZN9__gnu_cxxL27__exchange_and_add_dispatchEPii176.exit.i.i.i120: ; preds = %1369, %1364
  %.0.i.i.i.i119 = phi i32 [ %1367, %1364 ], [ %1370, %1369 ], !llfi_index !1905
  %1372 = icmp slt i32 %.0.i.i.i.i119, 1, !llfi_index !1906
  br i1 %1372, label %1373, label %_ZNSsD1Ev.exit121, !llfi_index !1907

; <label>:1373                                    ; preds = %_ZN9__gnu_cxxL27__exchange_and_add_dispatchEPii176.exit.i.i.i120
  call void @_ZNSs4_Rep10_M_destroyERKSaIcE(%"struct.std::basic_string<char, std::char_traits<char>, std::allocator<char> >::_Rep"* %1360, %"class.std::allocator"* %12) #2, !llfi_index !1908
  br label %_ZNSsD1Ev.exit121, !llfi_index !1909

_ZNSsD1Ev.exit121:                                ; preds = %1373, %_ZN9__gnu_cxxL27__exchange_and_add_dispatchEPii176.exit.i.i.i120, %1355
  %1374 = bitcast %"class.std::allocator"* %12 to i8*, !llfi_index !1910
  call void @llvm.lifetime.end(i64 1, i8* %1374) #2, !llfi_index !1911
  br label %1512, !llfi_index !1912

; <label>:1375                                    ; preds = %781
  %1376 = landingpad { i8*, i32 } personality i8* bitcast (i32 (...)* @__gxx_personality_v0 to i8*)
          cleanup, !llfi_index !1913
  %1377 = extractvalue { i8*, i32 } %1376, 0, !llfi_index !1914
  %1378 = extractvalue { i8*, i32 } %1376, 1, !llfi_index !1915
  br label %1512, !llfi_index !1916

; <label>:1379                                    ; preds = %782
  %1380 = landingpad { i8*, i32 } personality i8* bitcast (i32 (...)* @__gxx_personality_v0 to i8*)
          cleanup, !llfi_index !1917
  %1381 = extractvalue { i8*, i32 } %1380, 0, !llfi_index !1918
  %1382 = extractvalue { i8*, i32 } %1380, 1, !llfi_index !1919
  br label %1410, !llfi_index !1920

; <label>:1383                                    ; preds = %784
  %1384 = landingpad { i8*, i32 } personality i8* bitcast (i32 (...)* @__gxx_personality_v0 to i8*)
          cleanup, !llfi_index !1921
  %1385 = extractvalue { i8*, i32 } %1384, 0, !llfi_index !1922
  %1386 = extractvalue { i8*, i32 } %1384, 1, !llfi_index !1923
  br label %1410, !llfi_index !1924

; <label>:1387                                    ; preds = %785
  %1388 = landingpad { i8*, i32 } personality i8* bitcast (i32 (...)* @__gxx_personality_v0 to i8*)
          cleanup, !llfi_index !1925
  %1389 = extractvalue { i8*, i32 } %1388, 0, !llfi_index !1926
  %1390 = extractvalue { i8*, i32 } %1388, 1, !llfi_index !1927
  %1391 = bitcast %"class.std::allocator"* %10 to i8*, !llfi_index !1928
  call void @llvm.lifetime.start(i64 1, i8* %1391) #2, !llfi_index !1929
  %1392 = getelementptr inbounds %"class.std::basic_string"* %131, i64 0, i32 0, i32 0, !llfi_index !1930
  %1393 = load i8** %1392, align 8, !tbaa !503, !llfi_index !1931
  %1394 = getelementptr inbounds i8* %1393, i64 -24, !llfi_index !1932
  %1395 = bitcast i8* %1394 to %"struct.std::basic_string<char, std::char_traits<char>, std::allocator<char> >::_Rep"*, !llfi_index !1933
  %1396 = icmp eq %"struct.std::basic_string<char, std::char_traits<char>, std::allocator<char> >::_Rep"* %1395, bitcast ([0 x i64]* @_ZNSs4_Rep20_S_empty_rep_storageE to %"struct.std::basic_string<char, std::char_traits<char>, std::allocator<char> >::_Rep"*), !llfi_index !1934
  br i1 %1396, label %_ZNSsD1Ev.exit124, label %1397, !prof !510, !llfi_index !1935

; <label>:1397                                    ; preds = %1387
  %1398 = getelementptr inbounds %"struct.std::basic_string<char, std::char_traits<char>, std::allocator<char> >::_Rep"* %1395, i64 0, i32 0, i32 2, !llfi_index !1936
  br i1 icmp ne (i8* bitcast (i32 (i32*, void (i8*)*)* @__pthread_key_create to i8*), i8* null), label %1399, label %1404, !llfi_index !1937

; <label>:1399                                    ; preds = %1397
  %1400 = bitcast i32* %9 to i8*, !llfi_index !1938
  call void @llvm.lifetime.start(i64 4, i8* %1400) #2, !llfi_index !1939
  %1401 = atomicrmw volatile add i32* %1398, i32 -1 acq_rel, !llfi_index !1940
  store i32 %1401, i32* %9, align 4, !llfi_index !1941
  %1402 = load volatile i32* %9, align 4, !llfi_index !1942
  %1403 = bitcast i32* %9 to i8*, !llfi_index !1943
  call void @llvm.lifetime.end(i64 4, i8* %1403) #2, !llfi_index !1944
  br label %_ZN9__gnu_cxxL27__exchange_and_add_dispatchEPii176.exit.i.i.i123, !llfi_index !1945

; <label>:1404                                    ; preds = %1397
  %1405 = load i32* %1398, align 4, !tbaa !446, !llfi_index !1946
  %1406 = add nsw i32 %1405, -1, !llfi_index !1947
  store i32 %1406, i32* %1398, align 4, !tbaa !446, !llfi_index !1948
  br label %_ZN9__gnu_cxxL27__exchange_and_add_dispatchEPii176.exit.i.i.i123, !llfi_index !1949

_ZN9__gnu_cxxL27__exchange_and_add_dispatchEPii176.exit.i.i.i123: ; preds = %1404, %1399
  %.0.i.i.i.i122 = phi i32 [ %1402, %1399 ], [ %1405, %1404 ], !llfi_index !1950
  %1407 = icmp slt i32 %.0.i.i.i.i122, 1, !llfi_index !1951
  br i1 %1407, label %1408, label %_ZNSsD1Ev.exit124, !llfi_index !1952

; <label>:1408                                    ; preds = %_ZN9__gnu_cxxL27__exchange_and_add_dispatchEPii176.exit.i.i.i123
  call void @_ZNSs4_Rep10_M_destroyERKSaIcE(%"struct.std::basic_string<char, std::char_traits<char>, std::allocator<char> >::_Rep"* %1395, %"class.std::allocator"* %10) #2, !llfi_index !1953
  br label %_ZNSsD1Ev.exit124, !llfi_index !1954

_ZNSsD1Ev.exit124:                                ; preds = %1408, %_ZN9__gnu_cxxL27__exchange_and_add_dispatchEPii176.exit.i.i.i123, %1387
  %1409 = bitcast %"class.std::allocator"* %10 to i8*, !llfi_index !1955
  call void @llvm.lifetime.end(i64 1, i8* %1409) #2, !llfi_index !1956
  br label %1410, !llfi_index !1957

; <label>:1410                                    ; preds = %_ZNSsD1Ev.exit124, %1383, %1379
  %.2332 = phi i8* [ %1381, %1379 ], [ %1385, %1383 ], [ %1389, %_ZNSsD1Ev.exit124 ], !llfi_index !1958
  %.23 = phi i32 [ %1382, %1379 ], [ %1386, %1383 ], [ %1390, %_ZNSsD1Ev.exit124 ], !llfi_index !1959
  %1411 = bitcast %"class.std::allocator"* %8 to i8*, !llfi_index !1960
  call void @llvm.lifetime.start(i64 1, i8* %1411) #2, !llfi_index !1961
  %1412 = getelementptr inbounds %"class.std::basic_string"* %129, i64 0, i32 0, i32 0, !llfi_index !1962
  %1413 = load i8** %1412, align 8, !tbaa !503, !llfi_index !1963
  %1414 = getelementptr inbounds i8* %1413, i64 -24, !llfi_index !1964
  %1415 = bitcast i8* %1414 to %"struct.std::basic_string<char, std::char_traits<char>, std::allocator<char> >::_Rep"*, !llfi_index !1965
  %1416 = icmp eq %"struct.std::basic_string<char, std::char_traits<char>, std::allocator<char> >::_Rep"* %1415, bitcast ([0 x i64]* @_ZNSs4_Rep20_S_empty_rep_storageE to %"struct.std::basic_string<char, std::char_traits<char>, std::allocator<char> >::_Rep"*), !llfi_index !1966
  br i1 %1416, label %_ZNSsD1Ev.exit127, label %1417, !prof !510, !llfi_index !1967

; <label>:1417                                    ; preds = %1410
  %1418 = getelementptr inbounds %"struct.std::basic_string<char, std::char_traits<char>, std::allocator<char> >::_Rep"* %1415, i64 0, i32 0, i32 2, !llfi_index !1968
  br i1 icmp ne (i8* bitcast (i32 (i32*, void (i8*)*)* @__pthread_key_create to i8*), i8* null), label %1419, label %1424, !llfi_index !1969

; <label>:1419                                    ; preds = %1417
  %1420 = bitcast i32* %7 to i8*, !llfi_index !1970
  call void @llvm.lifetime.start(i64 4, i8* %1420) #2, !llfi_index !1971
  %1421 = atomicrmw volatile add i32* %1418, i32 -1 acq_rel, !llfi_index !1972
  store i32 %1421, i32* %7, align 4, !llfi_index !1973
  %1422 = load volatile i32* %7, align 4, !llfi_index !1974
  %1423 = bitcast i32* %7 to i8*, !llfi_index !1975
  call void @llvm.lifetime.end(i64 4, i8* %1423) #2, !llfi_index !1976
  br label %_ZN9__gnu_cxxL27__exchange_and_add_dispatchEPii176.exit.i.i.i126, !llfi_index !1977

; <label>:1424                                    ; preds = %1417
  %1425 = load i32* %1418, align 4, !tbaa !446, !llfi_index !1978
  %1426 = add nsw i32 %1425, -1, !llfi_index !1979
  store i32 %1426, i32* %1418, align 4, !tbaa !446, !llfi_index !1980
  br label %_ZN9__gnu_cxxL27__exchange_and_add_dispatchEPii176.exit.i.i.i126, !llfi_index !1981

_ZN9__gnu_cxxL27__exchange_and_add_dispatchEPii176.exit.i.i.i126: ; preds = %1424, %1419
  %.0.i.i.i.i125 = phi i32 [ %1422, %1419 ], [ %1425, %1424 ], !llfi_index !1982
  %1427 = icmp slt i32 %.0.i.i.i.i125, 1, !llfi_index !1983
  br i1 %1427, label %1428, label %_ZNSsD1Ev.exit127, !llfi_index !1984

; <label>:1428                                    ; preds = %_ZN9__gnu_cxxL27__exchange_and_add_dispatchEPii176.exit.i.i.i126
  call void @_ZNSs4_Rep10_M_destroyERKSaIcE(%"struct.std::basic_string<char, std::char_traits<char>, std::allocator<char> >::_Rep"* %1415, %"class.std::allocator"* %8) #2, !llfi_index !1985
  br label %_ZNSsD1Ev.exit127, !llfi_index !1986

_ZNSsD1Ev.exit127:                                ; preds = %1428, %_ZN9__gnu_cxxL27__exchange_and_add_dispatchEPii176.exit.i.i.i126, %1410
  %1429 = bitcast %"class.std::allocator"* %8 to i8*, !llfi_index !1987
  call void @llvm.lifetime.end(i64 1, i8* %1429) #2, !llfi_index !1988
  br label %1512, !llfi_index !1989

; <label>:1430                                    ; preds = %827
  %1431 = landingpad { i8*, i32 } personality i8* bitcast (i32 (...)* @__gxx_personality_v0 to i8*)
          cleanup, !llfi_index !1990
  %1432 = extractvalue { i8*, i32 } %1431, 0, !llfi_index !1991
  %1433 = extractvalue { i8*, i32 } %1431, 1, !llfi_index !1992
  br label %1512, !llfi_index !1993

; <label>:1434                                    ; preds = %828
  %1435 = landingpad { i8*, i32 } personality i8* bitcast (i32 (...)* @__gxx_personality_v0 to i8*)
          cleanup, !llfi_index !1994
  %1436 = extractvalue { i8*, i32 } %1435, 0, !llfi_index !1995
  %1437 = extractvalue { i8*, i32 } %1435, 1, !llfi_index !1996
  %1438 = bitcast %"class.std::allocator"* %6 to i8*, !llfi_index !1997
  call void @llvm.lifetime.start(i64 1, i8* %1438) #2, !llfi_index !1998
  %1439 = getelementptr inbounds %"class.std::basic_string"* %133, i64 0, i32 0, i32 0, !llfi_index !1999
  %1440 = load i8** %1439, align 8, !tbaa !503, !llfi_index !2000
  %1441 = getelementptr inbounds i8* %1440, i64 -24, !llfi_index !2001
  %1442 = bitcast i8* %1441 to %"struct.std::basic_string<char, std::char_traits<char>, std::allocator<char> >::_Rep"*, !llfi_index !2002
  %1443 = icmp eq %"struct.std::basic_string<char, std::char_traits<char>, std::allocator<char> >::_Rep"* %1442, bitcast ([0 x i64]* @_ZNSs4_Rep20_S_empty_rep_storageE to %"struct.std::basic_string<char, std::char_traits<char>, std::allocator<char> >::_Rep"*), !llfi_index !2003
  br i1 %1443, label %_ZNSsD1Ev.exit130, label %1444, !prof !510, !llfi_index !2004

; <label>:1444                                    ; preds = %1434
  %1445 = getelementptr inbounds %"struct.std::basic_string<char, std::char_traits<char>, std::allocator<char> >::_Rep"* %1442, i64 0, i32 0, i32 2, !llfi_index !2005
  br i1 icmp ne (i8* bitcast (i32 (i32*, void (i8*)*)* @__pthread_key_create to i8*), i8* null), label %1446, label %1451, !llfi_index !2006

; <label>:1446                                    ; preds = %1444
  %1447 = bitcast i32* %5 to i8*, !llfi_index !2007
  call void @llvm.lifetime.start(i64 4, i8* %1447) #2, !llfi_index !2008
  %1448 = atomicrmw volatile add i32* %1445, i32 -1 acq_rel, !llfi_index !2009
  store i32 %1448, i32* %5, align 4, !llfi_index !2010
  %1449 = load volatile i32* %5, align 4, !llfi_index !2011
  %1450 = bitcast i32* %5 to i8*, !llfi_index !2012
  call void @llvm.lifetime.end(i64 4, i8* %1450) #2, !llfi_index !2013
  br label %_ZN9__gnu_cxxL27__exchange_and_add_dispatchEPii176.exit.i.i.i129, !llfi_index !2014

; <label>:1451                                    ; preds = %1444
  %1452 = load i32* %1445, align 4, !tbaa !446, !llfi_index !2015
  %1453 = add nsw i32 %1452, -1, !llfi_index !2016
  store i32 %1453, i32* %1445, align 4, !tbaa !446, !llfi_index !2017
  br label %_ZN9__gnu_cxxL27__exchange_and_add_dispatchEPii176.exit.i.i.i129, !llfi_index !2018

_ZN9__gnu_cxxL27__exchange_and_add_dispatchEPii176.exit.i.i.i129: ; preds = %1451, %1446
  %.0.i.i.i.i128 = phi i32 [ %1449, %1446 ], [ %1452, %1451 ], !llfi_index !2019
  %1454 = icmp slt i32 %.0.i.i.i.i128, 1, !llfi_index !2020
  br i1 %1454, label %1455, label %_ZNSsD1Ev.exit130, !llfi_index !2021

; <label>:1455                                    ; preds = %_ZN9__gnu_cxxL27__exchange_and_add_dispatchEPii176.exit.i.i.i129
  call void @_ZNSs4_Rep10_M_destroyERKSaIcE(%"struct.std::basic_string<char, std::char_traits<char>, std::allocator<char> >::_Rep"* %1442, %"class.std::allocator"* %6) #2, !llfi_index !2022
  br label %_ZNSsD1Ev.exit130, !llfi_index !2023

_ZNSsD1Ev.exit130:                                ; preds = %1455, %_ZN9__gnu_cxxL27__exchange_and_add_dispatchEPii176.exit.i.i.i129, %1434
  %1456 = bitcast %"class.std::allocator"* %6 to i8*, !llfi_index !2024
  call void @llvm.lifetime.end(i64 1, i8* %1456) #2, !llfi_index !2025
  br label %1512, !llfi_index !2026

; <label>:1457                                    ; preds = %851
  %1458 = landingpad { i8*, i32 } personality i8* bitcast (i32 (...)* @__gxx_personality_v0 to i8*)
          cleanup, !llfi_index !2027
  %1459 = extractvalue { i8*, i32 } %1458, 0, !llfi_index !2028
  %1460 = extractvalue { i8*, i32 } %1458, 1, !llfi_index !2029
  br label %1512, !llfi_index !2030

; <label>:1461                                    ; preds = %852
  %1462 = landingpad { i8*, i32 } personality i8* bitcast (i32 (...)* @__gxx_personality_v0 to i8*)
          cleanup, !llfi_index !2031
  %1463 = extractvalue { i8*, i32 } %1462, 0, !llfi_index !2032
  %1464 = extractvalue { i8*, i32 } %1462, 1, !llfi_index !2033
  %1465 = bitcast %"class.std::allocator"* %4 to i8*, !llfi_index !2034
  call void @llvm.lifetime.start(i64 1, i8* %1465) #2, !llfi_index !2035
  %1466 = getelementptr inbounds %"class.std::basic_string"* %135, i64 0, i32 0, i32 0, !llfi_index !2036
  %1467 = load i8** %1466, align 8, !tbaa !503, !llfi_index !2037
  %1468 = getelementptr inbounds i8* %1467, i64 -24, !llfi_index !2038
  %1469 = bitcast i8* %1468 to %"struct.std::basic_string<char, std::char_traits<char>, std::allocator<char> >::_Rep"*, !llfi_index !2039
  %1470 = icmp eq %"struct.std::basic_string<char, std::char_traits<char>, std::allocator<char> >::_Rep"* %1469, bitcast ([0 x i64]* @_ZNSs4_Rep20_S_empty_rep_storageE to %"struct.std::basic_string<char, std::char_traits<char>, std::allocator<char> >::_Rep"*), !llfi_index !2040
  br i1 %1470, label %_ZNSsD1Ev.exit133, label %1471, !prof !510, !llfi_index !2041

; <label>:1471                                    ; preds = %1461
  %1472 = getelementptr inbounds %"struct.std::basic_string<char, std::char_traits<char>, std::allocator<char> >::_Rep"* %1469, i64 0, i32 0, i32 2, !llfi_index !2042
  br i1 icmp ne (i8* bitcast (i32 (i32*, void (i8*)*)* @__pthread_key_create to i8*), i8* null), label %1473, label %1478, !llfi_index !2043

; <label>:1473                                    ; preds = %1471
  %1474 = bitcast i32* %3 to i8*, !llfi_index !2044
  call void @llvm.lifetime.start(i64 4, i8* %1474) #2, !llfi_index !2045
  %1475 = atomicrmw volatile add i32* %1472, i32 -1 acq_rel, !llfi_index !2046
  store i32 %1475, i32* %3, align 4, !llfi_index !2047
  %1476 = load volatile i32* %3, align 4, !llfi_index !2048
  %1477 = bitcast i32* %3 to i8*, !llfi_index !2049
  call void @llvm.lifetime.end(i64 4, i8* %1477) #2, !llfi_index !2050
  br label %_ZN9__gnu_cxxL27__exchange_and_add_dispatchEPii176.exit.i.i.i132, !llfi_index !2051

; <label>:1478                                    ; preds = %1471
  %1479 = load i32* %1472, align 4, !tbaa !446, !llfi_index !2052
  %1480 = add nsw i32 %1479, -1, !llfi_index !2053
  store i32 %1480, i32* %1472, align 4, !tbaa !446, !llfi_index !2054
  br label %_ZN9__gnu_cxxL27__exchange_and_add_dispatchEPii176.exit.i.i.i132, !llfi_index !2055

_ZN9__gnu_cxxL27__exchange_and_add_dispatchEPii176.exit.i.i.i132: ; preds = %1478, %1473
  %.0.i.i.i.i131 = phi i32 [ %1476, %1473 ], [ %1479, %1478 ], !llfi_index !2056
  %1481 = icmp slt i32 %.0.i.i.i.i131, 1, !llfi_index !2057
  br i1 %1481, label %1482, label %_ZNSsD1Ev.exit133, !llfi_index !2058

; <label>:1482                                    ; preds = %_ZN9__gnu_cxxL27__exchange_and_add_dispatchEPii176.exit.i.i.i132
  call void @_ZNSs4_Rep10_M_destroyERKSaIcE(%"struct.std::basic_string<char, std::char_traits<char>, std::allocator<char> >::_Rep"* %1469, %"class.std::allocator"* %4) #2, !llfi_index !2059
  br label %_ZNSsD1Ev.exit133, !llfi_index !2060

_ZNSsD1Ev.exit133:                                ; preds = %1482, %_ZN9__gnu_cxxL27__exchange_and_add_dispatchEPii176.exit.i.i.i132, %1461
  %1483 = bitcast %"class.std::allocator"* %4 to i8*, !llfi_index !2061
  call void @llvm.lifetime.end(i64 1, i8* %1483) #2, !llfi_index !2062
  br label %1512, !llfi_index !2063

; <label>:1484                                    ; preds = %875
  %1485 = landingpad { i8*, i32 } personality i8* bitcast (i32 (...)* @__gxx_personality_v0 to i8*)
          cleanup, !llfi_index !2064
  %1486 = extractvalue { i8*, i32 } %1485, 0, !llfi_index !2065
  %1487 = extractvalue { i8*, i32 } %1485, 1, !llfi_index !2066
  br label %1512, !llfi_index !2067

; <label>:1488                                    ; preds = %876
  %1489 = landingpad { i8*, i32 } personality i8* bitcast (i32 (...)* @__gxx_personality_v0 to i8*)
          cleanup, !llfi_index !2068
  %1490 = extractvalue { i8*, i32 } %1489, 0, !llfi_index !2069
  %1491 = extractvalue { i8*, i32 } %1489, 1, !llfi_index !2070
  %1492 = bitcast %"class.std::allocator"* %2 to i8*, !llfi_index !2071
  call void @llvm.lifetime.start(i64 1, i8* %1492) #2, !llfi_index !2072
  %1493 = getelementptr inbounds %"class.std::basic_string"* %yaml, i64 0, i32 0, i32 0, !llfi_index !2073
  %1494 = load i8** %1493, align 8, !tbaa !503, !llfi_index !2074
  %1495 = getelementptr inbounds i8* %1494, i64 -24, !llfi_index !2075
  %1496 = bitcast i8* %1495 to %"struct.std::basic_string<char, std::char_traits<char>, std::allocator<char> >::_Rep"*, !llfi_index !2076
  %1497 = icmp eq %"struct.std::basic_string<char, std::char_traits<char>, std::allocator<char> >::_Rep"* %1496, bitcast ([0 x i64]* @_ZNSs4_Rep20_S_empty_rep_storageE to %"struct.std::basic_string<char, std::char_traits<char>, std::allocator<char> >::_Rep"*), !llfi_index !2077
  br i1 %1497, label %_ZNSsD1Ev.exit136, label %1498, !prof !510, !llfi_index !2078

; <label>:1498                                    ; preds = %1488
  %1499 = getelementptr inbounds %"struct.std::basic_string<char, std::char_traits<char>, std::allocator<char> >::_Rep"* %1496, i64 0, i32 0, i32 2, !llfi_index !2079
  br i1 icmp ne (i8* bitcast (i32 (i32*, void (i8*)*)* @__pthread_key_create to i8*), i8* null), label %1500, label %1505, !llfi_index !2080

; <label>:1500                                    ; preds = %1498
  %1501 = bitcast i32* %1 to i8*, !llfi_index !2081
  call void @llvm.lifetime.start(i64 4, i8* %1501) #2, !llfi_index !2082
  %1502 = atomicrmw volatile add i32* %1499, i32 -1 acq_rel, !llfi_index !2083
  store i32 %1502, i32* %1, align 4, !llfi_index !2084
  %1503 = load volatile i32* %1, align 4, !llfi_index !2085
  %1504 = bitcast i32* %1 to i8*, !llfi_index !2086
  call void @llvm.lifetime.end(i64 4, i8* %1504) #2, !llfi_index !2087
  br label %_ZN9__gnu_cxxL27__exchange_and_add_dispatchEPii176.exit.i.i.i135, !llfi_index !2088

; <label>:1505                                    ; preds = %1498
  %1506 = load i32* %1499, align 4, !tbaa !446, !llfi_index !2089
  %1507 = add nsw i32 %1506, -1, !llfi_index !2090
  store i32 %1507, i32* %1499, align 4, !tbaa !446, !llfi_index !2091
  br label %_ZN9__gnu_cxxL27__exchange_and_add_dispatchEPii176.exit.i.i.i135, !llfi_index !2092

_ZN9__gnu_cxxL27__exchange_and_add_dispatchEPii176.exit.i.i.i135: ; preds = %1505, %1500
  %.0.i.i.i.i134 = phi i32 [ %1503, %1500 ], [ %1506, %1505 ], !llfi_index !2093
  %1508 = icmp slt i32 %.0.i.i.i.i134, 1, !llfi_index !2094
  br i1 %1508, label %1509, label %_ZNSsD1Ev.exit136, !llfi_index !2095

; <label>:1509                                    ; preds = %_ZN9__gnu_cxxL27__exchange_and_add_dispatchEPii176.exit.i.i.i135
  call void @_ZNSs4_Rep10_M_destroyERKSaIcE(%"struct.std::basic_string<char, std::char_traits<char>, std::allocator<char> >::_Rep"* %1496, %"class.std::allocator"* %2) #2, !llfi_index !2096
  br label %_ZNSsD1Ev.exit136, !llfi_index !2097

_ZNSsD1Ev.exit136:                                ; preds = %1509, %_ZN9__gnu_cxxL27__exchange_and_add_dispatchEPii176.exit.i.i.i135, %1488
  %1510 = bitcast %"class.std::allocator"* %2 to i8*, !llfi_index !2098
  call void @llvm.lifetime.end(i64 1, i8* %1510) #2, !llfi_index !2099
  br label %1512, !llfi_index !2100

; <label>:1511                                    ; preds = %_ZNSsD1Ev.exit67
  call void @_ZN8YAML_DocD1Ev(%class.YAML_Doc* %doc), !llfi_index !2101
  call void @llvm.lifetime.end(i64 72, i8* %381) #2, !llfi_index !2102
  call void @exit(i32 0) #15, !llfi_index !2103
  unreachable, !llfi_index !2104

; <label>:1512                                    ; preds = %_ZNSsD1Ev.exit136, %1484, %_ZNSsD1Ev.exit133, %1457, %_ZNSsD1Ev.exit130, %1430, %_ZNSsD1Ev.exit127, %1375, %_ZNSsD1Ev.exit121, %1320, %_ZNSsD1Ev.exit115, %1265, %_ZNSsD1Ev.exit109, %1214, %_ZNSsD1Ev.exit103, %1135, %_ZNSsD1Ev.exit94, %1056, %_ZNSsD1Ev.exit85, %1005
  %.2736 = phi i8* [ %1486, %1484 ], [ %1490, %_ZNSsD1Ev.exit136 ], [ %1007, %1005 ], [ %.413, %_ZNSsD1Ev.exit85 ], [ %1058, %1056 ], [ %.817, %_ZNSsD1Ev.exit94 ], [ %1137, %1135 ], [ %.1221, %_ZNSsD1Ev.exit103 ], [ %1216, %1214 ], [ %.1423, %_ZNSsD1Ev.exit109 ], [ %1267, %1265 ], [ %.1726, %_ZNSsD1Ev.exit115 ], [ %1322, %1320 ], [ %.2029, %_ZNSsD1Ev.exit121 ], [ %1377, %1375 ], [ %.2332, %_ZNSsD1Ev.exit127 ], [ %1432, %1430 ], [ %1436, %_ZNSsD1Ev.exit130 ], [ %1459, %1457 ], [ %1463, %_ZNSsD1Ev.exit133 ], !llfi_index !2105
  %.27 = phi i32 [ %1487, %1484 ], [ %1491, %_ZNSsD1Ev.exit136 ], [ %1008, %1005 ], [ %.4, %_ZNSsD1Ev.exit85 ], [ %1059, %1056 ], [ %.8, %_ZNSsD1Ev.exit94 ], [ %1138, %1135 ], [ %.12, %_ZNSsD1Ev.exit103 ], [ %1217, %1214 ], [ %.14, %_ZNSsD1Ev.exit109 ], [ %1268, %1265 ], [ %.17, %_ZNSsD1Ev.exit115 ], [ %1323, %1320 ], [ %.20, %_ZNSsD1Ev.exit121 ], [ %1378, %1375 ], [ %.23, %_ZNSsD1Ev.exit127 ], [ %1433, %1430 ], [ %1437, %_ZNSsD1Ev.exit130 ], [ %1460, %1457 ], [ %1464, %_ZNSsD1Ev.exit133 ], !llfi_index !2106
  invoke void @_ZN8YAML_DocD1Ev(%class.YAML_Doc* %doc)
          to label %1513 unwind label %1516, !llfi_index !2107

; <label>:1513                                    ; preds = %1512, %_ZNSsD1Ev.exit79, %906
  %.2837 = phi i8* [ %.2736, %1512 ], [ %908, %906 ], [ %.211, %_ZNSsD1Ev.exit79 ], !llfi_index !2108
  %.28 = phi i32 [ %.27, %1512 ], [ %909, %906 ], [ %.2, %_ZNSsD1Ev.exit79 ], !llfi_index !2109
  %1514 = insertvalue { i8*, i32 } undef, i8* %.2837, 0, !llfi_index !2110
  %1515 = insertvalue { i8*, i32 } %1514, i32 %.28, 1, !llfi_index !2111
  resume { i8*, i32 } %1515, !llfi_index !2112

; <label>:1516                                    ; preds = %1512
  %1517 = landingpad { i8*, i32 } personality i8* bitcast (i32 (...)* @__gxx_personality_v0 to i8*)
          catch i8* null, !llfi_index !2113
  %1518 = extractvalue { i8*, i32 } %1517, 0, !llfi_index !2114
  call void @__clang_call_terminate(i8* %1518) #15, !llfi_index !2115
  unreachable, !llfi_index !2116
}

; Function Attrs: nounwind
declare void @llvm.lifetime.start(i64, i8* nocapture) #2

; Function Attrs: noreturn nounwind
declare void @exit(i32) #4

declare %"class.std::basic_ostream"* @_ZNSolsEi(%"class.std::basic_ostream"*, i32) #1

declare void @_ZNSsC1EPKcRKSaIcE(%"class.std::basic_string"*, i8*, %"class.std::allocator"*) #1

declare i32 @__gxx_personality_v0(...)

declare i8* @__cxa_begin_catch(i8*)

declare void @_ZSt9terminatev()

; Function Attrs: nounwind
declare void @llvm.lifetime.end(i64, i8* nocapture) #2

declare %"class.std::basic_ostream"* @_ZSt16__ostream_insertIcSt11char_traitsIcEERSt13basic_ostreamIT_T0_ES6_PKS3_l(%"class.std::basic_ostream"*, i8*, i64) #1

declare %"class.std::basic_ostream"* @_ZNSo3putEc(%"class.std::basic_ostream"*, i8 signext) #1

declare void @_ZNKSt5ctypeIcE13_M_widen_initEv(%"class.std::ctype"*) #1

; Function Attrs: noreturn
declare void @_ZSt16__throw_bad_castv() #5

declare %"class.std::basic_ostream"* @_ZNSo5flushEv(%"class.std::basic_ostream"*) #1

; Function Attrs: nounwind readonly
declare i64 @strlen(i8* nocapture) #6

declare void @_ZNSt9basic_iosIcSt11char_traitsIcEE5clearESt12_Ios_Iostate(%"class.std::basic_ios"*, i32) #1

; Function Attrs: nounwind
declare void @_ZNSs4_Rep10_M_destroyERKSaIcE(%"struct.std::basic_string<char, std::char_traits<char>, std::allocator<char> >::_Rep"*, %"class.std::allocator"*) #7

; Function Attrs: nounwind
declare i64 @strtol(i8* readonly, i8** nocapture, i32) #7

define internal void @_GLOBAL__I_a() section ".text.startup" {
  tail call void @_ZNSt8ios_base4InitC1Ev(%"class.std::ios_base::Init"* @_ZStL8__ioinit), !llfi_index !2117
  %1 = tail call i32 @__cxa_atexit(void (i8*)* bitcast (void (%"class.std::ios_base::Init"*)* @_ZNSt8ios_base4InitD1Ev to void (i8*)*), i8* getelementptr inbounds (%"class.std::ios_base::Init"* @_ZStL8__ioinit, i64 0, i32 0), i8* @__dso_handle) #2, !llfi_index !2118
  ret void, !llfi_index !2119
}

; Function Attrs: noinline noreturn nounwind
define linkonce_odr hidden void @__clang_call_terminate(i8*) #8 {
  %2 = tail call i8* @__cxa_begin_catch(i8* %0) #2, !llfi_index !2120
  tail call void @_ZSt9terminatev() #15, !llfi_index !2121
  unreachable, !llfi_index !2122
}

; Function Attrs: uwtable
define i32 @_Z5HPCCGP24HPC_Sparse_Matrix_STRUCTPKdPdidRiRdS3_(%struct.HPC_Sparse_Matrix_STRUCT* %A, double* %b, double* %x, i32 %max_iter, double %tolerance, i32* nocapture %niters, double* nocapture %normr, double* nocapture %times) #9 {
  %ruse.i83 = alloca %struct.rusage, align 8, !llfi_index !2123
  %ruse.i82 = alloca %struct.rusage, align 8, !llfi_index !2124
  %ruse.i67 = alloca %struct.rusage, align 8, !llfi_index !2125
  %ruse.i66 = alloca %struct.rusage, align 8, !llfi_index !2126
  %ruse.i59 = alloca %struct.rusage, align 8, !llfi_index !2127
  %ruse.i58 = alloca %struct.rusage, align 8, !llfi_index !2128
  %ruse.i49 = alloca %struct.rusage, align 8, !llfi_index !2129
  %ruse.i48 = alloca %struct.rusage, align 8, !llfi_index !2130
  %ruse.i41 = alloca %struct.rusage, align 8, !llfi_index !2131
  %ruse.i40 = alloca %struct.rusage, align 8, !llfi_index !2132
  %ruse.i39 = alloca %struct.rusage, align 8, !llfi_index !2133
  %ruse.i33 = alloca %struct.rusage, align 8, !llfi_index !2134
  %ruse.i32 = alloca %struct.rusage, align 8, !llfi_index !2135
  %ruse.i31 = alloca %struct.rusage, align 8, !llfi_index !2136
  %ruse.i12 = alloca %struct.rusage, align 8, !llfi_index !2137
  %ruse.i11 = alloca %struct.rusage, align 8, !llfi_index !2138
  %ruse.i10 = alloca %struct.rusage, align 8, !llfi_index !2139
  %ruse.i4 = alloca %struct.rusage, align 8, !llfi_index !2140
  %ruse.i3 = alloca %struct.rusage, align 8, !llfi_index !2141
  %ruse.i2 = alloca %struct.rusage, align 8, !llfi_index !2142
  %ruse.i1 = alloca %struct.rusage, align 8, !llfi_index !2143
  %ruse.i = alloca %struct.rusage, align 8, !llfi_index !2144
  %t4 = alloca double, align 8, !llfi_index !2145
  %rtrans = alloca double, align 8, !llfi_index !2146
  %alpha = alloca double, align 8, !llfi_index !2147
  %1 = bitcast %struct.rusage* %ruse.i to i8*, !llfi_index !2148
  call void @llvm.lifetime.start(i64 144, i8* %1) #2, !llfi_index !2149
  %2 = call i32 @getrusage(i32 0, %struct.rusage* %ruse.i) #2, !llfi_index !2150
  %3 = getelementptr inbounds %struct.rusage* %ruse.i, i64 0, i32 0, i32 0, !llfi_index !2151
  %4 = load i64* %3, align 8, !tbaa !434, !llfi_index !2152
  %5 = sitofp i64 %4 to double, !llfi_index !2153
  %6 = getelementptr inbounds %struct.rusage* %ruse.i, i64 0, i32 0, i32 1, !llfi_index !2154
  %7 = load i64* %6, align 8, !tbaa !440, !llfi_index !2155
  %8 = sitofp i64 %7 to double, !llfi_index !2156
  %9 = fdiv double %8, 1.000000e+06, !llfi_index !2157
  %10 = fadd double %5, %9, !llfi_index !2158
  call void @llvm.lifetime.end(i64 144, i8* %1) #2, !llfi_index !2159
  store double 0.000000e+00, double* %t4, align 8, !tbaa !9, !llfi_index !2160
  %11 = getelementptr inbounds %struct.HPC_Sparse_Matrix_STRUCT* %A, i64 0, i32 5, !llfi_index !2161
  %12 = load i32* %11, align 4, !tbaa !2162, !llfi_index !2165
  %13 = getelementptr inbounds %struct.HPC_Sparse_Matrix_STRUCT* %A, i64 0, i32 6, !llfi_index !2166
  %14 = load i32* %13, align 4, !tbaa !2167, !llfi_index !2168
  %15 = sext i32 %12 to i64, !llfi_index !2169
  %16 = call { i64, i1 } @llvm.umul.with.overflow.i64(i64 %15, i64 8), !llfi_index !2170
  %17 = extractvalue { i64, i1 } %16, 1, !llfi_index !2171
  %18 = extractvalue { i64, i1 } %16, 0, !llfi_index !2172
  %19 = select i1 %17, i64 -1, i64 %18, !llfi_index !2173
  %20 = call noalias i8* @_Znam(i64 %19) #16, !llfi_index !2174
  %21 = bitcast i8* %20 to double*, !llfi_index !2175
  %22 = sext i32 %14 to i64, !llfi_index !2176
  %23 = call { i64, i1 } @llvm.umul.with.overflow.i64(i64 %22, i64 8), !llfi_index !2177
  %24 = extractvalue { i64, i1 } %23, 1, !llfi_index !2178
  %25 = extractvalue { i64, i1 } %23, 0, !llfi_index !2179
  %26 = select i1 %24, i64 -1, i64 %25, !llfi_index !2180
  %27 = call noalias i8* @_Znam(i64 %26) #16, !llfi_index !2181
  %28 = bitcast i8* %27 to double*, !llfi_index !2182
  %29 = call noalias i8* @_Znam(i64 %19) #16, !llfi_index !2183
  %30 = bitcast i8* %29 to double*, !llfi_index !2184
  store double 0.000000e+00, double* %normr, align 8, !tbaa !9, !llfi_index !2185
  store double 0.000000e+00, double* %rtrans, align 8, !tbaa !9, !llfi_index !2186
  %31 = sdiv i32 %max_iter, 10, !llfi_index !2187
  %32 = icmp sgt i32 %31, 50, !llfi_index !2188
  %. = select i1 %32, i32 50, i32 %31, !llfi_index !2189
  %33 = icmp slt i32 %., 1, !llfi_index !2190
  %.. = select i1 %33, i32 1, i32 %., !llfi_index !2191
  %34 = bitcast %struct.rusage* %ruse.i1 to i8*, !llfi_index !2192
  call void @llvm.lifetime.start(i64 144, i8* %34) #2, !llfi_index !2193
  %35 = call i32 @getrusage(i32 0, %struct.rusage* %ruse.i1) #2, !llfi_index !2194
  %36 = getelementptr inbounds %struct.rusage* %ruse.i1, i64 0, i32 0, i32 0, !llfi_index !2195
  %37 = load i64* %36, align 8, !tbaa !434, !llfi_index !2196
  %38 = sitofp i64 %37 to double, !llfi_index !2197
  %39 = getelementptr inbounds %struct.rusage* %ruse.i1, i64 0, i32 0, i32 1, !llfi_index !2198
  %40 = load i64* %39, align 8, !tbaa !440, !llfi_index !2199
  %41 = sitofp i64 %40 to double, !llfi_index !2200
  %42 = fdiv double %41, 1.000000e+06, !llfi_index !2201
  %43 = fadd double %38, %42, !llfi_index !2202
  call void @llvm.lifetime.end(i64 144, i8* %34) #2, !llfi_index !2203
  %44 = icmp sgt i32 %12, 0, !llfi_index !2204
  br i1 %44, label %.lr.ph.i, label %_Z6waxpbyidPKddS0_Pd.exit, !llfi_index !2205

.lr.ph.i:                                         ; preds = %.lr.ph.i, %0
  %indvars.iv.i = phi i64 [ %indvars.iv.next.i, %.lr.ph.i ], [ 0, %0 ], !llfi_index !2206
  %45 = getelementptr inbounds double* %x, i64 %indvars.iv.i, !llfi_index !2207
  %46 = load double* %45, align 8, !tbaa !9, !llfi_index !2208
  %47 = getelementptr inbounds double* %x, i64 %indvars.iv.i, !llfi_index !2209
  %48 = load double* %47, align 8, !tbaa !9, !llfi_index !2210
  %49 = fmul double %48, 0.000000e+00, !llfi_index !2211
  %50 = fadd double %46, %49, !llfi_index !2212
  %51 = getelementptr inbounds double* %28, i64 %indvars.iv.i, !llfi_index !2213
  store double %50, double* %51, align 8, !tbaa !9, !llfi_index !2214
  %indvars.iv.next.i = add nuw nsw i64 %indvars.iv.i, 1, !llfi_index !2215
  %lftr.wideiv.i = trunc i64 %indvars.iv.next.i to i32, !llfi_index !2216
  %exitcond.i = icmp eq i32 %lftr.wideiv.i, %12, !llfi_index !2217
  br i1 %exitcond.i, label %_Z6waxpbyidPKddS0_Pd.exit, label %.lr.ph.i, !llfi_index !2218

_Z6waxpbyidPKddS0_Pd.exit:                        ; preds = %.lr.ph.i, %0
  %52 = bitcast %struct.rusage* %ruse.i3 to i8*, !llfi_index !2219
  call void @llvm.lifetime.start(i64 144, i8* %52) #2, !llfi_index !2220
  %53 = call i32 @getrusage(i32 0, %struct.rusage* %ruse.i3) #2, !llfi_index !2221
  %54 = getelementptr inbounds %struct.rusage* %ruse.i3, i64 0, i32 0, i32 0, !llfi_index !2222
  %55 = load i64* %54, align 8, !tbaa !434, !llfi_index !2223
  %56 = sitofp i64 %55 to double, !llfi_index !2224
  %57 = getelementptr inbounds %struct.rusage* %ruse.i3, i64 0, i32 0, i32 1, !llfi_index !2225
  %58 = load i64* %57, align 8, !tbaa !440, !llfi_index !2226
  %59 = sitofp i64 %58 to double, !llfi_index !2227
  %60 = fdiv double %59, 1.000000e+06, !llfi_index !2228
  %61 = fadd double %56, %60, !llfi_index !2229
  call void @llvm.lifetime.end(i64 144, i8* %52) #2, !llfi_index !2230
  %62 = fsub double %61, %43, !llfi_index !2231
  %63 = fadd double %62, 0.000000e+00, !llfi_index !2232
  %64 = bitcast %struct.rusage* %ruse.i4 to i8*, !llfi_index !2233
  call void @llvm.lifetime.start(i64 144, i8* %64) #2, !llfi_index !2234
  %65 = call i32 @getrusage(i32 0, %struct.rusage* %ruse.i4) #2, !llfi_index !2235
  %66 = getelementptr inbounds %struct.rusage* %ruse.i4, i64 0, i32 0, i32 0, !llfi_index !2236
  %67 = load i64* %66, align 8, !tbaa !434, !llfi_index !2237
  %68 = sitofp i64 %67 to double, !llfi_index !2238
  %69 = getelementptr inbounds %struct.rusage* %ruse.i4, i64 0, i32 0, i32 1, !llfi_index !2239
  %70 = load i64* %69, align 8, !tbaa !440, !llfi_index !2240
  %71 = sitofp i64 %70 to double, !llfi_index !2241
  %72 = fdiv double %71, 1.000000e+06, !llfi_index !2242
  %73 = fadd double %68, %72, !llfi_index !2243
  call void @llvm.lifetime.end(i64 144, i8* %64) #2, !llfi_index !2244
  %74 = getelementptr inbounds %struct.HPC_Sparse_Matrix_STRUCT* %A, i64 0, i32 5, !llfi_index !2245
  %75 = load i32* %74, align 4, !tbaa !2162, !llfi_index !2246
  %76 = icmp sgt i32 %75, 0, !llfi_index !2247
  br i1 %76, label %.lr.ph5.i, label %_Z12HPC_sparsemvP24HPC_Sparse_Matrix_STRUCTPKdPd.exit, !llfi_index !2248

.lr.ph5.i:                                        ; preds = %_Z6waxpbyidPKddS0_Pd.exit
  %77 = getelementptr inbounds %struct.HPC_Sparse_Matrix_STRUCT* %A, i64 0, i32 9, !llfi_index !2249
  %78 = load double*** %77, align 8, !tbaa !2250, !llfi_index !2251
  %79 = getelementptr inbounds %struct.HPC_Sparse_Matrix_STRUCT* %A, i64 0, i32 10, !llfi_index !2252
  %80 = load i32*** %79, align 8, !tbaa !2253, !llfi_index !2254
  %81 = getelementptr inbounds %struct.HPC_Sparse_Matrix_STRUCT* %A, i64 0, i32 8, !llfi_index !2255
  %82 = load i32** %81, align 8, !tbaa !2256, !llfi_index !2257
  br label %83, !llfi_index !2258

; <label>:83                                      ; preds = %._crit_edge.i, %.lr.ph5.i
  %indvars.iv7.i = phi i64 [ 0, %.lr.ph5.i ], [ %indvars.iv.next8.i, %._crit_edge.i ], !llfi_index !2259
  %84 = getelementptr inbounds double** %78, i64 %indvars.iv7.i, !llfi_index !2260
  %85 = load double** %84, align 8, !tbaa !226, !llfi_index !2261
  %86 = getelementptr inbounds i32** %80, i64 %indvars.iv7.i, !llfi_index !2262
  %87 = load i32** %86, align 8, !tbaa !226, !llfi_index !2263
  %88 = getelementptr inbounds i32* %82, i64 %indvars.iv7.i, !llfi_index !2264
  %89 = load i32* %88, align 4, !tbaa !446, !llfi_index !2265
  %90 = icmp sgt i32 %89, 0, !llfi_index !2266
  br i1 %90, label %.lr.ph.i9, label %._crit_edge.i, !llfi_index !2267

.lr.ph.i9:                                        ; preds = %.lr.ph.i9, %83
  %indvars.iv.i5 = phi i64 [ %indvars.iv.next.i6, %.lr.ph.i9 ], [ 0, %83 ], !llfi_index !2268
  %sum.01.i = phi double [ %99, %.lr.ph.i9 ], [ 0.000000e+00, %83 ], !llfi_index !2269
  %91 = getelementptr inbounds double* %85, i64 %indvars.iv.i5, !llfi_index !2270
  %92 = load double* %91, align 8, !tbaa !9, !llfi_index !2271
  %93 = getelementptr inbounds i32* %87, i64 %indvars.iv.i5, !llfi_index !2272
  %94 = load i32* %93, align 4, !tbaa !446, !llfi_index !2273
  %95 = sext i32 %94 to i64, !llfi_index !2274
  %96 = getelementptr inbounds double* %28, i64 %95, !llfi_index !2275
  %97 = load double* %96, align 8, !tbaa !9, !llfi_index !2276
  %98 = fmul double %92, %97, !llfi_index !2277
  %99 = fadd double %sum.01.i, %98, !llfi_index !2278
  %indvars.iv.next.i6 = add nuw nsw i64 %indvars.iv.i5, 1, !llfi_index !2279
  %lftr.wideiv.i7 = trunc i64 %indvars.iv.next.i6 to i32, !llfi_index !2280
  %exitcond.i8 = icmp eq i32 %lftr.wideiv.i7, %89, !llfi_index !2281
  br i1 %exitcond.i8, label %._crit_edge.i, label %.lr.ph.i9, !llfi_index !2282

._crit_edge.i:                                    ; preds = %.lr.ph.i9, %83
  %sum.0.lcssa.i = phi double [ 0.000000e+00, %83 ], [ %99, %.lr.ph.i9 ], !llfi_index !2283
  %100 = getelementptr inbounds double* %30, i64 %indvars.iv7.i, !llfi_index !2284
  store double %sum.0.lcssa.i, double* %100, align 8, !tbaa !9, !llfi_index !2285
  %indvars.iv.next8.i = add nuw nsw i64 %indvars.iv7.i, 1, !llfi_index !2286
  %lftr.wideiv9.i = trunc i64 %indvars.iv.next8.i to i32, !llfi_index !2287
  %exitcond10.i = icmp eq i32 %lftr.wideiv9.i, %75, !llfi_index !2288
  br i1 %exitcond10.i, label %_Z12HPC_sparsemvP24HPC_Sparse_Matrix_STRUCTPKdPd.exit, label %83, !llfi_index !2289

_Z12HPC_sparsemvP24HPC_Sparse_Matrix_STRUCTPKdPd.exit: ; preds = %._crit_edge.i, %_Z6waxpbyidPKddS0_Pd.exit
  %101 = bitcast %struct.rusage* %ruse.i11 to i8*, !llfi_index !2290
  call void @llvm.lifetime.start(i64 144, i8* %101) #2, !llfi_index !2291
  %102 = call i32 @getrusage(i32 0, %struct.rusage* %ruse.i11) #2, !llfi_index !2292
  %103 = getelementptr inbounds %struct.rusage* %ruse.i11, i64 0, i32 0, i32 0, !llfi_index !2293
  %104 = load i64* %103, align 8, !tbaa !434, !llfi_index !2294
  %105 = sitofp i64 %104 to double, !llfi_index !2295
  %106 = getelementptr inbounds %struct.rusage* %ruse.i11, i64 0, i32 0, i32 1, !llfi_index !2296
  %107 = load i64* %106, align 8, !tbaa !440, !llfi_index !2297
  %108 = sitofp i64 %107 to double, !llfi_index !2298
  %109 = fdiv double %108, 1.000000e+06, !llfi_index !2299
  %110 = fadd double %105, %109, !llfi_index !2300
  call void @llvm.lifetime.end(i64 144, i8* %101) #2, !llfi_index !2301
  %111 = fsub double %110, %73, !llfi_index !2302
  %112 = fadd double %111, 0.000000e+00, !llfi_index !2303
  %113 = bitcast %struct.rusage* %ruse.i12 to i8*, !llfi_index !2304
  call void @llvm.lifetime.start(i64 144, i8* %113) #2, !llfi_index !2305
  %114 = call i32 @getrusage(i32 0, %struct.rusage* %ruse.i12) #2, !llfi_index !2306
  %115 = getelementptr inbounds %struct.rusage* %ruse.i12, i64 0, i32 0, i32 0, !llfi_index !2307
  %116 = load i64* %115, align 8, !tbaa !434, !llfi_index !2308
  %117 = sitofp i64 %116 to double, !llfi_index !2309
  %118 = getelementptr inbounds %struct.rusage* %ruse.i12, i64 0, i32 0, i32 1, !llfi_index !2310
  %119 = load i64* %118, align 8, !tbaa !440, !llfi_index !2311
  %120 = sitofp i64 %119 to double, !llfi_index !2312
  %121 = fdiv double %120, 1.000000e+06, !llfi_index !2313
  %122 = fadd double %117, %121, !llfi_index !2314
  call void @llvm.lifetime.end(i64 144, i8* %113) #2, !llfi_index !2315
  %123 = icmp sgt i32 %12, 0, !llfi_index !2316
  br i1 %123, label %.lr.ph.i17, label %_Z6waxpbyidPKddS0_Pd.exit18, !llfi_index !2317

.lr.ph.i17:                                       ; preds = %.lr.ph.i17, %_Z12HPC_sparsemvP24HPC_Sparse_Matrix_STRUCTPKdPd.exit
  %indvars.iv.i13 = phi i64 [ %indvars.iv.next.i14, %.lr.ph.i17 ], [ 0, %_Z12HPC_sparsemvP24HPC_Sparse_Matrix_STRUCTPKdPd.exit ], !llfi_index !2318
  %124 = getelementptr inbounds double* %b, i64 %indvars.iv.i13, !llfi_index !2319
  %125 = load double* %124, align 8, !tbaa !9, !llfi_index !2320
  %126 = getelementptr inbounds double* %30, i64 %indvars.iv.i13, !llfi_index !2321
  %127 = load double* %126, align 8, !tbaa !9, !llfi_index !2322
  %128 = fmul double %127, -1.000000e+00, !llfi_index !2323
  %129 = fadd double %125, %128, !llfi_index !2324
  %130 = getelementptr inbounds double* %21, i64 %indvars.iv.i13, !llfi_index !2325
  store double %129, double* %130, align 8, !tbaa !9, !llfi_index !2326
  %indvars.iv.next.i14 = add nuw nsw i64 %indvars.iv.i13, 1, !llfi_index !2327
  %lftr.wideiv.i15 = trunc i64 %indvars.iv.next.i14 to i32, !llfi_index !2328
  %exitcond.i16 = icmp eq i32 %lftr.wideiv.i15, %12, !llfi_index !2329
  br i1 %exitcond.i16, label %_Z6waxpbyidPKddS0_Pd.exit18, label %.lr.ph.i17, !llfi_index !2330

_Z6waxpbyidPKddS0_Pd.exit18:                      ; preds = %.lr.ph.i17, %_Z12HPC_sparsemvP24HPC_Sparse_Matrix_STRUCTPKdPd.exit
  %131 = bitcast %struct.rusage* %ruse.i32 to i8*, !llfi_index !2331
  call void @llvm.lifetime.start(i64 144, i8* %131) #2, !llfi_index !2332
  %132 = call i32 @getrusage(i32 0, %struct.rusage* %ruse.i32) #2, !llfi_index !2333
  %133 = getelementptr inbounds %struct.rusage* %ruse.i32, i64 0, i32 0, i32 0, !llfi_index !2334
  %134 = load i64* %133, align 8, !tbaa !434, !llfi_index !2335
  %135 = sitofp i64 %134 to double, !llfi_index !2336
  %136 = getelementptr inbounds %struct.rusage* %ruse.i32, i64 0, i32 0, i32 1, !llfi_index !2337
  %137 = load i64* %136, align 8, !tbaa !440, !llfi_index !2338
  %138 = sitofp i64 %137 to double, !llfi_index !2339
  %139 = fdiv double %138, 1.000000e+06, !llfi_index !2340
  %140 = fadd double %135, %139, !llfi_index !2341
  call void @llvm.lifetime.end(i64 144, i8* %131) #2, !llfi_index !2342
  %141 = bitcast %struct.rusage* %ruse.i33 to i8*, !llfi_index !2343
  call void @llvm.lifetime.start(i64 144, i8* %141) #2, !llfi_index !2344
  %142 = call i32 @getrusage(i32 0, %struct.rusage* %ruse.i33) #2, !llfi_index !2345
  %143 = getelementptr inbounds %struct.rusage* %ruse.i33, i64 0, i32 0, i32 0, !llfi_index !2346
  %144 = load i64* %143, align 8, !tbaa !434, !llfi_index !2347
  %145 = sitofp i64 %144 to double, !llfi_index !2348
  %146 = getelementptr inbounds %struct.rusage* %ruse.i33, i64 0, i32 0, i32 1, !llfi_index !2349
  %147 = load i64* %146, align 8, !tbaa !440, !llfi_index !2350
  %148 = sitofp i64 %147 to double, !llfi_index !2351
  %149 = fdiv double %148, 1.000000e+06, !llfi_index !2352
  %150 = fadd double %145, %149, !llfi_index !2353
  call void @llvm.lifetime.end(i64 144, i8* %141) #2, !llfi_index !2354
  %151 = icmp sgt i32 %12, 0, !llfi_index !2355
  br i1 %151, label %.lr.ph.i38, label %_Z4ddotiPKdS0_PdRd.exit, !llfi_index !2356

