; ModuleID = '/ubc/ece/home/kp/grads/lpalazzi/Documents/DependableSystemsLab/benchmarks/refine-hpccg/fault injection/llfi-O3/hpccg.ll'
target datalayout = "e-p:64:64:64-i1:8:8-i8:8:8-i16:16:16-i32:32:32-i64:64:64-f32:32:32-f64:64:64-v64:64:64-v128:128:128-a0:0:64-s0:64:64-f80:128:128-n8:16:32:64-S128"
target triple = "x86_64-unknown-linux-gnu"

%"class.std::ios_base::Init" = type { i8 }
%"class.std::basic_ostream" = type { i32 (...)**, %"class.std::basic_ios" }
%"class.std::basic_ios" = type { %"class.std::ios_base", %"class.std::basic_ostream"*, i8, i8, %"class.std::basic_streambuf"*, %"class.std::ctype"*, %"class.std::num_put"*, %"class.std::num_get"* }
%"class.std::ios_base" = type { i32 (...)**, i64, i64, i32, i32, i32, %"struct.std::ios_base::_Callback_list"*, %"struct.std::ios_base::_Words", [8 x %"struct.std::ios_base::_Words"], i32, %"struct.std::ios_base::_Words"*, %"class.std::locale" }
%"struct.std::ios_base::_Callback_list" = type { %"struct.std::ios_base::_Callback_list"*, void (i32, %"class.std::ios_base"*, i32)*, i32, i32 }
%"struct.std::ios_base::_Words" = type { i8*, i64 }
%"class.std::locale" = type { %"class.std::locale::_Impl"* }
%"class.std::locale::_Impl" = type { i32, %"class.std::locale::facet"**, i64, %"class.std::locale::facet"**, i8** }
%"class.std::locale::facet" = type { i32 (...)**, i32 }
%"class.std::basic_streambuf" = type { i32 (...)**, i8*, i8*, i8*, i8*, i8*, i8*, %"class.std::locale" }
%"class.std::ctype" = type { %"class.std::locale::facet", %struct.__locale_struct*, i8, i32*, i32*, i16*, i8, [256 x i8], [256 x i8], i8 }
%struct.__locale_struct = type { [13 x %struct.__locale_data*], i16*, i32*, i32*, [13 x i8*] }
%struct.__locale_data = type opaque
%"class.std::num_put" = type { %"class.std::locale::facet" }
%"class.std::num_get" = type { %"class.std::locale::facet" }
%class.YAML_Doc = type { %class.YAML_Element, %"class.std::basic_string", %"class.std::basic_string", %"class.std::basic_string", %"class.std::basic_string" }
%class.YAML_Element = type { %"class.std::basic_string", %"class.std::basic_string", %"class.std::vector" }
%"class.std::vector" = type { %"struct.std::_Vector_base" }
%"struct.std::_Vector_base" = type { %"struct.std::_Vector_base<YAML_Element *, std::allocator<YAML_Element *> >::_Vector_impl" }
%"struct.std::_Vector_base<YAML_Element *, std::allocator<YAML_Element *> >::_Vector_impl" = type { %class.YAML_Element**, %class.YAML_Element**, %class.YAML_Element** }
%"class.std::basic_string" = type { %"struct.std::basic_string<char, std::char_traits<char>, std::allocator<char> >::_Alloc_hider" }
%"struct.std::basic_string<char, std::char_traits<char>, std::allocator<char> >::_Alloc_hider" = type { i8* }
%"class.std::allocator" = type { i8 }
%struct.HPC_Sparse_Matrix_STRUCT = type { i8*, i32, i32, i32, i64, i32, i32, i32, i32*, double**, i32**, double**, double*, i32* }
%"struct.std::basic_string<char, std::char_traits<char>, std::allocator<char> >::_Rep" = type { %"struct.std::basic_string<char, std::char_traits<char>, std::allocator<char> >::_Rep_base" }
%"struct.std::basic_string<char, std::char_traits<char>, std::allocator<char> >::_Rep_base" = type { i64, i64, i32 }
%struct.rusage = type { %struct.timeval, %struct.timeval, %union.anon, %union.anon.0, %union.anon.1, %union.anon.2, %union.anon.3, %union.anon.4, %union.anon.5, %union.anon.6, %union.anon.7, %union.anon.8, %union.anon.9, %union.anon.10, %union.anon.11, %union.anon.12 }
%struct.timeval = type { i64, i64 }
%union.anon = type { i64 }
%union.anon.0 = type { i64 }
%union.anon.1 = type { i64 }
%union.anon.2 = type { i64 }
%union.anon.3 = type { i64 }
%union.anon.4 = type { i64 }
%union.anon.5 = type { i64 }
%union.anon.6 = type { i64 }
%union.anon.7 = type { i64 }
%union.anon.8 = type { i64 }
%union.anon.9 = type { i64 }
%union.anon.10 = type { i64 }
%union.anon.11 = type { i64 }
%union.anon.12 = type { i64 }
%struct._IO_FILE = type { i32, i8*, i8*, i8*, i8*, i8*, i8*, i8*, i8*, i8*, i8*, i8*, %struct._IO_marker*, %struct._IO_FILE*, i32, i32, i64, i16, i8, [1 x i8], i8*, i64, i8*, i8*, i8*, i8*, i64, i32, [20 x i8] }
%struct._IO_marker = type { %struct._IO_marker*, %struct._IO_FILE*, i32 }
%"class.std::basic_stringstream" = type { %"class.std::basic_iostream.base", %"class.std::basic_stringbuf", %"class.std::basic_ios" }
%"class.std::basic_iostream.base" = type { %"class.std::basic_istream.base", %"class.std::basic_ostream.base" }
%"class.std::basic_istream.base" = type { i32 (...)**, i64 }
%"class.std::basic_ostream.base" = type { i32 (...)** }
%"class.std::basic_stringbuf" = type { %"class.std::basic_streambuf", i32, %"class.std::basic_string" }

@_ZStL8__ioinit = internal global %"class.std::ios_base::Init" zeroinitializer, align 1
@__dso_handle = external global i8
@_ZSt4cerr = external global %"class.std::basic_ostream"
@.str = private unnamed_addr constant [7 x i8] c"Usage:\00", align 1
@.str1 = private unnamed_addr constant [9 x i8] c"Mode 1: \00", align 1
@.str2 = private unnamed_addr constant [10 x i8] c" nx ny nz\00", align 1
@.str3 = private unnamed_addr constant [64 x i8] c"     where nx, ny and nz are the local sub-block dimensions, or\00", align 1
@.str4 = private unnamed_addr constant [9 x i8] c"Mode 2: \00", align 1
@.str5 = private unnamed_addr constant [16 x i8] c" HPC_data_file \00", align 1
@.str6 = private unnamed_addr constant [79 x i8] c"     where HPC_data_file is a globally accessible file containing matrix data.\00", align 1
@.str7 = private unnamed_addr constant [22 x i8] c"Error in call to CG: \00", align 1
@.str8 = private unnamed_addr constant [3 x i8] c".\0A\00", align 1
@.str9 = private unnamed_addr constant [6 x i8] c"hpccg\00", align 1
@.str10 = private unnamed_addr constant [4 x i8] c"1.0\00", align 1
@.str11 = private unnamed_addr constant [1 x i8] zeroinitializer, align 1
@.str12 = private unnamed_addr constant [12 x i8] c"Parallelism\00", align 1
@.str13 = private unnamed_addr constant [16 x i8] c"MPI not enabled\00", align 1
@.str14 = private unnamed_addr constant [19 x i8] c"OpenMP not enabled\00", align 1
@.str15 = private unnamed_addr constant [11 x i8] c"Dimensions\00", align 1
@.str16 = private unnamed_addr constant [3 x i8] c"nx\00", align 1
@.str17 = private unnamed_addr constant [3 x i8] c"ny\00", align 1
@.str18 = private unnamed_addr constant [3 x i8] c"nz\00", align 1
@.str19 = private unnamed_addr constant [23 x i8] c"Number of iterations: \00", align 1
@.str20 = private unnamed_addr constant [17 x i8] c"Final residual: \00", align 1
@_ZSt4cout = external global %"class.std::basic_ostream"
@_ZNSs4_Rep20_S_empty_rep_storageE = external global [0 x i64]
@llvm.global_ctors = appending global [7 x { i32, void ()* }] [{ i32, void ()* } { i32 65535, void ()* @_GLOBAL__I_a }, { i32, void ()* } { i32 65535, void ()* @_GLOBAL__I_a27 }, { i32, void ()* } { i32 65535, void ()* @_GLOBAL__I_a46 }, { i32, void ()* } { i32 65535, void ()* @_GLOBAL__I_a51 }, { i32, void ()* } { i32 65535, void ()* @_GLOBAL__I_a65 }, { i32, void ()* } { i32 65535, void ()* @_GLOBAL__I_a87 }, { i32, void ()* } { i32 65535, void ()* @_GLOBAL__I_a94 }]
@_ZStL8__ioinit1 = internal global %"class.std::ios_base::Init" zeroinitializer, align 1
@.str21 = private unnamed_addr constant [20 x i8] c"Initial Residual = \00", align 1
@.str122 = private unnamed_addr constant [13 x i8] c"Iteration = \00", align 1
@.str223 = private unnamed_addr constant [15 x i8] c"   Residual = \00", align 1
@_ZStL8__ioinit32 = internal global %"class.std::ios_base::Init" zeroinitializer, align 1
@.str33 = private unnamed_addr constant [24 x i8] c"Mini-Application Name: \00", align 1
@.str134 = private unnamed_addr constant [2 x i8] c"\0A\00", align 1
@.str235 = private unnamed_addr constant [27 x i8] c"Mini-Application Version: \00", align 1
@.str336 = private unnamed_addr constant [1 x i8] zeroinitializer, align 1
@_ZStL8__ioinit47 = internal global %"class.std::ios_base::Init" zeroinitializer, align 1
@_ZStL8__ioinit52 = internal global %"class.std::ios_base::Init" zeroinitializer, align 1
@.str53 = private unnamed_addr constant [32 x i8] c"Reading matrix info from %s...\0A\00", align 1
@.str154 = private unnamed_addr constant [2 x i8] c"r\00", align 1
@.str255 = private unnamed_addr constant [29 x i8] c"Error: Cannot open file: %s\0A\00", align 1
@.str356 = private unnamed_addr constant [3 x i8] c"%d\00", align 1
@.str457 = private unnamed_addr constant [5 x i8] c"%lld\00", align 1
@.str558 = private unnamed_addr constant [26 x i8] c"cur_local_row==local_nrow\00", align 1
@.str659 = private unnamed_addr constant [27 x i8] c"../../src/read_HPC_row.cpp\00", align 1
@__PRETTY_FUNCTION__._Z12read_HPC_rowPcPP24HPC_Sparse_Matrix_STRUCTPPdS4_S4_ = private unnamed_addr constant [81 x i8] c"void read_HPC_row(char *, HPC_Sparse_Matrix **, double **, double **, double **)\00", align 1
@.str1060 = private unnamed_addr constant [7 x i8] c"%lf %d\00", align 1
@.str1261 = private unnamed_addr constant [12 x i8] c"%lf %lf %lf\00", align 1
@_ZStL8__ioinit66 = internal global %"class.std::ios_base::Init" zeroinitializer, align 1
@.str67 = private unnamed_addr constant [1 x i8] zeroinitializer, align 1
@.str168 = private unnamed_addr constant [3 x i8] c": \00", align 1
@.str269 = private unnamed_addr constant [2 x i8] c"\0A\00", align 1
@.str370 = private unnamed_addr constant [2 x i8] c" \00", align 1
@.str471 = private unnamed_addr constant [42 x i8] c"basic_string::_S_construct null not valid\00", align 1
@_ZNSs4_Rep11_S_terminalE = external constant i8
@_ZTVSt18basic_stringstreamIcSt11char_traitsIcESaIcEE = external unnamed_addr constant [15 x i8*]
@_ZTTSt18basic_stringstreamIcSt11char_traitsIcESaIcEE = external unnamed_addr constant [10 x i8*]
@_ZTVSt15basic_stringbufIcSt11char_traitsIcESaIcEE = external unnamed_addr constant [16 x i8*]
@_ZTVSt15basic_streambufIcSt11char_traitsIcEE = external unnamed_addr constant [16 x i8*]
@_ZTVSt9basic_iosIcSt11char_traitsIcEE = external unnamed_addr constant [4 x i8*]
@_ZStL8__ioinit88 = internal global %"class.std::ios_base::Init" zeroinitializer, align 1
@.str89 = private unnamed_addr constant [13 x i8] c"local_nrow>0\00", align 1
@.str190 = private unnamed_addr constant [30 x i8] c"../../src/generate_matrix.cpp\00", align 1
@__PRETTY_FUNCTION__._Z15generate_matrixiiiPP24HPC_Sparse_Matrix_STRUCTPPdS3_S3_ = private unnamed_addr constant [91 x i8] c"void generate_matrix(int, int, int, HPC_Sparse_Matrix **, double **, double **, double **)\00", align 1
@.str95 = private unnamed_addr constant [9 x i8] c"mat0.dat\00", align 1
@.str196 = private unnamed_addr constant [2 x i8] c"w\00", align 1
@.str297 = private unnamed_addr constant [9 x i8] c"mat1.dat\00", align 1
@.str398 = private unnamed_addr constant [9 x i8] c"mat2.dat\00", align 1
@.str499 = private unnamed_addr constant [9 x i8] c"mat3.dat\00", align 1
@.str5100 = private unnamed_addr constant [16 x i8] c" %d %d %22.16e\0A\00", align 1

@_ZN8YAML_DocC1ERKSsS1_S1_S1_ = alias void (%class.YAML_Doc*, %"class.std::basic_string"*, %"class.std::basic_string"*, %"class.std::basic_string"*, %"class.std::basic_string"*)* @_ZN8YAML_DocC2ERKSsS1_S1_S1_
@_ZN8YAML_DocD1Ev = alias void (%class.YAML_Doc*)* @_ZN8YAML_DocD2Ev
@_ZN12YAML_ElementC1ERKSsS1_ = alias void (%class.YAML_Element*, %"class.std::basic_string"*, %"class.std::basic_string"*)* @_ZN12YAML_ElementC2ERKSsS1_
@_ZN12YAML_ElementD1Ev = alias void (%class.YAML_Element*)* @_ZN12YAML_ElementD2Ev

; Function Attrs: nounwind uwtable
define i32 @_Z4ddotiPKdS0_PdRd(i32 %n, double* readonly %x, double* readonly %y, double* nocapture %result, double* nocapture readnone %time_allreduce) #0 {
  %1 = icmp eq double* %y, %x, !llfi_index !1
  %2 = icmp sgt i32 %n, 0, !llfi_index !2
  br i1 %1, label %.preheader, label %.preheader4, !llfi_index !3

.preheader4:                                      ; preds = %0
  br i1 %2, label %.lr.ph8, label %.loopexit, !llfi_index !4

.preheader:                                       ; preds = %0
  br i1 %2, label %.lr.ph, label %.loopexit, !llfi_index !5

.lr.ph:                                           ; preds = %.lr.ph, %.preheader
  %indvars.iv = phi i64 [ %indvars.iv.next, %.lr.ph ], [ 0, %.preheader ], !llfi_index !6
  %local_result.02 = phi double [ %6, %.lr.ph ], [ 0.000000e+00, %.preheader ], !llfi_index !7
  %3 = getelementptr inbounds double* %y, i64 %indvars.iv, !llfi_index !8
  %4 = load double* %3, align 8, !tbaa !9, !llfi_index !13
  %5 = fmul double %4, %4, !llfi_index !14
  %6 = fadd double %local_result.02, %5, !llfi_index !15
  %indvars.iv.next = add nuw nsw i64 %indvars.iv, 1, !llfi_index !16
  %lftr.wideiv = trunc i64 %indvars.iv.next to i32, !llfi_index !17
  %exitcond = icmp eq i32 %lftr.wideiv, %n, !llfi_index !18
  br i1 %exitcond, label %.loopexit, label %.lr.ph, !llfi_index !19

.lr.ph8:                                          ; preds = %.lr.ph8, %.preheader4
  %indvars.iv11 = phi i64 [ %indvars.iv.next12, %.lr.ph8 ], [ 0, %.preheader4 ], !llfi_index !20
  %local_result.16 = phi double [ %12, %.lr.ph8 ], [ 0.000000e+00, %.preheader4 ], !llfi_index !21
  %7 = getelementptr inbounds double* %x, i64 %indvars.iv11, !llfi_index !22
  %8 = load double* %7, align 8, !tbaa !9, !llfi_index !23
  %9 = getelementptr inbounds double* %y, i64 %indvars.iv11, !llfi_index !24
  %10 = load double* %9, align 8, !tbaa !9, !llfi_index !25
  %11 = fmul double %8, %10, !llfi_index !26
  %12 = fadd double %local_result.16, %11, !llfi_index !27
  %indvars.iv.next12 = add nuw nsw i64 %indvars.iv11, 1, !llfi_index !28
  %lftr.wideiv13 = trunc i64 %indvars.iv.next12 to i32, !llfi_index !29
  %exitcond14 = icmp eq i32 %lftr.wideiv13, %n, !llfi_index !30
  br i1 %exitcond14, label %.loopexit, label %.lr.ph8, !llfi_index !31

.loopexit:                                        ; preds = %.lr.ph8, %.lr.ph, %.preheader, %.preheader4
  %local_result.2 = phi double [ 0.000000e+00, %.preheader ], [ 0.000000e+00, %.preheader4 ], [ %6, %.lr.ph ], [ %12, %.lr.ph8 ], !llfi_index !32
  store double %local_result.2, double* %result, align 8, !tbaa !9, !llfi_index !33
  ret i32 0, !llfi_index !34
}

declare void @_ZNSt8ios_base4InitC1Ev(%"class.std::ios_base::Init"*) #1

declare void @_ZNSt8ios_base4InitD1Ev(%"class.std::ios_base::Init"*) #1

; Function Attrs: nounwind
declare i32 @__cxa_atexit(void (i8*)*, i8*, i8*) #2

; Function Attrs: noreturn uwtable
define i32 @main(i32 %argc, i8** nocapture readonly %argv) #3 {
  %1 = alloca i32, align 4, !llfi_index !35
  %2 = alloca %"class.std::allocator", align 1, !llfi_index !36
  %3 = alloca i32, align 4, !llfi_index !37
  %4 = alloca %"class.std::allocator", align 1, !llfi_index !38
  %5 = alloca i32, align 4, !llfi_index !39
  %6 = alloca %"class.std::allocator", align 1, !llfi_index !40
  %7 = alloca i32, align 4, !llfi_index !41
  %8 = alloca %"class.std::allocator", align 1, !llfi_index !42
  %9 = alloca i32, align 4, !llfi_index !43
  %10 = alloca %"class.std::allocator", align 1, !llfi_index !44
  %11 = alloca i32, align 4, !llfi_index !45
  %12 = alloca %"class.std::allocator", align 1, !llfi_index !46
  %13 = alloca i32, align 4, !llfi_index !47
  %14 = alloca %"class.std::allocator", align 1, !llfi_index !48
  %15 = alloca i32, align 4, !llfi_index !49
  %16 = alloca %"class.std::allocator", align 1, !llfi_index !50
  %17 = alloca i32, align 4, !llfi_index !51
  %18 = alloca %"class.std::allocator", align 1, !llfi_index !52
  %19 = alloca i32, align 4, !llfi_index !53
  %20 = alloca %"class.std::allocator", align 1, !llfi_index !54
  %21 = alloca i32, align 4, !llfi_index !55
  %22 = alloca %"class.std::allocator", align 1, !llfi_index !56
  %23 = alloca i32, align 4, !llfi_index !57
  %24 = alloca %"class.std::allocator", align 1, !llfi_index !58
  %25 = alloca i32, align 4, !llfi_index !59
  %26 = alloca %"class.std::allocator", align 1, !llfi_index !60
  %27 = alloca i32, align 4, !llfi_index !61
  %28 = alloca %"class.std::allocator", align 1, !llfi_index !62
  %29 = alloca i32, align 4, !llfi_index !63
  %30 = alloca %"class.std::allocator", align 1, !llfi_index !64
  %31 = alloca i32, align 4, !llfi_index !65
  %32 = alloca %"class.std::allocator", align 1, !llfi_index !66
  %33 = alloca i32, align 4, !llfi_index !67
  %34 = alloca %"class.std::allocator", align 1, !llfi_index !68
  %35 = alloca i32, align 4, !llfi_index !69
  %36 = alloca %"class.std::allocator", align 1, !llfi_index !70
  %37 = alloca i32, align 4, !llfi_index !71
  %38 = alloca %"class.std::allocator", align 1, !llfi_index !72
  %39 = alloca i32, align 4, !llfi_index !73
  %40 = alloca %"class.std::allocator", align 1, !llfi_index !74
  %41 = alloca i32, align 4, !llfi_index !75
  %42 = alloca %"class.std::allocator", align 1, !llfi_index !76
  %43 = alloca i32, align 4, !llfi_index !77
  %44 = alloca %"class.std::allocator", align 1, !llfi_index !78
  %45 = alloca i32, align 4, !llfi_index !79
  %46 = alloca %"class.std::allocator", align 1, !llfi_index !80
  %47 = alloca i32, align 4, !llfi_index !81
  %48 = alloca %"class.std::allocator", align 1, !llfi_index !82
  %49 = alloca i32, align 4, !llfi_index !83
  %50 = alloca %"class.std::allocator", align 1, !llfi_index !84
  %51 = alloca i32, align 4, !llfi_index !85
  %52 = alloca %"class.std::allocator", align 1, !llfi_index !86
  %53 = alloca i32, align 4, !llfi_index !87
  %54 = alloca %"class.std::allocator", align 1, !llfi_index !88
  %55 = alloca i32, align 4, !llfi_index !89
  %56 = alloca %"class.std::allocator", align 1, !llfi_index !90
  %57 = alloca i32, align 4, !llfi_index !91
  %58 = alloca %"class.std::allocator", align 1, !llfi_index !92
  %59 = alloca i32, align 4, !llfi_index !93
  %60 = alloca %"class.std::allocator", align 1, !llfi_index !94
  %61 = alloca i32, align 4, !llfi_index !95
  %62 = alloca %"class.std::allocator", align 1, !llfi_index !96
  %63 = alloca i32, align 4, !llfi_index !97
  %64 = alloca %"class.std::allocator", align 1, !llfi_index !98
  %65 = alloca i32, align 4, !llfi_index !99
  %66 = alloca %"class.std::allocator", align 1, !llfi_index !100
  %67 = alloca i32, align 4, !llfi_index !101
  %68 = alloca %"class.std::allocator", align 1, !llfi_index !102
  %69 = alloca i32, align 4, !llfi_index !103
  %70 = alloca %"class.std::allocator", align 1, !llfi_index !104
  %71 = alloca i32, align 4, !llfi_index !105
  %72 = alloca %"class.std::allocator", align 1, !llfi_index !106
  %73 = alloca i32, align 4, !llfi_index !107
  %74 = alloca %"class.std::allocator", align 1, !llfi_index !108
  %75 = alloca i32, align 4, !llfi_index !109
  %76 = alloca %"class.std::allocator", align 1, !llfi_index !110
  %77 = alloca i32, align 4, !llfi_index !111
  %78 = alloca %"class.std::allocator", align 1, !llfi_index !112
  %79 = alloca i32, align 4, !llfi_index !113
  %80 = alloca %"class.std::allocator", align 1, !llfi_index !114
  %81 = alloca i32, align 4, !llfi_index !115
  %82 = alloca %"class.std::allocator", align 1, !llfi_index !116
  %83 = alloca i32, align 4, !llfi_index !117
  %84 = alloca %"class.std::allocator", align 1, !llfi_index !118
  %85 = alloca i32, align 4, !llfi_index !119
  %86 = alloca %"class.std::allocator", align 1, !llfi_index !120
  %87 = alloca i32, align 4, !llfi_index !121
  %88 = alloca %"class.std::allocator", align 1, !llfi_index !122
  %89 = alloca i32, align 4, !llfi_index !123
  %90 = alloca %"class.std::allocator", align 1, !llfi_index !124
  %91 = alloca i32, align 4, !llfi_index !125
  %92 = alloca %"class.std::allocator", align 1, !llfi_index !126
  %A = alloca %struct.HPC_Sparse_Matrix_STRUCT*, align 8, !llfi_index !127
  %x = alloca double*, align 8, !llfi_index !128
  %b = alloca double*, align 8, !llfi_index !129
  %xexact = alloca double*, align 8, !llfi_index !130
  %times = alloca [7 x double], align 16, !llfi_index !131
  %niters = alloca i32, align 4, !llfi_index !132
  %normr = alloca double, align 8, !llfi_index !133
  %doc = alloca %class.YAML_Doc, align 8, !llfi_index !134
  %93 = alloca %"class.std::basic_string", align 8, !llfi_index !135
  %94 = alloca %"class.std::allocator", align 1, !llfi_index !136
  %95 = alloca %"class.std::basic_string", align 8, !llfi_index !137
  %96 = alloca %"class.std::allocator", align 1, !llfi_index !138
  %97 = alloca %"class.std::basic_string", align 8, !llfi_index !139
  %98 = alloca %"class.std::allocator", align 1, !llfi_index !140
  %99 = alloca %"class.std::basic_string", align 8, !llfi_index !141
  %100 = alloca %"class.std::allocator", align 1, !llfi_index !142
  %101 = alloca %"class.std::basic_string", align 8, !llfi_index !143
  %102 = alloca %"class.std::allocator", align 1, !llfi_index !144
  %103 = alloca %"class.std::basic_string", align 8, !llfi_index !145
  %104 = alloca %"class.std::allocator", align 1, !llfi_index !146
  %105 = alloca %"class.std::basic_string", align 8, !llfi_index !147
  %106 = alloca %"class.std::allocator", align 1, !llfi_index !148
  %107 = alloca %"class.std::basic_string", align 8, !llfi_index !149
  %108 = alloca %"class.std::allocator", align 1, !llfi_index !150
  %109 = alloca %"class.std::basic_string", align 8, !llfi_index !151
  %110 = alloca %"class.std::allocator", align 1, !llfi_index !152
  %111 = alloca %"class.std::basic_string", align 8, !llfi_index !153
  %112 = alloca %"class.std::allocator", align 1, !llfi_index !154
  %113 = alloca %"class.std::basic_string", align 8, !llfi_index !155
  %114 = alloca %"class.std::allocator", align 1, !llfi_index !156
  %115 = alloca %"class.std::basic_string", align 8, !llfi_index !157
  %116 = alloca %"class.std::allocator", align 1, !llfi_index !158
  %117 = alloca %"class.std::basic_string", align 8, !llfi_index !159
  %118 = alloca %"class.std::allocator", align 1, !llfi_index !160
  %119 = alloca %"class.std::basic_string", align 8, !llfi_index !161
  %120 = alloca %"class.std::allocator", align 1, !llfi_index !162
  %121 = alloca %"class.std::basic_string", align 8, !llfi_index !163
  %122 = alloca %"class.std::allocator", align 1, !llfi_index !164
  %123 = alloca %"class.std::basic_string", align 8, !llfi_index !165
  %124 = alloca %"class.std::allocator", align 1, !llfi_index !166
  %125 = alloca %"class.std::basic_string", align 8, !llfi_index !167
  %126 = alloca %"class.std::allocator", align 1, !llfi_index !168
  %127 = alloca %"class.std::basic_string", align 8, !llfi_index !169
  %128 = alloca %"class.std::allocator", align 1, !llfi_index !170
  %129 = alloca %"class.std::basic_string", align 8, !llfi_index !171
  %130 = alloca %"class.std::allocator", align 1, !llfi_index !172
  %131 = alloca %"class.std::basic_string", align 8, !llfi_index !173
  %132 = alloca %"class.std::allocator", align 1, !llfi_index !174
  %133 = alloca %"class.std::basic_string", align 8, !llfi_index !175
  %134 = alloca %"class.std::allocator", align 1, !llfi_index !176
  %135 = alloca %"class.std::basic_string", align 8, !llfi_index !177
  %136 = alloca %"class.std::allocator", align 1, !llfi_index !178
  %yaml = alloca %"class.std::basic_string", align 8, !llfi_index !179
  %137 = bitcast [7 x double]* %times to i8*, !llfi_index !180
  call void @llvm.lifetime.start(i64 56, i8* %137) #2, !llfi_index !181
  switch i32 %argc, label %138 [
    i32 4, label %301
    i32 2, label %301
  ], !llfi_index !182

; <label>:138                                     ; preds = %0
  %139 = call %"class.std::basic_ostream"* @_ZSt16__ostream_insertIcSt11char_traitsIcEERSt13basic_ostreamIT_T0_ES6_PKS3_l(%"class.std::basic_ostream"* @_ZSt4cerr, i8* getelementptr inbounds ([7 x i8]* @.str, i64 0, i64 0), i64 6), !llfi_index !183
  %140 = load i8** bitcast (%"class.std::basic_ostream"* @_ZSt4cerr to i8**), align 8, !tbaa !184, !llfi_index !186
  %141 = getelementptr i8* %140, i64 -24, !llfi_index !187
  %142 = bitcast i8* %141 to i64*, !llfi_index !188
  %143 = load i64* %142, align 8, !llfi_index !189
  %.sum190 = add i64 %143, 240, !llfi_index !190
  %144 = getelementptr inbounds i8* bitcast (%"class.std::basic_ostream"* @_ZSt4cerr to i8*), i64 %.sum190, !llfi_index !191
  %145 = bitcast i8* %144 to %"class.std::ctype"**, !llfi_index !192
  %146 = load %"class.std::ctype"** %145, align 8, !tbaa !193, !llfi_index !197
  %147 = icmp eq %"class.std::ctype"* %146, null, !llfi_index !198
  br i1 %147, label %148, label %_ZSt13__check_facetISt5ctypeIcEERKT_PS3_.exit105, !llfi_index !199

; <label>:148                                     ; preds = %138
  call void @_ZSt16__throw_bad_castv() #14, !llfi_index !200
  unreachable, !llfi_index !201

_ZSt13__check_facetISt5ctypeIcEERKT_PS3_.exit105: ; preds = %138
  %149 = getelementptr inbounds %"class.std::ctype"* %146, i64 0, i32 6, !llfi_index !202
  %150 = load i8* %149, align 1, !tbaa !203, !llfi_index !205
  %151 = icmp eq i8 %150, 0, !llfi_index !206
  br i1 %151, label %155, label %152, !llfi_index !207

; <label>:152                                     ; preds = %_ZSt13__check_facetISt5ctypeIcEERKT_PS3_.exit105
  %153 = getelementptr inbounds %"class.std::ctype"* %146, i64 0, i32 7, i64 10, !llfi_index !208
  %154 = load i8* %153, align 1, !tbaa !209, !llfi_index !210
  br label %_ZNKSt5ctypeIcE5widenEc.exit98, !llfi_index !211

; <label>:155                                     ; preds = %_ZSt13__check_facetISt5ctypeIcEERKT_PS3_.exit105
  call void @_ZNKSt5ctypeIcE13_M_widen_initEv(%"class.std::ctype"* %146), !llfi_index !212
  %156 = bitcast %"class.std::ctype"* %146 to i8 (%"class.std::ctype"*, i8)***, !llfi_index !213
  %157 = load i8 (%"class.std::ctype"*, i8)*** %156, align 8, !tbaa !184, !llfi_index !214
  %158 = getelementptr inbounds i8 (%"class.std::ctype"*, i8)** %157, i64 6, !llfi_index !215
  %159 = load i8 (%"class.std::ctype"*, i8)** %158, align 8, !llfi_index !216
  %160 = call signext i8 %159(%"class.std::ctype"* %146, i8 signext 10), !llfi_index !217
  br label %_ZNKSt5ctypeIcE5widenEc.exit98, !llfi_index !218

_ZNKSt5ctypeIcE5widenEc.exit98:                   ; preds = %155, %152
  %.0.i97 = phi i8 [ %154, %152 ], [ %160, %155 ], !llfi_index !219
  %161 = call %"class.std::basic_ostream"* @_ZNSo3putEc(%"class.std::basic_ostream"* @_ZSt4cerr, i8 signext %.0.i97), !llfi_index !220
  %162 = call %"class.std::basic_ostream"* @_ZNSo5flushEv(%"class.std::basic_ostream"* %161), !llfi_index !221
  %163 = call %"class.std::basic_ostream"* @_ZSt16__ostream_insertIcSt11char_traitsIcEERSt13basic_ostreamIT_T0_ES6_PKS3_l(%"class.std::basic_ostream"* %162, i8* getelementptr inbounds ([9 x i8]* @.str1, i64 0, i64 0), i64 8), !llfi_index !222
  %164 = load i8** %argv, align 8, !tbaa !223, !llfi_index !224
  %165 = icmp eq i8* %164, null, !llfi_index !225
  br i1 %165, label %166, label %179, !llfi_index !226

; <label>:166                                     ; preds = %_ZNKSt5ctypeIcE5widenEc.exit98
  %167 = bitcast %"class.std::basic_ostream"* %162 to i8**, !llfi_index !227
  %168 = load i8** %167, align 8, !tbaa !184, !llfi_index !228
  %169 = getelementptr i8* %168, i64 -24, !llfi_index !229
  %170 = bitcast i8* %169 to i64*, !llfi_index !230
  %171 = load i64* %170, align 8, !llfi_index !231
  %172 = bitcast %"class.std::basic_ostream"* %162 to i8*, !llfi_index !232
  %173 = getelementptr inbounds i8* %172, i64 %171, !llfi_index !233
  %174 = bitcast i8* %173 to %"class.std::basic_ios"*, !llfi_index !234
  %.sum.i = add i64 %171, 32, !llfi_index !235
  %175 = getelementptr inbounds i8* %172, i64 %.sum.i, !llfi_index !236
  %176 = bitcast i8* %175 to i32*, !llfi_index !237
  %177 = load i32* %176, align 4, !tbaa !238, !llfi_index !246
  %178 = or i32 %177, 1, !llfi_index !247
  call void @_ZNSt9basic_iosIcSt11char_traitsIcEE5clearESt12_Ios_Iostate(%"class.std::basic_ios"* %174, i32 %178), !llfi_index !248
  br label %_ZStlsISt11char_traitsIcEERSt13basic_ostreamIcT_ES5_PKc.exit, !llfi_index !249

; <label>:179                                     ; preds = %_ZNKSt5ctypeIcE5widenEc.exit98
  %180 = call i64 @strlen(i8* %164) #2, !llfi_index !250
  %181 = call %"class.std::basic_ostream"* @_ZSt16__ostream_insertIcSt11char_traitsIcEERSt13basic_ostreamIT_T0_ES6_PKS3_l(%"class.std::basic_ostream"* %162, i8* %164, i64 %180), !llfi_index !251
  %.pre = bitcast %"class.std::basic_ostream"* %162 to i8**, !llfi_index !252
  %.pre195 = bitcast %"class.std::basic_ostream"* %162 to i8*, !llfi_index !253
  br label %_ZStlsISt11char_traitsIcEERSt13basic_ostreamIcT_ES5_PKc.exit, !llfi_index !254

_ZStlsISt11char_traitsIcEERSt13basic_ostreamIcT_ES5_PKc.exit: ; preds = %179, %166
  %.pre-phi196 = phi i8* [ %172, %166 ], [ %.pre195, %179 ], !llfi_index !255
  %.pre-phi = phi i8** [ %167, %166 ], [ %.pre, %179 ], !llfi_index !256
  %182 = call %"class.std::basic_ostream"* @_ZSt16__ostream_insertIcSt11char_traitsIcEERSt13basic_ostreamIT_T0_ES6_PKS3_l(%"class.std::basic_ostream"* %162, i8* getelementptr inbounds ([10 x i8]* @.str2, i64 0, i64 0), i64 9), !llfi_index !257
  %183 = load i8** %.pre-phi, align 8, !tbaa !184, !llfi_index !258
  %184 = getelementptr i8* %183, i64 -24, !llfi_index !259
  %185 = bitcast i8* %184 to i64*, !llfi_index !260
  %186 = load i64* %185, align 8, !llfi_index !261
  %.sum191 = add i64 %186, 240, !llfi_index !262
  %187 = getelementptr inbounds i8* %.pre-phi196, i64 %.sum191, !llfi_index !263
  %188 = bitcast i8* %187 to %"class.std::ctype"**, !llfi_index !264
  %189 = load %"class.std::ctype"** %188, align 8, !tbaa !193, !llfi_index !265
  %190 = icmp eq %"class.std::ctype"* %189, null, !llfi_index !266
  br i1 %190, label %191, label %_ZSt13__check_facetISt5ctypeIcEERKT_PS3_.exit90, !llfi_index !267

; <label>:191                                     ; preds = %_ZStlsISt11char_traitsIcEERSt13basic_ostreamIcT_ES5_PKc.exit
  call void @_ZSt16__throw_bad_castv() #14, !llfi_index !268
  unreachable, !llfi_index !269

_ZSt13__check_facetISt5ctypeIcEERKT_PS3_.exit90:  ; preds = %_ZStlsISt11char_traitsIcEERSt13basic_ostreamIcT_ES5_PKc.exit
  %192 = getelementptr inbounds %"class.std::ctype"* %189, i64 0, i32 6, !llfi_index !270
  %193 = load i8* %192, align 1, !tbaa !203, !llfi_index !271
  %194 = icmp eq i8 %193, 0, !llfi_index !272
  br i1 %194, label %198, label %195, !llfi_index !273

; <label>:195                                     ; preds = %_ZSt13__check_facetISt5ctypeIcEERKT_PS3_.exit90
  %196 = getelementptr inbounds %"class.std::ctype"* %189, i64 0, i32 7, i64 10, !llfi_index !274
  %197 = load i8* %196, align 1, !tbaa !209, !llfi_index !275
  br label %_ZNKSt5ctypeIcE5widenEc.exit83, !llfi_index !276

; <label>:198                                     ; preds = %_ZSt13__check_facetISt5ctypeIcEERKT_PS3_.exit90
  call void @_ZNKSt5ctypeIcE13_M_widen_initEv(%"class.std::ctype"* %189), !llfi_index !277
  %199 = bitcast %"class.std::ctype"* %189 to i8 (%"class.std::ctype"*, i8)***, !llfi_index !278
  %200 = load i8 (%"class.std::ctype"*, i8)*** %199, align 8, !tbaa !184, !llfi_index !279
  %201 = getelementptr inbounds i8 (%"class.std::ctype"*, i8)** %200, i64 6, !llfi_index !280
  %202 = load i8 (%"class.std::ctype"*, i8)** %201, align 8, !llfi_index !281
  %203 = call signext i8 %202(%"class.std::ctype"* %189, i8 signext 10), !llfi_index !282
  br label %_ZNKSt5ctypeIcE5widenEc.exit83, !llfi_index !283

_ZNKSt5ctypeIcE5widenEc.exit83:                   ; preds = %198, %195
  %.0.i82 = phi i8 [ %197, %195 ], [ %203, %198 ], !llfi_index !284
  %204 = call %"class.std::basic_ostream"* @_ZNSo3putEc(%"class.std::basic_ostream"* %162, i8 signext %.0.i82), !llfi_index !285
  %205 = call %"class.std::basic_ostream"* @_ZNSo5flushEv(%"class.std::basic_ostream"* %204), !llfi_index !286
  %206 = call %"class.std::basic_ostream"* @_ZSt16__ostream_insertIcSt11char_traitsIcEERSt13basic_ostreamIT_T0_ES6_PKS3_l(%"class.std::basic_ostream"* %205, i8* getelementptr inbounds ([64 x i8]* @.str3, i64 0, i64 0), i64 63), !llfi_index !287
  %207 = bitcast %"class.std::basic_ostream"* %205 to i8**, !llfi_index !288
  %208 = load i8** %207, align 8, !tbaa !184, !llfi_index !289
  %209 = getelementptr i8* %208, i64 -24, !llfi_index !290
  %210 = bitcast i8* %209 to i64*, !llfi_index !291
  %211 = load i64* %210, align 8, !llfi_index !292
  %212 = bitcast %"class.std::basic_ostream"* %205 to i8*, !llfi_index !293
  %.sum192 = add i64 %211, 240, !llfi_index !294
  %213 = getelementptr inbounds i8* %212, i64 %.sum192, !llfi_index !295
  %214 = bitcast i8* %213 to %"class.std::ctype"**, !llfi_index !296
  %215 = load %"class.std::ctype"** %214, align 8, !tbaa !193, !llfi_index !297
  %216 = icmp eq %"class.std::ctype"* %215, null, !llfi_index !298
  br i1 %216, label %217, label %_ZSt13__check_facetISt5ctypeIcEERKT_PS3_.exit78, !llfi_index !299

; <label>:217                                     ; preds = %_ZNKSt5ctypeIcE5widenEc.exit83
  call void @_ZSt16__throw_bad_castv() #14, !llfi_index !300
  unreachable, !llfi_index !301

_ZSt13__check_facetISt5ctypeIcEERKT_PS3_.exit78:  ; preds = %_ZNKSt5ctypeIcE5widenEc.exit83
  %218 = getelementptr inbounds %"class.std::ctype"* %215, i64 0, i32 6, !llfi_index !302
  %219 = load i8* %218, align 1, !tbaa !203, !llfi_index !303
  %220 = icmp eq i8 %219, 0, !llfi_index !304
  br i1 %220, label %224, label %221, !llfi_index !305

; <label>:221                                     ; preds = %_ZSt13__check_facetISt5ctypeIcEERKT_PS3_.exit78
  %222 = getelementptr inbounds %"class.std::ctype"* %215, i64 0, i32 7, i64 10, !llfi_index !306
  %223 = load i8* %222, align 1, !tbaa !209, !llfi_index !307
  br label %_ZNKSt5ctypeIcE5widenEc.exit71, !llfi_index !308

; <label>:224                                     ; preds = %_ZSt13__check_facetISt5ctypeIcEERKT_PS3_.exit78
  call void @_ZNKSt5ctypeIcE13_M_widen_initEv(%"class.std::ctype"* %215), !llfi_index !309
  %225 = bitcast %"class.std::ctype"* %215 to i8 (%"class.std::ctype"*, i8)***, !llfi_index !310
  %226 = load i8 (%"class.std::ctype"*, i8)*** %225, align 8, !tbaa !184, !llfi_index !311
  %227 = getelementptr inbounds i8 (%"class.std::ctype"*, i8)** %226, i64 6, !llfi_index !312
  %228 = load i8 (%"class.std::ctype"*, i8)** %227, align 8, !llfi_index !313
  %229 = call signext i8 %228(%"class.std::ctype"* %215, i8 signext 10), !llfi_index !314
  br label %_ZNKSt5ctypeIcE5widenEc.exit71, !llfi_index !315

_ZNKSt5ctypeIcE5widenEc.exit71:                   ; preds = %224, %221
  %.0.i70 = phi i8 [ %223, %221 ], [ %229, %224 ], !llfi_index !316
  %230 = call %"class.std::basic_ostream"* @_ZNSo3putEc(%"class.std::basic_ostream"* %205, i8 signext %.0.i70), !llfi_index !317
  %231 = call %"class.std::basic_ostream"* @_ZNSo5flushEv(%"class.std::basic_ostream"* %230), !llfi_index !318
  %232 = call %"class.std::basic_ostream"* @_ZSt16__ostream_insertIcSt11char_traitsIcEERSt13basic_ostreamIT_T0_ES6_PKS3_l(%"class.std::basic_ostream"* %231, i8* getelementptr inbounds ([9 x i8]* @.str4, i64 0, i64 0), i64 8), !llfi_index !319
  %233 = load i8** %argv, align 8, !tbaa !223, !llfi_index !320
  %234 = icmp eq i8* %233, null, !llfi_index !321
  br i1 %234, label %235, label %248, !llfi_index !322

; <label>:235                                     ; preds = %_ZNKSt5ctypeIcE5widenEc.exit71
  %236 = bitcast %"class.std::basic_ostream"* %231 to i8**, !llfi_index !323
  %237 = load i8** %236, align 8, !tbaa !184, !llfi_index !324
  %238 = getelementptr i8* %237, i64 -24, !llfi_index !325
  %239 = bitcast i8* %238 to i64*, !llfi_index !326
  %240 = load i64* %239, align 8, !llfi_index !327
  %241 = bitcast %"class.std::basic_ostream"* %231 to i8*, !llfi_index !328
  %242 = getelementptr inbounds i8* %241, i64 %240, !llfi_index !329
  %243 = bitcast i8* %242 to %"class.std::basic_ios"*, !llfi_index !330
  %.sum.i38 = add i64 %240, 32, !llfi_index !331
  %244 = getelementptr inbounds i8* %241, i64 %.sum.i38, !llfi_index !332
  %245 = bitcast i8* %244 to i32*, !llfi_index !333
  %246 = load i32* %245, align 4, !tbaa !238, !llfi_index !334
  %247 = or i32 %246, 1, !llfi_index !335
  call void @_ZNSt9basic_iosIcSt11char_traitsIcEE5clearESt12_Ios_Iostate(%"class.std::basic_ios"* %243, i32 %247), !llfi_index !336
  br label %_ZStlsISt11char_traitsIcEERSt13basic_ostreamIcT_ES5_PKc.exit39, !llfi_index !337

; <label>:248                                     ; preds = %_ZNKSt5ctypeIcE5widenEc.exit71
  %249 = call i64 @strlen(i8* %233) #2, !llfi_index !338
  %250 = call %"class.std::basic_ostream"* @_ZSt16__ostream_insertIcSt11char_traitsIcEERSt13basic_ostreamIT_T0_ES6_PKS3_l(%"class.std::basic_ostream"* %231, i8* %233, i64 %249), !llfi_index !339
  %.pre197 = bitcast %"class.std::basic_ostream"* %231 to i8**, !llfi_index !340
  %.pre199 = bitcast %"class.std::basic_ostream"* %231 to i8*, !llfi_index !341
  br label %_ZStlsISt11char_traitsIcEERSt13basic_ostreamIcT_ES5_PKc.exit39, !llfi_index !342

_ZStlsISt11char_traitsIcEERSt13basic_ostreamIcT_ES5_PKc.exit39: ; preds = %248, %235
  %.pre-phi200 = phi i8* [ %241, %235 ], [ %.pre199, %248 ], !llfi_index !343
  %.pre-phi198 = phi i8** [ %236, %235 ], [ %.pre197, %248 ], !llfi_index !344
  %251 = call %"class.std::basic_ostream"* @_ZSt16__ostream_insertIcSt11char_traitsIcEERSt13basic_ostreamIT_T0_ES6_PKS3_l(%"class.std::basic_ostream"* %231, i8* getelementptr inbounds ([16 x i8]* @.str5, i64 0, i64 0), i64 15), !llfi_index !345
  %252 = load i8** %.pre-phi198, align 8, !tbaa !184, !llfi_index !346
  %253 = getelementptr i8* %252, i64 -24, !llfi_index !347
  %254 = bitcast i8* %253 to i64*, !llfi_index !348
  %255 = load i64* %254, align 8, !llfi_index !349
  %.sum193 = add i64 %255, 240, !llfi_index !350
  %256 = getelementptr inbounds i8* %.pre-phi200, i64 %.sum193, !llfi_index !351
  %257 = bitcast i8* %256 to %"class.std::ctype"**, !llfi_index !352
  %258 = load %"class.std::ctype"** %257, align 8, !tbaa !193, !llfi_index !353
  %259 = icmp eq %"class.std::ctype"* %258, null, !llfi_index !354
  br i1 %259, label %260, label %_ZSt13__check_facetISt5ctypeIcEERKT_PS3_.exit60, !llfi_index !355

; <label>:260                                     ; preds = %_ZStlsISt11char_traitsIcEERSt13basic_ostreamIcT_ES5_PKc.exit39
  call void @_ZSt16__throw_bad_castv() #14, !llfi_index !356
  unreachable, !llfi_index !357

_ZSt13__check_facetISt5ctypeIcEERKT_PS3_.exit60:  ; preds = %_ZStlsISt11char_traitsIcEERSt13basic_ostreamIcT_ES5_PKc.exit39
  %261 = getelementptr inbounds %"class.std::ctype"* %258, i64 0, i32 6, !llfi_index !358
  %262 = load i8* %261, align 1, !tbaa !203, !llfi_index !359
  %263 = icmp eq i8 %262, 0, !llfi_index !360
  br i1 %263, label %267, label %264, !llfi_index !361

; <label>:264                                     ; preds = %_ZSt13__check_facetISt5ctypeIcEERKT_PS3_.exit60
  %265 = getelementptr inbounds %"class.std::ctype"* %258, i64 0, i32 7, i64 10, !llfi_index !362
  %266 = load i8* %265, align 1, !tbaa !209, !llfi_index !363
  br label %_ZNKSt5ctypeIcE5widenEc.exit59, !llfi_index !364

; <label>:267                                     ; preds = %_ZSt13__check_facetISt5ctypeIcEERKT_PS3_.exit60
  call void @_ZNKSt5ctypeIcE13_M_widen_initEv(%"class.std::ctype"* %258), !llfi_index !365
  %268 = bitcast %"class.std::ctype"* %258 to i8 (%"class.std::ctype"*, i8)***, !llfi_index !366
  %269 = load i8 (%"class.std::ctype"*, i8)*** %268, align 8, !tbaa !184, !llfi_index !367
  %270 = getelementptr inbounds i8 (%"class.std::ctype"*, i8)** %269, i64 6, !llfi_index !368
  %271 = load i8 (%"class.std::ctype"*, i8)** %270, align 8, !llfi_index !369
  %272 = call signext i8 %271(%"class.std::ctype"* %258, i8 signext 10), !llfi_index !370
  br label %_ZNKSt5ctypeIcE5widenEc.exit59, !llfi_index !371

_ZNKSt5ctypeIcE5widenEc.exit59:                   ; preds = %267, %264
  %.0.i58 = phi i8 [ %266, %264 ], [ %272, %267 ], !llfi_index !372
  %273 = call %"class.std::basic_ostream"* @_ZNSo3putEc(%"class.std::basic_ostream"* %231, i8 signext %.0.i58), !llfi_index !373
  %274 = call %"class.std::basic_ostream"* @_ZNSo5flushEv(%"class.std::basic_ostream"* %273), !llfi_index !374
  %275 = call %"class.std::basic_ostream"* @_ZSt16__ostream_insertIcSt11char_traitsIcEERSt13basic_ostreamIT_T0_ES6_PKS3_l(%"class.std::basic_ostream"* %274, i8* getelementptr inbounds ([79 x i8]* @.str6, i64 0, i64 0), i64 78), !llfi_index !375
  %276 = bitcast %"class.std::basic_ostream"* %274 to i8**, !llfi_index !376
  %277 = load i8** %276, align 8, !tbaa !184, !llfi_index !377
  %278 = getelementptr i8* %277, i64 -24, !llfi_index !378
  %279 = bitcast i8* %278 to i64*, !llfi_index !379
  %280 = load i64* %279, align 8, !llfi_index !380
  %281 = bitcast %"class.std::basic_ostream"* %274 to i8*, !llfi_index !381
  %.sum194 = add i64 %280, 240, !llfi_index !382
  %282 = getelementptr inbounds i8* %281, i64 %.sum194, !llfi_index !383
  %283 = bitcast i8* %282 to %"class.std::ctype"**, !llfi_index !384
  %284 = load %"class.std::ctype"** %283, align 8, !tbaa !193, !llfi_index !385
  %285 = icmp eq %"class.std::ctype"* %284, null, !llfi_index !386
  br i1 %285, label %286, label %_ZSt13__check_facetISt5ctypeIcEERKT_PS3_.exit51, !llfi_index !387

; <label>:286                                     ; preds = %_ZNKSt5ctypeIcE5widenEc.exit59
  call void @_ZSt16__throw_bad_castv() #14, !llfi_index !388
  unreachable, !llfi_index !389

_ZSt13__check_facetISt5ctypeIcEERKT_PS3_.exit51:  ; preds = %_ZNKSt5ctypeIcE5widenEc.exit59
  %287 = getelementptr inbounds %"class.std::ctype"* %284, i64 0, i32 6, !llfi_index !390
  %288 = load i8* %287, align 1, !tbaa !203, !llfi_index !391
  %289 = icmp eq i8 %288, 0, !llfi_index !392
  br i1 %289, label %293, label %290, !llfi_index !393

; <label>:290                                     ; preds = %_ZSt13__check_facetISt5ctypeIcEERKT_PS3_.exit51
  %291 = getelementptr inbounds %"class.std::ctype"* %284, i64 0, i32 7, i64 10, !llfi_index !394
  %292 = load i8* %291, align 1, !tbaa !209, !llfi_index !395
  br label %_ZNKSt5ctypeIcE5widenEc.exit50, !llfi_index !396

; <label>:293                                     ; preds = %_ZSt13__check_facetISt5ctypeIcEERKT_PS3_.exit51
  call void @_ZNKSt5ctypeIcE13_M_widen_initEv(%"class.std::ctype"* %284), !llfi_index !397
  %294 = bitcast %"class.std::ctype"* %284 to i8 (%"class.std::ctype"*, i8)***, !llfi_index !398
  %295 = load i8 (%"class.std::ctype"*, i8)*** %294, align 8, !tbaa !184, !llfi_index !399
  %296 = getelementptr inbounds i8 (%"class.std::ctype"*, i8)** %295, i64 6, !llfi_index !400
  %297 = load i8 (%"class.std::ctype"*, i8)** %296, align 8, !llfi_index !401
  %298 = call signext i8 %297(%"class.std::ctype"* %284, i8 signext 10), !llfi_index !402
  br label %_ZNKSt5ctypeIcE5widenEc.exit50, !llfi_index !403

_ZNKSt5ctypeIcE5widenEc.exit50:                   ; preds = %293, %290
  %.0.i49 = phi i8 [ %292, %290 ], [ %298, %293 ], !llfi_index !404
  %299 = call %"class.std::basic_ostream"* @_ZNSo3putEc(%"class.std::basic_ostream"* %274, i8 signext %.0.i49), !llfi_index !405
  %300 = call %"class.std::basic_ostream"* @_ZNSo5flushEv(%"class.std::basic_ostream"* %299), !llfi_index !406
  call void @exit(i32 1) #15, !llfi_index !407
  unreachable, !llfi_index !408

; <label>:301                                     ; preds = %0, %0
  %302 = icmp eq i32 %argc, 4, !llfi_index !409
  %303 = getelementptr inbounds i8** %argv, i64 1, !llfi_index !410
  %304 = load i8** %303, align 8, !tbaa !223, !llfi_index !411
  br i1 %302, label %305, label %316, !llfi_index !412

; <label>:305                                     ; preds = %301
  %306 = call i64 @strtol(i8* nocapture %304, i8** null, i32 10) #2, !llfi_index !413
  %307 = trunc i64 %306 to i32, !llfi_index !414
  %308 = getelementptr inbounds i8** %argv, i64 2, !llfi_index !415
  %309 = load i8** %308, align 8, !tbaa !223, !llfi_index !416
  %310 = call i64 @strtol(i8* nocapture %309, i8** null, i32 10) #2, !llfi_index !417
  %311 = trunc i64 %310 to i32, !llfi_index !418
  %312 = getelementptr inbounds i8** %argv, i64 3, !llfi_index !419
  %313 = load i8** %312, align 8, !tbaa !223, !llfi_index !420
  %314 = call i64 @strtol(i8* nocapture %313, i8** null, i32 10) #2, !llfi_index !421
  %315 = trunc i64 %314 to i32, !llfi_index !422
  call void @_Z15generate_matrixiiiPP24HPC_Sparse_Matrix_STRUCTPPdS3_S3_(i32 %307, i32 %311, i32 %315, %struct.HPC_Sparse_Matrix_STRUCT** %A, double** %x, double** %b, double** %xexact), !llfi_index !423
  br label %317, !llfi_index !424

; <label>:316                                     ; preds = %301
  call void @_Z12read_HPC_rowPcPP24HPC_Sparse_Matrix_STRUCTPPdS4_S4_(i8* %304, %struct.HPC_Sparse_Matrix_STRUCT** %A, double** %x, double** %b, double** %xexact), !llfi_index !425
  br label %317, !llfi_index !426

; <label>:317                                     ; preds = %316, %305
  %nz.0 = phi i32 [ %315, %305 ], [ undef, %316 ], !llfi_index !427
  %ny.0 = phi i32 [ %311, %305 ], [ undef, %316 ], !llfi_index !428
  %nx.0 = phi i32 [ %307, %305 ], [ undef, %316 ], !llfi_index !429
  %318 = call double @_Z7mytimerv(), !llfi_index !430
  store i32 0, i32* %niters, align 4, !tbaa !431, !llfi_index !432
  store double 0.000000e+00, double* %normr, align 8, !tbaa !9, !llfi_index !433
  %319 = load %struct.HPC_Sparse_Matrix_STRUCT** %A, align 8, !tbaa !223, !llfi_index !434
  %320 = load double** %b, align 8, !tbaa !223, !llfi_index !435
  %321 = load double** %x, align 8, !tbaa !223, !llfi_index !436
  %322 = getelementptr inbounds [7 x double]* %times, i64 0, i64 0, !llfi_index !437
  %323 = call i32 @_Z5HPCCGP24HPC_Sparse_Matrix_STRUCTPKdPdidRiRdS3_(%struct.HPC_Sparse_Matrix_STRUCT* %319, double* %320, double* %321, i32 150, double 0.000000e+00, i32* %niters, double* %normr, double* %322), !llfi_index !438
  %324 = icmp eq i32 %323, 0, !llfi_index !439
  br i1 %324, label %354, label %325, !llfi_index !440

; <label>:325                                     ; preds = %317
  %326 = call %"class.std::basic_ostream"* @_ZSt16__ostream_insertIcSt11char_traitsIcEERSt13basic_ostreamIT_T0_ES6_PKS3_l(%"class.std::basic_ostream"* @_ZSt4cerr, i8* getelementptr inbounds ([22 x i8]* @.str7, i64 0, i64 0), i64 21), !llfi_index !441
  %327 = call %"class.std::basic_ostream"* @_ZNSolsEi(%"class.std::basic_ostream"* @_ZSt4cerr, i32 %323), !llfi_index !442
  %328 = call %"class.std::basic_ostream"* @_ZSt16__ostream_insertIcSt11char_traitsIcEERSt13basic_ostreamIT_T0_ES6_PKS3_l(%"class.std::basic_ostream"* %327, i8* getelementptr inbounds ([3 x i8]* @.str8, i64 0, i64 0), i64 2), !llfi_index !443
  %329 = bitcast %"class.std::basic_ostream"* %327 to i8**, !llfi_index !444
  %330 = load i8** %329, align 8, !tbaa !184, !llfi_index !445
  %331 = getelementptr i8* %330, i64 -24, !llfi_index !446
  %332 = bitcast i8* %331 to i64*, !llfi_index !447
  %333 = load i64* %332, align 8, !llfi_index !448
  %334 = bitcast %"class.std::basic_ostream"* %327 to i8*, !llfi_index !449
  %.sum = add i64 %333, 240, !llfi_index !450
  %335 = getelementptr inbounds i8* %334, i64 %.sum, !llfi_index !451
  %336 = bitcast i8* %335 to %"class.std::ctype"**, !llfi_index !452
  %337 = load %"class.std::ctype"** %336, align 8, !tbaa !193, !llfi_index !453
  %338 = icmp eq %"class.std::ctype"* %337, null, !llfi_index !454
  br i1 %338, label %339, label %_ZSt13__check_facetISt5ctypeIcEERKT_PS3_.exit, !llfi_index !455

; <label>:339                                     ; preds = %325
  call void @_ZSt16__throw_bad_castv() #14, !llfi_index !456
  unreachable, !llfi_index !457

_ZSt13__check_facetISt5ctypeIcEERKT_PS3_.exit:    ; preds = %325
  %340 = getelementptr inbounds %"class.std::ctype"* %337, i64 0, i32 6, !llfi_index !458
  %341 = load i8* %340, align 1, !tbaa !203, !llfi_index !459
  %342 = icmp eq i8 %341, 0, !llfi_index !460
  br i1 %342, label %346, label %343, !llfi_index !461

; <label>:343                                     ; preds = %_ZSt13__check_facetISt5ctypeIcEERKT_PS3_.exit
  %344 = getelementptr inbounds %"class.std::ctype"* %337, i64 0, i32 7, i64 10, !llfi_index !462
  %345 = load i8* %344, align 1, !tbaa !209, !llfi_index !463
  br label %_ZNKSt5ctypeIcE5widenEc.exit, !llfi_index !464

; <label>:346                                     ; preds = %_ZSt13__check_facetISt5ctypeIcEERKT_PS3_.exit
  call void @_ZNKSt5ctypeIcE13_M_widen_initEv(%"class.std::ctype"* %337), !llfi_index !465
  %347 = bitcast %"class.std::ctype"* %337 to i8 (%"class.std::ctype"*, i8)***, !llfi_index !466
  %348 = load i8 (%"class.std::ctype"*, i8)*** %347, align 8, !tbaa !184, !llfi_index !467
  %349 = getelementptr inbounds i8 (%"class.std::ctype"*, i8)** %348, i64 6, !llfi_index !468
  %350 = load i8 (%"class.std::ctype"*, i8)** %349, align 8, !llfi_index !469
  %351 = call signext i8 %350(%"class.std::ctype"* %337, i8 signext 10), !llfi_index !470
  br label %_ZNKSt5ctypeIcE5widenEc.exit, !llfi_index !471

_ZNKSt5ctypeIcE5widenEc.exit:                     ; preds = %346, %343
  %.0.i = phi i8 [ %345, %343 ], [ %351, %346 ], !llfi_index !472
  %352 = call %"class.std::basic_ostream"* @_ZNSo3putEc(%"class.std::basic_ostream"* %327, i8 signext %.0.i), !llfi_index !473
  %353 = call %"class.std::basic_ostream"* @_ZNSo5flushEv(%"class.std::basic_ostream"* %352), !llfi_index !474
  br label %354, !llfi_index !475

; <label>:354                                     ; preds = %_ZNKSt5ctypeIcE5widenEc.exit, %317
  %355 = bitcast %class.YAML_Doc* %doc to i8*, !llfi_index !476
  call void @llvm.lifetime.start(i64 72, i8* %355) #2, !llfi_index !477
  invoke void @_ZNSsC1EPKcRKSaIcE(%"class.std::basic_string"* %93, i8* getelementptr inbounds ([6 x i8]* @.str9, i64 0, i64 0), %"class.std::allocator"* %94)
          to label %356 unwind label %852, !llfi_index !478

; <label>:356                                     ; preds = %354
  invoke void @_ZNSsC1EPKcRKSaIcE(%"class.std::basic_string"* %95, i8* getelementptr inbounds ([4 x i8]* @.str10, i64 0, i64 0), %"class.std::allocator"* %96)
          to label %357 unwind label %856, !llfi_index !479

; <label>:357                                     ; preds = %356
  invoke void @_ZNSsC1EPKcRKSaIcE(%"class.std::basic_string"* %97, i8* getelementptr inbounds ([1 x i8]* @.str11, i64 0, i64 0), %"class.std::allocator"* %98)
          to label %358 unwind label %860, !llfi_index !480

; <label>:358                                     ; preds = %357
  invoke void @_ZNSsC1EPKcRKSaIcE(%"class.std::basic_string"* %99, i8* getelementptr inbounds ([1 x i8]* @.str11, i64 0, i64 0), %"class.std::allocator"* %100)
          to label %359 unwind label %864, !llfi_index !481

; <label>:359                                     ; preds = %358
  invoke void @_ZN8YAML_DocC1ERKSsS1_S1_S1_(%class.YAML_Doc* %doc, %"class.std::basic_string"* %93, %"class.std::basic_string"* %95, %"class.std::basic_string"* %97, %"class.std::basic_string"* %99)
          to label %360 unwind label %868, !llfi_index !482

; <label>:360                                     ; preds = %359
  %361 = getelementptr inbounds %"class.std::allocator"* %92, i64 0, i32 0, !llfi_index !483
  call void @llvm.lifetime.start(i64 1, i8* %361), !llfi_index !484
  %362 = getelementptr inbounds %"class.std::basic_string"* %99, i64 0, i32 0, i32 0, !llfi_index !485
  %363 = load i8** %362, align 8, !tbaa !486, !llfi_index !489
  %364 = getelementptr inbounds i8* %363, i64 -24, !llfi_index !490
  %365 = bitcast i8* %364 to %"struct.std::basic_string<char, std::char_traits<char>, std::allocator<char> >::_Rep"*, !llfi_index !491
  %366 = icmp eq i8* %364, bitcast ([0 x i64]* @_ZNSs4_Rep20_S_empty_rep_storageE to i8*), !llfi_index !492
  br i1 %366, label %379, label %367, !prof !493, !llfi_index !494

; <label>:367                                     ; preds = %360
  %368 = getelementptr inbounds i8* %363, i64 -8, !llfi_index !495
  %369 = bitcast i8* %368 to i32*, !llfi_index !496
  br i1 icmp ne (i8* bitcast (i32 (i32*, void (i8*)*)* @__pthread_key_create to i8*), i8* null), label %370, label %374, !llfi_index !497

; <label>:370                                     ; preds = %367
  %371 = bitcast i32* %91 to i8*, !llfi_index !498
  call void @llvm.lifetime.start(i64 4, i8* %371), !llfi_index !499
  %372 = atomicrmw volatile add i32* %369, i32 -1 acq_rel, !llfi_index !500
  store i32 %372, i32* %91, align 4, !llfi_index !501
  %373 = load volatile i32* %91, align 4, !llfi_index !502
  call void @llvm.lifetime.end(i64 4, i8* %371), !llfi_index !503
  br label %_ZN9__gnu_cxxL27__exchange_and_add_dispatchEPii.exit.i.i.i, !llfi_index !504

; <label>:374                                     ; preds = %367
  %375 = load i32* %369, align 4, !tbaa !431, !llfi_index !505
  %376 = add nsw i32 %375, -1, !llfi_index !506
  store i32 %376, i32* %369, align 4, !tbaa !431, !llfi_index !507
  br label %_ZN9__gnu_cxxL27__exchange_and_add_dispatchEPii.exit.i.i.i, !llfi_index !508

_ZN9__gnu_cxxL27__exchange_and_add_dispatchEPii.exit.i.i.i: ; preds = %374, %370
  %.0.i.i.i.i = phi i32 [ %373, %370 ], [ %375, %374 ], !llfi_index !509
  %377 = icmp slt i32 %.0.i.i.i.i, 1, !llfi_index !510
  br i1 %377, label %378, label %379, !llfi_index !511

; <label>:378                                     ; preds = %_ZN9__gnu_cxxL27__exchange_and_add_dispatchEPii.exit.i.i.i
  call void @_ZNSs4_Rep10_M_destroyERKSaIcE(%"struct.std::basic_string<char, std::char_traits<char>, std::allocator<char> >::_Rep"* %365, %"class.std::allocator"* %92) #2, !llfi_index !512
  br label %379, !llfi_index !513

; <label>:379                                     ; preds = %378, %_ZN9__gnu_cxxL27__exchange_and_add_dispatchEPii.exit.i.i.i, %360
  call void @llvm.lifetime.end(i64 1, i8* %361), !llfi_index !514
  %380 = getelementptr inbounds %"class.std::allocator"* %90, i64 0, i32 0, !llfi_index !515
  call void @llvm.lifetime.start(i64 1, i8* %380), !llfi_index !516
  %381 = getelementptr inbounds %"class.std::basic_string"* %97, i64 0, i32 0, i32 0, !llfi_index !517
  %382 = load i8** %381, align 8, !tbaa !486, !llfi_index !518
  %383 = getelementptr inbounds i8* %382, i64 -24, !llfi_index !519
  %384 = bitcast i8* %383 to %"struct.std::basic_string<char, std::char_traits<char>, std::allocator<char> >::_Rep"*, !llfi_index !520
  %385 = icmp eq i8* %383, bitcast ([0 x i64]* @_ZNSs4_Rep20_S_empty_rep_storageE to i8*), !llfi_index !521
  br i1 %385, label %398, label %386, !prof !493, !llfi_index !522

; <label>:386                                     ; preds = %379
  %387 = getelementptr inbounds i8* %382, i64 -8, !llfi_index !523
  %388 = bitcast i8* %387 to i32*, !llfi_index !524
  br i1 icmp ne (i8* bitcast (i32 (i32*, void (i8*)*)* @__pthread_key_create to i8*), i8* null), label %389, label %393, !llfi_index !525

; <label>:389                                     ; preds = %386
  %390 = bitcast i32* %89 to i8*, !llfi_index !526
  call void @llvm.lifetime.start(i64 4, i8* %390), !llfi_index !527
  %391 = atomicrmw volatile add i32* %388, i32 -1 acq_rel, !llfi_index !528
  store i32 %391, i32* %89, align 4, !llfi_index !529
  %392 = load volatile i32* %89, align 4, !llfi_index !530
  call void @llvm.lifetime.end(i64 4, i8* %390), !llfi_index !531
  br label %_ZN9__gnu_cxxL27__exchange_and_add_dispatchEPii.exit.i.i.i41, !llfi_index !532

; <label>:393                                     ; preds = %386
  %394 = load i32* %388, align 4, !tbaa !431, !llfi_index !533
  %395 = add nsw i32 %394, -1, !llfi_index !534
  store i32 %395, i32* %388, align 4, !tbaa !431, !llfi_index !535
  br label %_ZN9__gnu_cxxL27__exchange_and_add_dispatchEPii.exit.i.i.i41, !llfi_index !536

_ZN9__gnu_cxxL27__exchange_and_add_dispatchEPii.exit.i.i.i41: ; preds = %393, %389
  %.0.i.i.i.i40 = phi i32 [ %392, %389 ], [ %394, %393 ], !llfi_index !537
  %396 = icmp slt i32 %.0.i.i.i.i40, 1, !llfi_index !538
  br i1 %396, label %397, label %398, !llfi_index !539

; <label>:397                                     ; preds = %_ZN9__gnu_cxxL27__exchange_and_add_dispatchEPii.exit.i.i.i41
  call void @_ZNSs4_Rep10_M_destroyERKSaIcE(%"struct.std::basic_string<char, std::char_traits<char>, std::allocator<char> >::_Rep"* %384, %"class.std::allocator"* %90) #2, !llfi_index !540
  br label %398, !llfi_index !541

; <label>:398                                     ; preds = %397, %_ZN9__gnu_cxxL27__exchange_and_add_dispatchEPii.exit.i.i.i41, %379
  call void @llvm.lifetime.end(i64 1, i8* %380), !llfi_index !542
  %399 = getelementptr inbounds %"class.std::allocator"* %88, i64 0, i32 0, !llfi_index !543
  call void @llvm.lifetime.start(i64 1, i8* %399), !llfi_index !544
  %400 = getelementptr inbounds %"class.std::basic_string"* %95, i64 0, i32 0, i32 0, !llfi_index !545
  %401 = load i8** %400, align 8, !tbaa !486, !llfi_index !546
  %402 = getelementptr inbounds i8* %401, i64 -24, !llfi_index !547
  %403 = bitcast i8* %402 to %"struct.std::basic_string<char, std::char_traits<char>, std::allocator<char> >::_Rep"*, !llfi_index !548
  %404 = icmp eq i8* %402, bitcast ([0 x i64]* @_ZNSs4_Rep20_S_empty_rep_storageE to i8*), !llfi_index !549
  br i1 %404, label %417, label %405, !prof !493, !llfi_index !550

; <label>:405                                     ; preds = %398
  %406 = getelementptr inbounds i8* %401, i64 -8, !llfi_index !551
  %407 = bitcast i8* %406 to i32*, !llfi_index !552
  br i1 icmp ne (i8* bitcast (i32 (i32*, void (i8*)*)* @__pthread_key_create to i8*), i8* null), label %408, label %412, !llfi_index !553

; <label>:408                                     ; preds = %405
  %409 = bitcast i32* %87 to i8*, !llfi_index !554
  call void @llvm.lifetime.start(i64 4, i8* %409), !llfi_index !555
  %410 = atomicrmw volatile add i32* %407, i32 -1 acq_rel, !llfi_index !556
  store i32 %410, i32* %87, align 4, !llfi_index !557
  %411 = load volatile i32* %87, align 4, !llfi_index !558
  call void @llvm.lifetime.end(i64 4, i8* %409), !llfi_index !559
  br label %_ZN9__gnu_cxxL27__exchange_and_add_dispatchEPii.exit.i.i.i44, !llfi_index !560

; <label>:412                                     ; preds = %405
  %413 = load i32* %407, align 4, !tbaa !431, !llfi_index !561
  %414 = add nsw i32 %413, -1, !llfi_index !562
  store i32 %414, i32* %407, align 4, !tbaa !431, !llfi_index !563
  br label %_ZN9__gnu_cxxL27__exchange_and_add_dispatchEPii.exit.i.i.i44, !llfi_index !564

_ZN9__gnu_cxxL27__exchange_and_add_dispatchEPii.exit.i.i.i44: ; preds = %412, %408
  %.0.i.i.i.i43 = phi i32 [ %411, %408 ], [ %413, %412 ], !llfi_index !565
  %415 = icmp slt i32 %.0.i.i.i.i43, 1, !llfi_index !566
  br i1 %415, label %416, label %417, !llfi_index !567

; <label>:416                                     ; preds = %_ZN9__gnu_cxxL27__exchange_and_add_dispatchEPii.exit.i.i.i44
  call void @_ZNSs4_Rep10_M_destroyERKSaIcE(%"struct.std::basic_string<char, std::char_traits<char>, std::allocator<char> >::_Rep"* %403, %"class.std::allocator"* %88) #2, !llfi_index !568
  br label %417, !llfi_index !569

; <label>:417                                     ; preds = %416, %_ZN9__gnu_cxxL27__exchange_and_add_dispatchEPii.exit.i.i.i44, %398
  call void @llvm.lifetime.end(i64 1, i8* %399), !llfi_index !570
  %418 = getelementptr inbounds %"class.std::allocator"* %86, i64 0, i32 0, !llfi_index !571
  call void @llvm.lifetime.start(i64 1, i8* %418), !llfi_index !572
  %419 = getelementptr inbounds %"class.std::basic_string"* %93, i64 0, i32 0, i32 0, !llfi_index !573
  %420 = load i8** %419, align 8, !tbaa !486, !llfi_index !574
  %421 = getelementptr inbounds i8* %420, i64 -24, !llfi_index !575
  %422 = bitcast i8* %421 to %"struct.std::basic_string<char, std::char_traits<char>, std::allocator<char> >::_Rep"*, !llfi_index !576
  %423 = icmp eq i8* %421, bitcast ([0 x i64]* @_ZNSs4_Rep20_S_empty_rep_storageE to i8*), !llfi_index !577
  br i1 %423, label %436, label %424, !prof !493, !llfi_index !578

; <label>:424                                     ; preds = %417
  %425 = getelementptr inbounds i8* %420, i64 -8, !llfi_index !579
  %426 = bitcast i8* %425 to i32*, !llfi_index !580
  br i1 icmp ne (i8* bitcast (i32 (i32*, void (i8*)*)* @__pthread_key_create to i8*), i8* null), label %427, label %431, !llfi_index !581

; <label>:427                                     ; preds = %424
  %428 = bitcast i32* %85 to i8*, !llfi_index !582
  call void @llvm.lifetime.start(i64 4, i8* %428), !llfi_index !583
  %429 = atomicrmw volatile add i32* %426, i32 -1 acq_rel, !llfi_index !584
  store i32 %429, i32* %85, align 4, !llfi_index !585
  %430 = load volatile i32* %85, align 4, !llfi_index !586
  call void @llvm.lifetime.end(i64 4, i8* %428), !llfi_index !587
  br label %_ZN9__gnu_cxxL27__exchange_and_add_dispatchEPii.exit.i.i.i47, !llfi_index !588

; <label>:431                                     ; preds = %424
  %432 = load i32* %426, align 4, !tbaa !431, !llfi_index !589
  %433 = add nsw i32 %432, -1, !llfi_index !590
  store i32 %433, i32* %426, align 4, !tbaa !431, !llfi_index !591
  br label %_ZN9__gnu_cxxL27__exchange_and_add_dispatchEPii.exit.i.i.i47, !llfi_index !592

_ZN9__gnu_cxxL27__exchange_and_add_dispatchEPii.exit.i.i.i47: ; preds = %431, %427
  %.0.i.i.i.i46 = phi i32 [ %430, %427 ], [ %432, %431 ], !llfi_index !593
  %434 = icmp slt i32 %.0.i.i.i.i46, 1, !llfi_index !594
  br i1 %434, label %435, label %436, !llfi_index !595

; <label>:435                                     ; preds = %_ZN9__gnu_cxxL27__exchange_and_add_dispatchEPii.exit.i.i.i47
  call void @_ZNSs4_Rep10_M_destroyERKSaIcE(%"struct.std::basic_string<char, std::char_traits<char>, std::allocator<char> >::_Rep"* %422, %"class.std::allocator"* %86) #2, !llfi_index !596
  br label %436, !llfi_index !597

; <label>:436                                     ; preds = %435, %_ZN9__gnu_cxxL27__exchange_and_add_dispatchEPii.exit.i.i.i47, %417
  call void @llvm.lifetime.end(i64 1, i8* %418), !llfi_index !598
  %437 = getelementptr inbounds %class.YAML_Doc* %doc, i64 0, i32 0, !llfi_index !599
  invoke void @_ZNSsC1EPKcRKSaIcE(%"class.std::basic_string"* %101, i8* getelementptr inbounds ([12 x i8]* @.str12, i64 0, i64 0), %"class.std::allocator"* %102)
          to label %438 unwind label %944, !llfi_index !600

; <label>:438                                     ; preds = %436
  invoke void @_ZNSsC1EPKcRKSaIcE(%"class.std::basic_string"* %103, i8* getelementptr inbounds ([1 x i8]* @.str11, i64 0, i64 0), %"class.std::allocator"* %104)
          to label %439 unwind label %948, !llfi_index !601

; <label>:439                                     ; preds = %438
  %440 = invoke %class.YAML_Element* @_ZN12YAML_Element3addERKSsS1_(%class.YAML_Element* %437, %"class.std::basic_string"* %101, %"class.std::basic_string"* %103)
          to label %441 unwind label %952, !llfi_index !602

; <label>:441                                     ; preds = %439
  %442 = getelementptr inbounds %"class.std::allocator"* %84, i64 0, i32 0, !llfi_index !603
  call void @llvm.lifetime.start(i64 1, i8* %442), !llfi_index !604
  %443 = getelementptr inbounds %"class.std::basic_string"* %103, i64 0, i32 0, i32 0, !llfi_index !605
  %444 = load i8** %443, align 8, !tbaa !486, !llfi_index !606
  %445 = getelementptr inbounds i8* %444, i64 -24, !llfi_index !607
  %446 = bitcast i8* %445 to %"struct.std::basic_string<char, std::char_traits<char>, std::allocator<char> >::_Rep"*, !llfi_index !608
  %447 = icmp eq i8* %445, bitcast ([0 x i64]* @_ZNSs4_Rep20_S_empty_rep_storageE to i8*), !llfi_index !609
  br i1 %447, label %460, label %448, !prof !493, !llfi_index !610

; <label>:448                                     ; preds = %441
  %449 = getelementptr inbounds i8* %444, i64 -8, !llfi_index !611
  %450 = bitcast i8* %449 to i32*, !llfi_index !612
  br i1 icmp ne (i8* bitcast (i32 (i32*, void (i8*)*)* @__pthread_key_create to i8*), i8* null), label %451, label %455, !llfi_index !613

; <label>:451                                     ; preds = %448
  %452 = bitcast i32* %83 to i8*, !llfi_index !614
  call void @llvm.lifetime.start(i64 4, i8* %452), !llfi_index !615
  %453 = atomicrmw volatile add i32* %450, i32 -1 acq_rel, !llfi_index !616
  store i32 %453, i32* %83, align 4, !llfi_index !617
  %454 = load volatile i32* %83, align 4, !llfi_index !618
  call void @llvm.lifetime.end(i64 4, i8* %452), !llfi_index !619
  br label %_ZN9__gnu_cxxL27__exchange_and_add_dispatchEPii.exit.i.i.i53, !llfi_index !620

; <label>:455                                     ; preds = %448
  %456 = load i32* %450, align 4, !tbaa !431, !llfi_index !621
  %457 = add nsw i32 %456, -1, !llfi_index !622
  store i32 %457, i32* %450, align 4, !tbaa !431, !llfi_index !623
  br label %_ZN9__gnu_cxxL27__exchange_and_add_dispatchEPii.exit.i.i.i53, !llfi_index !624

_ZN9__gnu_cxxL27__exchange_and_add_dispatchEPii.exit.i.i.i53: ; preds = %455, %451
  %.0.i.i.i.i52 = phi i32 [ %454, %451 ], [ %456, %455 ], !llfi_index !625
  %458 = icmp slt i32 %.0.i.i.i.i52, 1, !llfi_index !626
  br i1 %458, label %459, label %460, !llfi_index !627

; <label>:459                                     ; preds = %_ZN9__gnu_cxxL27__exchange_and_add_dispatchEPii.exit.i.i.i53
  call void @_ZNSs4_Rep10_M_destroyERKSaIcE(%"struct.std::basic_string<char, std::char_traits<char>, std::allocator<char> >::_Rep"* %446, %"class.std::allocator"* %84) #2, !llfi_index !628
  br label %460, !llfi_index !629

; <label>:460                                     ; preds = %459, %_ZN9__gnu_cxxL27__exchange_and_add_dispatchEPii.exit.i.i.i53, %441
  call void @llvm.lifetime.end(i64 1, i8* %442), !llfi_index !630
  %461 = getelementptr inbounds %"class.std::allocator"* %82, i64 0, i32 0, !llfi_index !631
  call void @llvm.lifetime.start(i64 1, i8* %461), !llfi_index !632
  %462 = getelementptr inbounds %"class.std::basic_string"* %101, i64 0, i32 0, i32 0, !llfi_index !633
  %463 = load i8** %462, align 8, !tbaa !486, !llfi_index !634
  %464 = getelementptr inbounds i8* %463, i64 -24, !llfi_index !635
  %465 = bitcast i8* %464 to %"struct.std::basic_string<char, std::char_traits<char>, std::allocator<char> >::_Rep"*, !llfi_index !636
  %466 = icmp eq i8* %464, bitcast ([0 x i64]* @_ZNSs4_Rep20_S_empty_rep_storageE to i8*), !llfi_index !637
  br i1 %466, label %479, label %467, !prof !493, !llfi_index !638

; <label>:467                                     ; preds = %460
  %468 = getelementptr inbounds i8* %463, i64 -8, !llfi_index !639
  %469 = bitcast i8* %468 to i32*, !llfi_index !640
  br i1 icmp ne (i8* bitcast (i32 (i32*, void (i8*)*)* @__pthread_key_create to i8*), i8* null), label %470, label %474, !llfi_index !641

; <label>:470                                     ; preds = %467
  %471 = bitcast i32* %81 to i8*, !llfi_index !642
  call void @llvm.lifetime.start(i64 4, i8* %471), !llfi_index !643
  %472 = atomicrmw volatile add i32* %469, i32 -1 acq_rel, !llfi_index !644
  store i32 %472, i32* %81, align 4, !llfi_index !645
  %473 = load volatile i32* %81, align 4, !llfi_index !646
  call void @llvm.lifetime.end(i64 4, i8* %471), !llfi_index !647
  br label %_ZN9__gnu_cxxL27__exchange_and_add_dispatchEPii.exit.i.i.i56, !llfi_index !648

; <label>:474                                     ; preds = %467
  %475 = load i32* %469, align 4, !tbaa !431, !llfi_index !649
  %476 = add nsw i32 %475, -1, !llfi_index !650
  store i32 %476, i32* %469, align 4, !tbaa !431, !llfi_index !651
  br label %_ZN9__gnu_cxxL27__exchange_and_add_dispatchEPii.exit.i.i.i56, !llfi_index !652

_ZN9__gnu_cxxL27__exchange_and_add_dispatchEPii.exit.i.i.i56: ; preds = %474, %470
  %.0.i.i.i.i55 = phi i32 [ %473, %470 ], [ %475, %474 ], !llfi_index !653
  %477 = icmp slt i32 %.0.i.i.i.i55, 1, !llfi_index !654
  br i1 %477, label %478, label %479, !llfi_index !655

; <label>:478                                     ; preds = %_ZN9__gnu_cxxL27__exchange_and_add_dispatchEPii.exit.i.i.i56
  call void @_ZNSs4_Rep10_M_destroyERKSaIcE(%"struct.std::basic_string<char, std::char_traits<char>, std::allocator<char> >::_Rep"* %465, %"class.std::allocator"* %82) #2, !llfi_index !656
  br label %479, !llfi_index !657

; <label>:479                                     ; preds = %478, %_ZN9__gnu_cxxL27__exchange_and_add_dispatchEPii.exit.i.i.i56, %460
  call void @llvm.lifetime.end(i64 1, i8* %461), !llfi_index !658
  invoke void @_ZNSsC1EPKcRKSaIcE(%"class.std::basic_string"* %105, i8* getelementptr inbounds ([12 x i8]* @.str12, i64 0, i64 0), %"class.std::allocator"* %106)
          to label %480 unwind label %992, !llfi_index !659

; <label>:480                                     ; preds = %479
  %481 = invoke %class.YAML_Element* @_ZN12YAML_Element3getERKSs(%class.YAML_Element* %437, %"class.std::basic_string"* %105)
          to label %482 unwind label %996, !llfi_index !660

; <label>:482                                     ; preds = %480
  invoke void @_ZNSsC1EPKcRKSaIcE(%"class.std::basic_string"* %107, i8* getelementptr inbounds ([16 x i8]* @.str13, i64 0, i64 0), %"class.std::allocator"* %108)
          to label %483 unwind label %1000, !llfi_index !661

; <label>:483                                     ; preds = %482
  invoke void @_ZNSsC1EPKcRKSaIcE(%"class.std::basic_string"* %109, i8* getelementptr inbounds ([1 x i8]* @.str11, i64 0, i64 0), %"class.std::allocator"* %110)
          to label %484 unwind label %1004, !llfi_index !662

; <label>:484                                     ; preds = %483
  %485 = invoke %class.YAML_Element* @_ZN12YAML_Element3addERKSsS1_(%class.YAML_Element* %481, %"class.std::basic_string"* %107, %"class.std::basic_string"* %109)
          to label %486 unwind label %1008, !llfi_index !663

; <label>:486                                     ; preds = %484
  %487 = getelementptr inbounds %"class.std::allocator"* %80, i64 0, i32 0, !llfi_index !664
  call void @llvm.lifetime.start(i64 1, i8* %487), !llfi_index !665
  %488 = getelementptr inbounds %"class.std::basic_string"* %109, i64 0, i32 0, i32 0, !llfi_index !666
  %489 = load i8** %488, align 8, !tbaa !486, !llfi_index !667
  %490 = getelementptr inbounds i8* %489, i64 -24, !llfi_index !668
  %491 = bitcast i8* %490 to %"struct.std::basic_string<char, std::char_traits<char>, std::allocator<char> >::_Rep"*, !llfi_index !669
  %492 = icmp eq i8* %490, bitcast ([0 x i64]* @_ZNSs4_Rep20_S_empty_rep_storageE to i8*), !llfi_index !670
  br i1 %492, label %505, label %493, !prof !493, !llfi_index !671

; <label>:493                                     ; preds = %486
  %494 = getelementptr inbounds i8* %489, i64 -8, !llfi_index !672
  %495 = bitcast i8* %494 to i32*, !llfi_index !673
  br i1 icmp ne (i8* bitcast (i32 (i32*, void (i8*)*)* @__pthread_key_create to i8*), i8* null), label %496, label %500, !llfi_index !674

; <label>:496                                     ; preds = %493
  %497 = bitcast i32* %79 to i8*, !llfi_index !675
  call void @llvm.lifetime.start(i64 4, i8* %497), !llfi_index !676
  %498 = atomicrmw volatile add i32* %495, i32 -1 acq_rel, !llfi_index !677
  store i32 %498, i32* %79, align 4, !llfi_index !678
  %499 = load volatile i32* %79, align 4, !llfi_index !679
  call void @llvm.lifetime.end(i64 4, i8* %497), !llfi_index !680
  br label %_ZN9__gnu_cxxL27__exchange_and_add_dispatchEPii.exit.i.i.i62, !llfi_index !681

; <label>:500                                     ; preds = %493
  %501 = load i32* %495, align 4, !tbaa !431, !llfi_index !682
  %502 = add nsw i32 %501, -1, !llfi_index !683
  store i32 %502, i32* %495, align 4, !tbaa !431, !llfi_index !684
  br label %_ZN9__gnu_cxxL27__exchange_and_add_dispatchEPii.exit.i.i.i62, !llfi_index !685

_ZN9__gnu_cxxL27__exchange_and_add_dispatchEPii.exit.i.i.i62: ; preds = %500, %496
  %.0.i.i.i.i61 = phi i32 [ %499, %496 ], [ %501, %500 ], !llfi_index !686
  %503 = icmp slt i32 %.0.i.i.i.i61, 1, !llfi_index !687
  br i1 %503, label %504, label %505, !llfi_index !688

; <label>:504                                     ; preds = %_ZN9__gnu_cxxL27__exchange_and_add_dispatchEPii.exit.i.i.i62
  call void @_ZNSs4_Rep10_M_destroyERKSaIcE(%"struct.std::basic_string<char, std::char_traits<char>, std::allocator<char> >::_Rep"* %491, %"class.std::allocator"* %80) #2, !llfi_index !689
  br label %505, !llfi_index !690

; <label>:505                                     ; preds = %504, %_ZN9__gnu_cxxL27__exchange_and_add_dispatchEPii.exit.i.i.i62, %486
  call void @llvm.lifetime.end(i64 1, i8* %487), !llfi_index !691
  %506 = getelementptr inbounds %"class.std::allocator"* %78, i64 0, i32 0, !llfi_index !692
  call void @llvm.lifetime.start(i64 1, i8* %506), !llfi_index !693
  %507 = getelementptr inbounds %"class.std::basic_string"* %107, i64 0, i32 0, i32 0, !llfi_index !694
  %508 = load i8** %507, align 8, !tbaa !486, !llfi_index !695
  %509 = getelementptr inbounds i8* %508, i64 -24, !llfi_index !696
  %510 = bitcast i8* %509 to %"struct.std::basic_string<char, std::char_traits<char>, std::allocator<char> >::_Rep"*, !llfi_index !697
  %511 = icmp eq i8* %509, bitcast ([0 x i64]* @_ZNSs4_Rep20_S_empty_rep_storageE to i8*), !llfi_index !698
  br i1 %511, label %524, label %512, !prof !493, !llfi_index !699

; <label>:512                                     ; preds = %505
  %513 = getelementptr inbounds i8* %508, i64 -8, !llfi_index !700
  %514 = bitcast i8* %513 to i32*, !llfi_index !701
  br i1 icmp ne (i8* bitcast (i32 (i32*, void (i8*)*)* @__pthread_key_create to i8*), i8* null), label %515, label %519, !llfi_index !702

; <label>:515                                     ; preds = %512
  %516 = bitcast i32* %77 to i8*, !llfi_index !703
  call void @llvm.lifetime.start(i64 4, i8* %516), !llfi_index !704
  %517 = atomicrmw volatile add i32* %514, i32 -1 acq_rel, !llfi_index !705
  store i32 %517, i32* %77, align 4, !llfi_index !706
  %518 = load volatile i32* %77, align 4, !llfi_index !707
  call void @llvm.lifetime.end(i64 4, i8* %516), !llfi_index !708
  br label %_ZN9__gnu_cxxL27__exchange_and_add_dispatchEPii.exit.i.i.i65, !llfi_index !709

; <label>:519                                     ; preds = %512
  %520 = load i32* %514, align 4, !tbaa !431, !llfi_index !710
  %521 = add nsw i32 %520, -1, !llfi_index !711
  store i32 %521, i32* %514, align 4, !tbaa !431, !llfi_index !712
  br label %_ZN9__gnu_cxxL27__exchange_and_add_dispatchEPii.exit.i.i.i65, !llfi_index !713

_ZN9__gnu_cxxL27__exchange_and_add_dispatchEPii.exit.i.i.i65: ; preds = %519, %515
  %.0.i.i.i.i64 = phi i32 [ %518, %515 ], [ %520, %519 ], !llfi_index !714
  %522 = icmp slt i32 %.0.i.i.i.i64, 1, !llfi_index !715
  br i1 %522, label %523, label %524, !llfi_index !716

; <label>:523                                     ; preds = %_ZN9__gnu_cxxL27__exchange_and_add_dispatchEPii.exit.i.i.i65
  call void @_ZNSs4_Rep10_M_destroyERKSaIcE(%"struct.std::basic_string<char, std::char_traits<char>, std::allocator<char> >::_Rep"* %510, %"class.std::allocator"* %78) #2, !llfi_index !717
  br label %524, !llfi_index !718

; <label>:524                                     ; preds = %523, %_ZN9__gnu_cxxL27__exchange_and_add_dispatchEPii.exit.i.i.i65, %505
  call void @llvm.lifetime.end(i64 1, i8* %506), !llfi_index !719
  %525 = getelementptr inbounds %"class.std::allocator"* %76, i64 0, i32 0, !llfi_index !720
  call void @llvm.lifetime.start(i64 1, i8* %525), !llfi_index !721
  %526 = getelementptr inbounds %"class.std::basic_string"* %105, i64 0, i32 0, i32 0, !llfi_index !722
  %527 = load i8** %526, align 8, !tbaa !486, !llfi_index !723
  %528 = getelementptr inbounds i8* %527, i64 -24, !llfi_index !724
  %529 = bitcast i8* %528 to %"struct.std::basic_string<char, std::char_traits<char>, std::allocator<char> >::_Rep"*, !llfi_index !725
  %530 = icmp eq i8* %528, bitcast ([0 x i64]* @_ZNSs4_Rep20_S_empty_rep_storageE to i8*), !llfi_index !726
  br i1 %530, label %543, label %531, !prof !493, !llfi_index !727

; <label>:531                                     ; preds = %524
  %532 = getelementptr inbounds i8* %527, i64 -8, !llfi_index !728
  %533 = bitcast i8* %532 to i32*, !llfi_index !729
  br i1 icmp ne (i8* bitcast (i32 (i32*, void (i8*)*)* @__pthread_key_create to i8*), i8* null), label %534, label %538, !llfi_index !730

; <label>:534                                     ; preds = %531
  %535 = bitcast i32* %75 to i8*, !llfi_index !731
  call void @llvm.lifetime.start(i64 4, i8* %535), !llfi_index !732
  %536 = atomicrmw volatile add i32* %533, i32 -1 acq_rel, !llfi_index !733
  store i32 %536, i32* %75, align 4, !llfi_index !734
  %537 = load volatile i32* %75, align 4, !llfi_index !735
  call void @llvm.lifetime.end(i64 4, i8* %535), !llfi_index !736
  br label %_ZN9__gnu_cxxL27__exchange_and_add_dispatchEPii.exit.i.i.i68, !llfi_index !737

; <label>:538                                     ; preds = %531
  %539 = load i32* %533, align 4, !tbaa !431, !llfi_index !738
  %540 = add nsw i32 %539, -1, !llfi_index !739
  store i32 %540, i32* %533, align 4, !tbaa !431, !llfi_index !740
  br label %_ZN9__gnu_cxxL27__exchange_and_add_dispatchEPii.exit.i.i.i68, !llfi_index !741

_ZN9__gnu_cxxL27__exchange_and_add_dispatchEPii.exit.i.i.i68: ; preds = %538, %534
  %.0.i.i.i.i67 = phi i32 [ %537, %534 ], [ %539, %538 ], !llfi_index !742
  %541 = icmp slt i32 %.0.i.i.i.i67, 1, !llfi_index !743
  br i1 %541, label %542, label %543, !llfi_index !744

; <label>:542                                     ; preds = %_ZN9__gnu_cxxL27__exchange_and_add_dispatchEPii.exit.i.i.i68
  call void @_ZNSs4_Rep10_M_destroyERKSaIcE(%"struct.std::basic_string<char, std::char_traits<char>, std::allocator<char> >::_Rep"* %529, %"class.std::allocator"* %76) #2, !llfi_index !745
  br label %543, !llfi_index !746

; <label>:543                                     ; preds = %542, %_ZN9__gnu_cxxL27__exchange_and_add_dispatchEPii.exit.i.i.i68, %524
  call void @llvm.lifetime.end(i64 1, i8* %525), !llfi_index !747
  invoke void @_ZNSsC1EPKcRKSaIcE(%"class.std::basic_string"* %111, i8* getelementptr inbounds ([12 x i8]* @.str12, i64 0, i64 0), %"class.std::allocator"* %112)
          to label %544 unwind label %1066, !llfi_index !748

; <label>:544                                     ; preds = %543
  %545 = invoke %class.YAML_Element* @_ZN12YAML_Element3getERKSs(%class.YAML_Element* %437, %"class.std::basic_string"* %111)
          to label %546 unwind label %1070, !llfi_index !749

; <label>:546                                     ; preds = %544
  invoke void @_ZNSsC1EPKcRKSaIcE(%"class.std::basic_string"* %113, i8* getelementptr inbounds ([19 x i8]* @.str14, i64 0, i64 0), %"class.std::allocator"* %114)
          to label %547 unwind label %1074, !llfi_index !750

; <label>:547                                     ; preds = %546
  invoke void @_ZNSsC1EPKcRKSaIcE(%"class.std::basic_string"* %115, i8* getelementptr inbounds ([1 x i8]* @.str11, i64 0, i64 0), %"class.std::allocator"* %116)
          to label %548 unwind label %1078, !llfi_index !751

; <label>:548                                     ; preds = %547
  %549 = invoke %class.YAML_Element* @_ZN12YAML_Element3addERKSsS1_(%class.YAML_Element* %545, %"class.std::basic_string"* %113, %"class.std::basic_string"* %115)
          to label %550 unwind label %1082, !llfi_index !752

; <label>:550                                     ; preds = %548
  %551 = getelementptr inbounds %"class.std::allocator"* %74, i64 0, i32 0, !llfi_index !753
  call void @llvm.lifetime.start(i64 1, i8* %551), !llfi_index !754
  %552 = getelementptr inbounds %"class.std::basic_string"* %115, i64 0, i32 0, i32 0, !llfi_index !755
  %553 = load i8** %552, align 8, !tbaa !486, !llfi_index !756
  %554 = getelementptr inbounds i8* %553, i64 -24, !llfi_index !757
  %555 = bitcast i8* %554 to %"struct.std::basic_string<char, std::char_traits<char>, std::allocator<char> >::_Rep"*, !llfi_index !758
  %556 = icmp eq i8* %554, bitcast ([0 x i64]* @_ZNSs4_Rep20_S_empty_rep_storageE to i8*), !llfi_index !759
  br i1 %556, label %569, label %557, !prof !493, !llfi_index !760

; <label>:557                                     ; preds = %550
  %558 = getelementptr inbounds i8* %553, i64 -8, !llfi_index !761
  %559 = bitcast i8* %558 to i32*, !llfi_index !762
  br i1 icmp ne (i8* bitcast (i32 (i32*, void (i8*)*)* @__pthread_key_create to i8*), i8* null), label %560, label %564, !llfi_index !763

; <label>:560                                     ; preds = %557
  %561 = bitcast i32* %73 to i8*, !llfi_index !764
  call void @llvm.lifetime.start(i64 4, i8* %561), !llfi_index !765
  %562 = atomicrmw volatile add i32* %559, i32 -1 acq_rel, !llfi_index !766
  store i32 %562, i32* %73, align 4, !llfi_index !767
  %563 = load volatile i32* %73, align 4, !llfi_index !768
  call void @llvm.lifetime.end(i64 4, i8* %561), !llfi_index !769
  br label %_ZN9__gnu_cxxL27__exchange_and_add_dispatchEPii.exit.i.i.i73, !llfi_index !770

; <label>:564                                     ; preds = %557
  %565 = load i32* %559, align 4, !tbaa !431, !llfi_index !771
  %566 = add nsw i32 %565, -1, !llfi_index !772
  store i32 %566, i32* %559, align 4, !tbaa !431, !llfi_index !773
  br label %_ZN9__gnu_cxxL27__exchange_and_add_dispatchEPii.exit.i.i.i73, !llfi_index !774

_ZN9__gnu_cxxL27__exchange_and_add_dispatchEPii.exit.i.i.i73: ; preds = %564, %560
  %.0.i.i.i.i72 = phi i32 [ %563, %560 ], [ %565, %564 ], !llfi_index !775
  %567 = icmp slt i32 %.0.i.i.i.i72, 1, !llfi_index !776
  br i1 %567, label %568, label %569, !llfi_index !777

; <label>:568                                     ; preds = %_ZN9__gnu_cxxL27__exchange_and_add_dispatchEPii.exit.i.i.i73
  call void @_ZNSs4_Rep10_M_destroyERKSaIcE(%"struct.std::basic_string<char, std::char_traits<char>, std::allocator<char> >::_Rep"* %555, %"class.std::allocator"* %74) #2, !llfi_index !778
  br label %569, !llfi_index !779

; <label>:569                                     ; preds = %568, %_ZN9__gnu_cxxL27__exchange_and_add_dispatchEPii.exit.i.i.i73, %550
  call void @llvm.lifetime.end(i64 1, i8* %551), !llfi_index !780
  %570 = getelementptr inbounds %"class.std::allocator"* %72, i64 0, i32 0, !llfi_index !781
  call void @llvm.lifetime.start(i64 1, i8* %570), !llfi_index !782
  %571 = getelementptr inbounds %"class.std::basic_string"* %113, i64 0, i32 0, i32 0, !llfi_index !783
  %572 = load i8** %571, align 8, !tbaa !486, !llfi_index !784
  %573 = getelementptr inbounds i8* %572, i64 -24, !llfi_index !785
  %574 = bitcast i8* %573 to %"struct.std::basic_string<char, std::char_traits<char>, std::allocator<char> >::_Rep"*, !llfi_index !786
  %575 = icmp eq i8* %573, bitcast ([0 x i64]* @_ZNSs4_Rep20_S_empty_rep_storageE to i8*), !llfi_index !787
  br i1 %575, label %588, label %576, !prof !493, !llfi_index !788

; <label>:576                                     ; preds = %569
  %577 = getelementptr inbounds i8* %572, i64 -8, !llfi_index !789
  %578 = bitcast i8* %577 to i32*, !llfi_index !790
  br i1 icmp ne (i8* bitcast (i32 (i32*, void (i8*)*)* @__pthread_key_create to i8*), i8* null), label %579, label %583, !llfi_index !791

; <label>:579                                     ; preds = %576
  %580 = bitcast i32* %71 to i8*, !llfi_index !792
  call void @llvm.lifetime.start(i64 4, i8* %580), !llfi_index !793
  %581 = atomicrmw volatile add i32* %578, i32 -1 acq_rel, !llfi_index !794
  store i32 %581, i32* %71, align 4, !llfi_index !795
  %582 = load volatile i32* %71, align 4, !llfi_index !796
  call void @llvm.lifetime.end(i64 4, i8* %580), !llfi_index !797
  br label %_ZN9__gnu_cxxL27__exchange_and_add_dispatchEPii.exit.i.i.i76, !llfi_index !798

; <label>:583                                     ; preds = %576
  %584 = load i32* %578, align 4, !tbaa !431, !llfi_index !799
  %585 = add nsw i32 %584, -1, !llfi_index !800
  store i32 %585, i32* %578, align 4, !tbaa !431, !llfi_index !801
  br label %_ZN9__gnu_cxxL27__exchange_and_add_dispatchEPii.exit.i.i.i76, !llfi_index !802

_ZN9__gnu_cxxL27__exchange_and_add_dispatchEPii.exit.i.i.i76: ; preds = %583, %579
  %.0.i.i.i.i75 = phi i32 [ %582, %579 ], [ %584, %583 ], !llfi_index !803
  %586 = icmp slt i32 %.0.i.i.i.i75, 1, !llfi_index !804
  br i1 %586, label %587, label %588, !llfi_index !805

; <label>:587                                     ; preds = %_ZN9__gnu_cxxL27__exchange_and_add_dispatchEPii.exit.i.i.i76
  call void @_ZNSs4_Rep10_M_destroyERKSaIcE(%"struct.std::basic_string<char, std::char_traits<char>, std::allocator<char> >::_Rep"* %574, %"class.std::allocator"* %72) #2, !llfi_index !806
  br label %588, !llfi_index !807

; <label>:588                                     ; preds = %587, %_ZN9__gnu_cxxL27__exchange_and_add_dispatchEPii.exit.i.i.i76, %569
  call void @llvm.lifetime.end(i64 1, i8* %570), !llfi_index !808
  %589 = getelementptr inbounds %"class.std::allocator"* %70, i64 0, i32 0, !llfi_index !809
  call void @llvm.lifetime.start(i64 1, i8* %589), !llfi_index !810
  %590 = getelementptr inbounds %"class.std::basic_string"* %111, i64 0, i32 0, i32 0, !llfi_index !811
  %591 = load i8** %590, align 8, !tbaa !486, !llfi_index !812
  %592 = getelementptr inbounds i8* %591, i64 -24, !llfi_index !813
  %593 = bitcast i8* %592 to %"struct.std::basic_string<char, std::char_traits<char>, std::allocator<char> >::_Rep"*, !llfi_index !814
  %594 = icmp eq i8* %592, bitcast ([0 x i64]* @_ZNSs4_Rep20_S_empty_rep_storageE to i8*), !llfi_index !815
  br i1 %594, label %607, label %595, !prof !493, !llfi_index !816

; <label>:595                                     ; preds = %588
  %596 = getelementptr inbounds i8* %591, i64 -8, !llfi_index !817
  %597 = bitcast i8* %596 to i32*, !llfi_index !818
  br i1 icmp ne (i8* bitcast (i32 (i32*, void (i8*)*)* @__pthread_key_create to i8*), i8* null), label %598, label %602, !llfi_index !819

; <label>:598                                     ; preds = %595
  %599 = bitcast i32* %69 to i8*, !llfi_index !820
  call void @llvm.lifetime.start(i64 4, i8* %599), !llfi_index !821
  %600 = atomicrmw volatile add i32* %597, i32 -1 acq_rel, !llfi_index !822
  store i32 %600, i32* %69, align 4, !llfi_index !823
  %601 = load volatile i32* %69, align 4, !llfi_index !824
  call void @llvm.lifetime.end(i64 4, i8* %599), !llfi_index !825
  br label %_ZN9__gnu_cxxL27__exchange_and_add_dispatchEPii.exit.i.i.i80, !llfi_index !826

; <label>:602                                     ; preds = %595
  %603 = load i32* %597, align 4, !tbaa !431, !llfi_index !827
  %604 = add nsw i32 %603, -1, !llfi_index !828
  store i32 %604, i32* %597, align 4, !tbaa !431, !llfi_index !829
  br label %_ZN9__gnu_cxxL27__exchange_and_add_dispatchEPii.exit.i.i.i80, !llfi_index !830

_ZN9__gnu_cxxL27__exchange_and_add_dispatchEPii.exit.i.i.i80: ; preds = %602, %598
  %.0.i.i.i.i79 = phi i32 [ %601, %598 ], [ %603, %602 ], !llfi_index !831
  %605 = icmp slt i32 %.0.i.i.i.i79, 1, !llfi_index !832
  br i1 %605, label %606, label %607, !llfi_index !833

; <label>:606                                     ; preds = %_ZN9__gnu_cxxL27__exchange_and_add_dispatchEPii.exit.i.i.i80
  call void @_ZNSs4_Rep10_M_destroyERKSaIcE(%"struct.std::basic_string<char, std::char_traits<char>, std::allocator<char> >::_Rep"* %593, %"class.std::allocator"* %70) #2, !llfi_index !834
  br label %607, !llfi_index !835

; <label>:607                                     ; preds = %606, %_ZN9__gnu_cxxL27__exchange_and_add_dispatchEPii.exit.i.i.i80, %588
  call void @llvm.lifetime.end(i64 1, i8* %589), !llfi_index !836
  invoke void @_ZNSsC1EPKcRKSaIcE(%"class.std::basic_string"* %117, i8* getelementptr inbounds ([11 x i8]* @.str15, i64 0, i64 0), %"class.std::allocator"* %118)
          to label %608 unwind label %1140, !llfi_index !837

; <label>:608                                     ; preds = %607
  invoke void @_ZNSsC1EPKcRKSaIcE(%"class.std::basic_string"* %119, i8* getelementptr inbounds ([1 x i8]* @.str11, i64 0, i64 0), %"class.std::allocator"* %120)
          to label %609 unwind label %1144, !llfi_index !838

; <label>:609                                     ; preds = %608
  %610 = invoke %class.YAML_Element* @_ZN12YAML_Element3addERKSsS1_(%class.YAML_Element* %437, %"class.std::basic_string"* %117, %"class.std::basic_string"* %119)
          to label %611 unwind label %1148, !llfi_index !839

; <label>:611                                     ; preds = %609
  %612 = getelementptr inbounds %"class.std::allocator"* %68, i64 0, i32 0, !llfi_index !840
  call void @llvm.lifetime.start(i64 1, i8* %612), !llfi_index !841
  %613 = getelementptr inbounds %"class.std::basic_string"* %119, i64 0, i32 0, i32 0, !llfi_index !842
  %614 = load i8** %613, align 8, !tbaa !486, !llfi_index !843
  %615 = getelementptr inbounds i8* %614, i64 -24, !llfi_index !844
  %616 = bitcast i8* %615 to %"struct.std::basic_string<char, std::char_traits<char>, std::allocator<char> >::_Rep"*, !llfi_index !845
  %617 = icmp eq i8* %615, bitcast ([0 x i64]* @_ZNSs4_Rep20_S_empty_rep_storageE to i8*), !llfi_index !846
  br i1 %617, label %630, label %618, !prof !493, !llfi_index !847

; <label>:618                                     ; preds = %611
  %619 = getelementptr inbounds i8* %614, i64 -8, !llfi_index !848
  %620 = bitcast i8* %619 to i32*, !llfi_index !849
  br i1 icmp ne (i8* bitcast (i32 (i32*, void (i8*)*)* @__pthread_key_create to i8*), i8* null), label %621, label %625, !llfi_index !850

; <label>:621                                     ; preds = %618
  %622 = bitcast i32* %67 to i8*, !llfi_index !851
  call void @llvm.lifetime.start(i64 4, i8* %622), !llfi_index !852
  %623 = atomicrmw volatile add i32* %620, i32 -1 acq_rel, !llfi_index !853
  store i32 %623, i32* %67, align 4, !llfi_index !854
  %624 = load volatile i32* %67, align 4, !llfi_index !855
  call void @llvm.lifetime.end(i64 4, i8* %622), !llfi_index !856
  br label %_ZN9__gnu_cxxL27__exchange_and_add_dispatchEPii.exit.i.i.i85, !llfi_index !857

; <label>:625                                     ; preds = %618
  %626 = load i32* %620, align 4, !tbaa !431, !llfi_index !858
  %627 = add nsw i32 %626, -1, !llfi_index !859
  store i32 %627, i32* %620, align 4, !tbaa !431, !llfi_index !860
  br label %_ZN9__gnu_cxxL27__exchange_and_add_dispatchEPii.exit.i.i.i85, !llfi_index !861

_ZN9__gnu_cxxL27__exchange_and_add_dispatchEPii.exit.i.i.i85: ; preds = %625, %621
  %.0.i.i.i.i84 = phi i32 [ %624, %621 ], [ %626, %625 ], !llfi_index !862
  %628 = icmp slt i32 %.0.i.i.i.i84, 1, !llfi_index !863
  br i1 %628, label %629, label %630, !llfi_index !864

; <label>:629                                     ; preds = %_ZN9__gnu_cxxL27__exchange_and_add_dispatchEPii.exit.i.i.i85
  call void @_ZNSs4_Rep10_M_destroyERKSaIcE(%"struct.std::basic_string<char, std::char_traits<char>, std::allocator<char> >::_Rep"* %616, %"class.std::allocator"* %68) #2, !llfi_index !865
  br label %630, !llfi_index !866

; <label>:630                                     ; preds = %629, %_ZN9__gnu_cxxL27__exchange_and_add_dispatchEPii.exit.i.i.i85, %611
  call void @llvm.lifetime.end(i64 1, i8* %612), !llfi_index !867
  %631 = getelementptr inbounds %"class.std::allocator"* %66, i64 0, i32 0, !llfi_index !868
  call void @llvm.lifetime.start(i64 1, i8* %631), !llfi_index !869
  %632 = getelementptr inbounds %"class.std::basic_string"* %117, i64 0, i32 0, i32 0, !llfi_index !870
  %633 = load i8** %632, align 8, !tbaa !486, !llfi_index !871
  %634 = getelementptr inbounds i8* %633, i64 -24, !llfi_index !872
  %635 = bitcast i8* %634 to %"struct.std::basic_string<char, std::char_traits<char>, std::allocator<char> >::_Rep"*, !llfi_index !873
  %636 = icmp eq i8* %634, bitcast ([0 x i64]* @_ZNSs4_Rep20_S_empty_rep_storageE to i8*), !llfi_index !874
  br i1 %636, label %649, label %637, !prof !493, !llfi_index !875

; <label>:637                                     ; preds = %630
  %638 = getelementptr inbounds i8* %633, i64 -8, !llfi_index !876
  %639 = bitcast i8* %638 to i32*, !llfi_index !877
  br i1 icmp ne (i8* bitcast (i32 (i32*, void (i8*)*)* @__pthread_key_create to i8*), i8* null), label %640, label %644, !llfi_index !878

; <label>:640                                     ; preds = %637
  %641 = bitcast i32* %65 to i8*, !llfi_index !879
  call void @llvm.lifetime.start(i64 4, i8* %641), !llfi_index !880
  %642 = atomicrmw volatile add i32* %639, i32 -1 acq_rel, !llfi_index !881
  store i32 %642, i32* %65, align 4, !llfi_index !882
  %643 = load volatile i32* %65, align 4, !llfi_index !883
  call void @llvm.lifetime.end(i64 4, i8* %641), !llfi_index !884
  br label %_ZN9__gnu_cxxL27__exchange_and_add_dispatchEPii.exit.i.i.i88, !llfi_index !885

; <label>:644                                     ; preds = %637
  %645 = load i32* %639, align 4, !tbaa !431, !llfi_index !886
  %646 = add nsw i32 %645, -1, !llfi_index !887
  store i32 %646, i32* %639, align 4, !tbaa !431, !llfi_index !888
  br label %_ZN9__gnu_cxxL27__exchange_and_add_dispatchEPii.exit.i.i.i88, !llfi_index !889

_ZN9__gnu_cxxL27__exchange_and_add_dispatchEPii.exit.i.i.i88: ; preds = %644, %640
  %.0.i.i.i.i87 = phi i32 [ %643, %640 ], [ %645, %644 ], !llfi_index !890
  %647 = icmp slt i32 %.0.i.i.i.i87, 1, !llfi_index !891
  br i1 %647, label %648, label %649, !llfi_index !892

; <label>:648                                     ; preds = %_ZN9__gnu_cxxL27__exchange_and_add_dispatchEPii.exit.i.i.i88
  call void @_ZNSs4_Rep10_M_destroyERKSaIcE(%"struct.std::basic_string<char, std::char_traits<char>, std::allocator<char> >::_Rep"* %635, %"class.std::allocator"* %66) #2, !llfi_index !893
  br label %649, !llfi_index !894

; <label>:649                                     ; preds = %648, %_ZN9__gnu_cxxL27__exchange_and_add_dispatchEPii.exit.i.i.i88, %630
  call void @llvm.lifetime.end(i64 1, i8* %631), !llfi_index !895
  invoke void @_ZNSsC1EPKcRKSaIcE(%"class.std::basic_string"* %121, i8* getelementptr inbounds ([11 x i8]* @.str15, i64 0, i64 0), %"class.std::allocator"* %122)
          to label %650 unwind label %1188, !llfi_index !896

; <label>:650                                     ; preds = %649
  %651 = invoke %class.YAML_Element* @_ZN12YAML_Element3getERKSs(%class.YAML_Element* %437, %"class.std::basic_string"* %121)
          to label %652 unwind label %1192, !llfi_index !897

; <label>:652                                     ; preds = %650
  invoke void @_ZNSsC1EPKcRKSaIcE(%"class.std::basic_string"* %123, i8* getelementptr inbounds ([3 x i8]* @.str16, i64 0, i64 0), %"class.std::allocator"* %124)
          to label %653 unwind label %1196, !llfi_index !898

; <label>:653                                     ; preds = %652
  %654 = invoke %class.YAML_Element* @_ZN12YAML_Element3addERKSsi(%class.YAML_Element* %651, %"class.std::basic_string"* %123, i32 %nx.0)
          to label %655 unwind label %1200, !llfi_index !899

; <label>:655                                     ; preds = %653
  %656 = getelementptr inbounds %"class.std::allocator"* %64, i64 0, i32 0, !llfi_index !900
  call void @llvm.lifetime.start(i64 1, i8* %656), !llfi_index !901
  %657 = getelementptr inbounds %"class.std::basic_string"* %123, i64 0, i32 0, i32 0, !llfi_index !902
  %658 = load i8** %657, align 8, !tbaa !486, !llfi_index !903
  %659 = getelementptr inbounds i8* %658, i64 -24, !llfi_index !904
  %660 = bitcast i8* %659 to %"struct.std::basic_string<char, std::char_traits<char>, std::allocator<char> >::_Rep"*, !llfi_index !905
  %661 = icmp eq i8* %659, bitcast ([0 x i64]* @_ZNSs4_Rep20_S_empty_rep_storageE to i8*), !llfi_index !906
  br i1 %661, label %674, label %662, !prof !493, !llfi_index !907

; <label>:662                                     ; preds = %655
  %663 = getelementptr inbounds i8* %658, i64 -8, !llfi_index !908
  %664 = bitcast i8* %663 to i32*, !llfi_index !909
  br i1 icmp ne (i8* bitcast (i32 (i32*, void (i8*)*)* @__pthread_key_create to i8*), i8* null), label %665, label %669, !llfi_index !910

; <label>:665                                     ; preds = %662
  %666 = bitcast i32* %63 to i8*, !llfi_index !911
  call void @llvm.lifetime.start(i64 4, i8* %666), !llfi_index !912
  %667 = atomicrmw volatile add i32* %664, i32 -1 acq_rel, !llfi_index !913
  store i32 %667, i32* %63, align 4, !llfi_index !914
  %668 = load volatile i32* %63, align 4, !llfi_index !915
  call void @llvm.lifetime.end(i64 4, i8* %666), !llfi_index !916
  br label %_ZN9__gnu_cxxL27__exchange_and_add_dispatchEPii.exit.i.i.i92, !llfi_index !917

; <label>:669                                     ; preds = %662
  %670 = load i32* %664, align 4, !tbaa !431, !llfi_index !918
  %671 = add nsw i32 %670, -1, !llfi_index !919
  store i32 %671, i32* %664, align 4, !tbaa !431, !llfi_index !920
  br label %_ZN9__gnu_cxxL27__exchange_and_add_dispatchEPii.exit.i.i.i92, !llfi_index !921

_ZN9__gnu_cxxL27__exchange_and_add_dispatchEPii.exit.i.i.i92: ; preds = %669, %665
  %.0.i.i.i.i91 = phi i32 [ %668, %665 ], [ %670, %669 ], !llfi_index !922
  %672 = icmp slt i32 %.0.i.i.i.i91, 1, !llfi_index !923
  br i1 %672, label %673, label %674, !llfi_index !924

; <label>:673                                     ; preds = %_ZN9__gnu_cxxL27__exchange_and_add_dispatchEPii.exit.i.i.i92
  call void @_ZNSs4_Rep10_M_destroyERKSaIcE(%"struct.std::basic_string<char, std::char_traits<char>, std::allocator<char> >::_Rep"* %660, %"class.std::allocator"* %64) #2, !llfi_index !925
  br label %674, !llfi_index !926

; <label>:674                                     ; preds = %673, %_ZN9__gnu_cxxL27__exchange_and_add_dispatchEPii.exit.i.i.i92, %655
  call void @llvm.lifetime.end(i64 1, i8* %656), !llfi_index !927
  %675 = getelementptr inbounds %"class.std::allocator"* %62, i64 0, i32 0, !llfi_index !928
  call void @llvm.lifetime.start(i64 1, i8* %675), !llfi_index !929
  %676 = getelementptr inbounds %"class.std::basic_string"* %121, i64 0, i32 0, i32 0, !llfi_index !930
  %677 = load i8** %676, align 8, !tbaa !486, !llfi_index !931
  %678 = getelementptr inbounds i8* %677, i64 -24, !llfi_index !932
  %679 = bitcast i8* %678 to %"struct.std::basic_string<char, std::char_traits<char>, std::allocator<char> >::_Rep"*, !llfi_index !933
  %680 = icmp eq i8* %678, bitcast ([0 x i64]* @_ZNSs4_Rep20_S_empty_rep_storageE to i8*), !llfi_index !934
  br i1 %680, label %693, label %681, !prof !493, !llfi_index !935

; <label>:681                                     ; preds = %674
  %682 = getelementptr inbounds i8* %677, i64 -8, !llfi_index !936
  %683 = bitcast i8* %682 to i32*, !llfi_index !937
  br i1 icmp ne (i8* bitcast (i32 (i32*, void (i8*)*)* @__pthread_key_create to i8*), i8* null), label %684, label %688, !llfi_index !938

; <label>:684                                     ; preds = %681
  %685 = bitcast i32* %61 to i8*, !llfi_index !939
  call void @llvm.lifetime.start(i64 4, i8* %685), !llfi_index !940
  %686 = atomicrmw volatile add i32* %683, i32 -1 acq_rel, !llfi_index !941
  store i32 %686, i32* %61, align 4, !llfi_index !942
  %687 = load volatile i32* %61, align 4, !llfi_index !943
  call void @llvm.lifetime.end(i64 4, i8* %685), !llfi_index !944
  br label %_ZN9__gnu_cxxL27__exchange_and_add_dispatchEPii.exit.i.i.i95, !llfi_index !945

; <label>:688                                     ; preds = %681
  %689 = load i32* %683, align 4, !tbaa !431, !llfi_index !946
  %690 = add nsw i32 %689, -1, !llfi_index !947
  store i32 %690, i32* %683, align 4, !tbaa !431, !llfi_index !948
  br label %_ZN9__gnu_cxxL27__exchange_and_add_dispatchEPii.exit.i.i.i95, !llfi_index !949

_ZN9__gnu_cxxL27__exchange_and_add_dispatchEPii.exit.i.i.i95: ; preds = %688, %684
  %.0.i.i.i.i94 = phi i32 [ %687, %684 ], [ %689, %688 ], !llfi_index !950
  %691 = icmp slt i32 %.0.i.i.i.i94, 1, !llfi_index !951
  br i1 %691, label %692, label %693, !llfi_index !952

; <label>:692                                     ; preds = %_ZN9__gnu_cxxL27__exchange_and_add_dispatchEPii.exit.i.i.i95
  call void @_ZNSs4_Rep10_M_destroyERKSaIcE(%"struct.std::basic_string<char, std::char_traits<char>, std::allocator<char> >::_Rep"* %679, %"class.std::allocator"* %62) #2, !llfi_index !953
  br label %693, !llfi_index !954

; <label>:693                                     ; preds = %692, %_ZN9__gnu_cxxL27__exchange_and_add_dispatchEPii.exit.i.i.i95, %674
  call void @llvm.lifetime.end(i64 1, i8* %675), !llfi_index !955
  invoke void @_ZNSsC1EPKcRKSaIcE(%"class.std::basic_string"* %125, i8* getelementptr inbounds ([11 x i8]* @.str15, i64 0, i64 0), %"class.std::allocator"* %126)
          to label %694 unwind label %1240, !llfi_index !956

; <label>:694                                     ; preds = %693
  %695 = invoke %class.YAML_Element* @_ZN12YAML_Element3getERKSs(%class.YAML_Element* %437, %"class.std::basic_string"* %125)
          to label %696 unwind label %1244, !llfi_index !957

; <label>:696                                     ; preds = %694
  invoke void @_ZNSsC1EPKcRKSaIcE(%"class.std::basic_string"* %127, i8* getelementptr inbounds ([3 x i8]* @.str17, i64 0, i64 0), %"class.std::allocator"* %128)
          to label %697 unwind label %1248, !llfi_index !958

; <label>:697                                     ; preds = %696
  %698 = invoke %class.YAML_Element* @_ZN12YAML_Element3addERKSsi(%class.YAML_Element* %695, %"class.std::basic_string"* %127, i32 %ny.0)
          to label %699 unwind label %1252, !llfi_index !959

; <label>:699                                     ; preds = %697
  %700 = getelementptr inbounds %"class.std::allocator"* %60, i64 0, i32 0, !llfi_index !960
  call void @llvm.lifetime.start(i64 1, i8* %700), !llfi_index !961
  %701 = getelementptr inbounds %"class.std::basic_string"* %127, i64 0, i32 0, i32 0, !llfi_index !962
  %702 = load i8** %701, align 8, !tbaa !486, !llfi_index !963
  %703 = getelementptr inbounds i8* %702, i64 -24, !llfi_index !964
  %704 = bitcast i8* %703 to %"struct.std::basic_string<char, std::char_traits<char>, std::allocator<char> >::_Rep"*, !llfi_index !965
  %705 = icmp eq i8* %703, bitcast ([0 x i64]* @_ZNSs4_Rep20_S_empty_rep_storageE to i8*), !llfi_index !966
  br i1 %705, label %718, label %706, !prof !493, !llfi_index !967

; <label>:706                                     ; preds = %699
  %707 = getelementptr inbounds i8* %702, i64 -8, !llfi_index !968
  %708 = bitcast i8* %707 to i32*, !llfi_index !969
  br i1 icmp ne (i8* bitcast (i32 (i32*, void (i8*)*)* @__pthread_key_create to i8*), i8* null), label %709, label %713, !llfi_index !970

; <label>:709                                     ; preds = %706
  %710 = bitcast i32* %59 to i8*, !llfi_index !971
  call void @llvm.lifetime.start(i64 4, i8* %710), !llfi_index !972
  %711 = atomicrmw volatile add i32* %708, i32 -1 acq_rel, !llfi_index !973
  store i32 %711, i32* %59, align 4, !llfi_index !974
  %712 = load volatile i32* %59, align 4, !llfi_index !975
  call void @llvm.lifetime.end(i64 4, i8* %710), !llfi_index !976
  br label %_ZN9__gnu_cxxL27__exchange_and_add_dispatchEPii.exit.i.i.i100, !llfi_index !977

; <label>:713                                     ; preds = %706
  %714 = load i32* %708, align 4, !tbaa !431, !llfi_index !978
  %715 = add nsw i32 %714, -1, !llfi_index !979
  store i32 %715, i32* %708, align 4, !tbaa !431, !llfi_index !980
  br label %_ZN9__gnu_cxxL27__exchange_and_add_dispatchEPii.exit.i.i.i100, !llfi_index !981

_ZN9__gnu_cxxL27__exchange_and_add_dispatchEPii.exit.i.i.i100: ; preds = %713, %709
  %.0.i.i.i.i99 = phi i32 [ %712, %709 ], [ %714, %713 ], !llfi_index !982
  %716 = icmp slt i32 %.0.i.i.i.i99, 1, !llfi_index !983
  br i1 %716, label %717, label %718, !llfi_index !984

; <label>:717                                     ; preds = %_ZN9__gnu_cxxL27__exchange_and_add_dispatchEPii.exit.i.i.i100
  call void @_ZNSs4_Rep10_M_destroyERKSaIcE(%"struct.std::basic_string<char, std::char_traits<char>, std::allocator<char> >::_Rep"* %704, %"class.std::allocator"* %60) #2, !llfi_index !985
  br label %718, !llfi_index !986

; <label>:718                                     ; preds = %717, %_ZN9__gnu_cxxL27__exchange_and_add_dispatchEPii.exit.i.i.i100, %699
  call void @llvm.lifetime.end(i64 1, i8* %700), !llfi_index !987
  %719 = getelementptr inbounds %"class.std::allocator"* %58, i64 0, i32 0, !llfi_index !988
  call void @llvm.lifetime.start(i64 1, i8* %719), !llfi_index !989
  %720 = getelementptr inbounds %"class.std::basic_string"* %125, i64 0, i32 0, i32 0, !llfi_index !990
  %721 = load i8** %720, align 8, !tbaa !486, !llfi_index !991
  %722 = getelementptr inbounds i8* %721, i64 -24, !llfi_index !992
  %723 = bitcast i8* %722 to %"struct.std::basic_string<char, std::char_traits<char>, std::allocator<char> >::_Rep"*, !llfi_index !993
  %724 = icmp eq i8* %722, bitcast ([0 x i64]* @_ZNSs4_Rep20_S_empty_rep_storageE to i8*), !llfi_index !994
  br i1 %724, label %737, label %725, !prof !493, !llfi_index !995

; <label>:725                                     ; preds = %718
  %726 = getelementptr inbounds i8* %721, i64 -8, !llfi_index !996
  %727 = bitcast i8* %726 to i32*, !llfi_index !997
  br i1 icmp ne (i8* bitcast (i32 (i32*, void (i8*)*)* @__pthread_key_create to i8*), i8* null), label %728, label %732, !llfi_index !998

; <label>:728                                     ; preds = %725
  %729 = bitcast i32* %57 to i8*, !llfi_index !999
  call void @llvm.lifetime.start(i64 4, i8* %729), !llfi_index !1000
  %730 = atomicrmw volatile add i32* %727, i32 -1 acq_rel, !llfi_index !1001
  store i32 %730, i32* %57, align 4, !llfi_index !1002
  %731 = load volatile i32* %57, align 4, !llfi_index !1003
  call void @llvm.lifetime.end(i64 4, i8* %729), !llfi_index !1004
  br label %_ZN9__gnu_cxxL27__exchange_and_add_dispatchEPii.exit.i.i.i103, !llfi_index !1005

; <label>:732                                     ; preds = %725
  %733 = load i32* %727, align 4, !tbaa !431, !llfi_index !1006
  %734 = add nsw i32 %733, -1, !llfi_index !1007
  store i32 %734, i32* %727, align 4, !tbaa !431, !llfi_index !1008
  br label %_ZN9__gnu_cxxL27__exchange_and_add_dispatchEPii.exit.i.i.i103, !llfi_index !1009

_ZN9__gnu_cxxL27__exchange_and_add_dispatchEPii.exit.i.i.i103: ; preds = %732, %728
  %.0.i.i.i.i102 = phi i32 [ %731, %728 ], [ %733, %732 ], !llfi_index !1010
  %735 = icmp slt i32 %.0.i.i.i.i102, 1, !llfi_index !1011
  br i1 %735, label %736, label %737, !llfi_index !1012

; <label>:736                                     ; preds = %_ZN9__gnu_cxxL27__exchange_and_add_dispatchEPii.exit.i.i.i103
  call void @_ZNSs4_Rep10_M_destroyERKSaIcE(%"struct.std::basic_string<char, std::char_traits<char>, std::allocator<char> >::_Rep"* %723, %"class.std::allocator"* %58) #2, !llfi_index !1013
  br label %737, !llfi_index !1014

; <label>:737                                     ; preds = %736, %_ZN9__gnu_cxxL27__exchange_and_add_dispatchEPii.exit.i.i.i103, %718
  call void @llvm.lifetime.end(i64 1, i8* %719), !llfi_index !1015
  invoke void @_ZNSsC1EPKcRKSaIcE(%"class.std::basic_string"* %129, i8* getelementptr inbounds ([11 x i8]* @.str15, i64 0, i64 0), %"class.std::allocator"* %130)
          to label %738 unwind label %1292, !llfi_index !1016

; <label>:738                                     ; preds = %737
  %739 = invoke %class.YAML_Element* @_ZN12YAML_Element3getERKSs(%class.YAML_Element* %437, %"class.std::basic_string"* %129)
          to label %740 unwind label %1296, !llfi_index !1017

; <label>:740                                     ; preds = %738
  invoke void @_ZNSsC1EPKcRKSaIcE(%"class.std::basic_string"* %131, i8* getelementptr inbounds ([3 x i8]* @.str18, i64 0, i64 0), %"class.std::allocator"* %132)
          to label %741 unwind label %1300, !llfi_index !1018

; <label>:741                                     ; preds = %740
  %742 = invoke %class.YAML_Element* @_ZN12YAML_Element3addERKSsi(%class.YAML_Element* %739, %"class.std::basic_string"* %131, i32 %nz.0)
          to label %743 unwind label %1304, !llfi_index !1019

; <label>:743                                     ; preds = %741
  %744 = getelementptr inbounds %"class.std::allocator"* %56, i64 0, i32 0, !llfi_index !1020
  call void @llvm.lifetime.start(i64 1, i8* %744), !llfi_index !1021
  %745 = getelementptr inbounds %"class.std::basic_string"* %131, i64 0, i32 0, i32 0, !llfi_index !1022
  %746 = load i8** %745, align 8, !tbaa !486, !llfi_index !1023
  %747 = getelementptr inbounds i8* %746, i64 -24, !llfi_index !1024
  %748 = bitcast i8* %747 to %"struct.std::basic_string<char, std::char_traits<char>, std::allocator<char> >::_Rep"*, !llfi_index !1025
  %749 = icmp eq i8* %747, bitcast ([0 x i64]* @_ZNSs4_Rep20_S_empty_rep_storageE to i8*), !llfi_index !1026
  br i1 %749, label %762, label %750, !prof !493, !llfi_index !1027

; <label>:750                                     ; preds = %743
  %751 = getelementptr inbounds i8* %746, i64 -8, !llfi_index !1028
  %752 = bitcast i8* %751 to i32*, !llfi_index !1029
  br i1 icmp ne (i8* bitcast (i32 (i32*, void (i8*)*)* @__pthread_key_create to i8*), i8* null), label %753, label %757, !llfi_index !1030

; <label>:753                                     ; preds = %750
  %754 = bitcast i32* %55 to i8*, !llfi_index !1031
  call void @llvm.lifetime.start(i64 4, i8* %754), !llfi_index !1032
  %755 = atomicrmw volatile add i32* %752, i32 -1 acq_rel, !llfi_index !1033
  store i32 %755, i32* %55, align 4, !llfi_index !1034
  %756 = load volatile i32* %55, align 4, !llfi_index !1035
  call void @llvm.lifetime.end(i64 4, i8* %754), !llfi_index !1036
  br label %_ZN9__gnu_cxxL27__exchange_and_add_dispatchEPii.exit.i.i.i107, !llfi_index !1037

; <label>:757                                     ; preds = %750
  %758 = load i32* %752, align 4, !tbaa !431, !llfi_index !1038
  %759 = add nsw i32 %758, -1, !llfi_index !1039
  store i32 %759, i32* %752, align 4, !tbaa !431, !llfi_index !1040
  br label %_ZN9__gnu_cxxL27__exchange_and_add_dispatchEPii.exit.i.i.i107, !llfi_index !1041

_ZN9__gnu_cxxL27__exchange_and_add_dispatchEPii.exit.i.i.i107: ; preds = %757, %753
  %.0.i.i.i.i106 = phi i32 [ %756, %753 ], [ %758, %757 ], !llfi_index !1042
  %760 = icmp slt i32 %.0.i.i.i.i106, 1, !llfi_index !1043
  br i1 %760, label %761, label %762, !llfi_index !1044

; <label>:761                                     ; preds = %_ZN9__gnu_cxxL27__exchange_and_add_dispatchEPii.exit.i.i.i107
  call void @_ZNSs4_Rep10_M_destroyERKSaIcE(%"struct.std::basic_string<char, std::char_traits<char>, std::allocator<char> >::_Rep"* %748, %"class.std::allocator"* %56) #2, !llfi_index !1045
  br label %762, !llfi_index !1046

; <label>:762                                     ; preds = %761, %_ZN9__gnu_cxxL27__exchange_and_add_dispatchEPii.exit.i.i.i107, %743
  call void @llvm.lifetime.end(i64 1, i8* %744), !llfi_index !1047
  %763 = getelementptr inbounds %"class.std::allocator"* %52, i64 0, i32 0, !llfi_index !1048
  call void @llvm.lifetime.start(i64 1, i8* %763), !llfi_index !1049
  %764 = getelementptr inbounds %"class.std::basic_string"* %129, i64 0, i32 0, i32 0, !llfi_index !1050
  %765 = load i8** %764, align 8, !tbaa !486, !llfi_index !1051
  %766 = getelementptr inbounds i8* %765, i64 -24, !llfi_index !1052
  %767 = bitcast i8* %766 to %"struct.std::basic_string<char, std::char_traits<char>, std::allocator<char> >::_Rep"*, !llfi_index !1053
  %768 = icmp eq i8* %766, bitcast ([0 x i64]* @_ZNSs4_Rep20_S_empty_rep_storageE to i8*), !llfi_index !1054
  br i1 %768, label %781, label %769, !prof !493, !llfi_index !1055

; <label>:769                                     ; preds = %762
  %770 = getelementptr inbounds i8* %765, i64 -8, !llfi_index !1056
  %771 = bitcast i8* %770 to i32*, !llfi_index !1057
  br i1 icmp ne (i8* bitcast (i32 (i32*, void (i8*)*)* @__pthread_key_create to i8*), i8* null), label %772, label %776, !llfi_index !1058

; <label>:772                                     ; preds = %769
  %773 = bitcast i32* %51 to i8*, !llfi_index !1059
  call void @llvm.lifetime.start(i64 4, i8* %773), !llfi_index !1060
  %774 = atomicrmw volatile add i32* %771, i32 -1 acq_rel, !llfi_index !1061
  store i32 %774, i32* %51, align 4, !llfi_index !1062
  %775 = load volatile i32* %51, align 4, !llfi_index !1063
  call void @llvm.lifetime.end(i64 4, i8* %773), !llfi_index !1064
  br label %_ZN9__gnu_cxxL27__exchange_and_add_dispatchEPii.exit.i.i.i113, !llfi_index !1065

; <label>:776                                     ; preds = %769
  %777 = load i32* %771, align 4, !tbaa !431, !llfi_index !1066
  %778 = add nsw i32 %777, -1, !llfi_index !1067
  store i32 %778, i32* %771, align 4, !tbaa !431, !llfi_index !1068
  br label %_ZN9__gnu_cxxL27__exchange_and_add_dispatchEPii.exit.i.i.i113, !llfi_index !1069

_ZN9__gnu_cxxL27__exchange_and_add_dispatchEPii.exit.i.i.i113: ; preds = %776, %772
  %.0.i.i.i.i112 = phi i32 [ %775, %772 ], [ %777, %776 ], !llfi_index !1070
  %779 = icmp slt i32 %.0.i.i.i.i112, 1, !llfi_index !1071
  br i1 %779, label %780, label %781, !llfi_index !1072

; <label>:780                                     ; preds = %_ZN9__gnu_cxxL27__exchange_and_add_dispatchEPii.exit.i.i.i113
  call void @_ZNSs4_Rep10_M_destroyERKSaIcE(%"struct.std::basic_string<char, std::char_traits<char>, std::allocator<char> >::_Rep"* %767, %"class.std::allocator"* %52) #2, !llfi_index !1073
  br label %781, !llfi_index !1074

; <label>:781                                     ; preds = %780, %_ZN9__gnu_cxxL27__exchange_and_add_dispatchEPii.exit.i.i.i113, %762
  call void @llvm.lifetime.end(i64 1, i8* %763), !llfi_index !1075
  invoke void @_ZNSsC1EPKcRKSaIcE(%"class.std::basic_string"* %133, i8* getelementptr inbounds ([23 x i8]* @.str19, i64 0, i64 0), %"class.std::allocator"* %134)
          to label %782 unwind label %1344, !llfi_index !1076

; <label>:782                                     ; preds = %781
  %783 = load i32* %niters, align 4, !tbaa !431, !llfi_index !1077
  %784 = invoke %class.YAML_Element* @_ZN12YAML_Element3addERKSsi(%class.YAML_Element* %437, %"class.std::basic_string"* %133, i32 %783)
          to label %785 unwind label %1348, !llfi_index !1078

; <label>:785                                     ; preds = %782
  %786 = getelementptr inbounds %"class.std::allocator"* %46, i64 0, i32 0, !llfi_index !1079
  call void @llvm.lifetime.start(i64 1, i8* %786), !llfi_index !1080
  %787 = getelementptr inbounds %"class.std::basic_string"* %133, i64 0, i32 0, i32 0, !llfi_index !1081
  %788 = load i8** %787, align 8, !tbaa !486, !llfi_index !1082
  %789 = getelementptr inbounds i8* %788, i64 -24, !llfi_index !1083
  %790 = bitcast i8* %789 to %"struct.std::basic_string<char, std::char_traits<char>, std::allocator<char> >::_Rep"*, !llfi_index !1084
  %791 = icmp eq i8* %789, bitcast ([0 x i64]* @_ZNSs4_Rep20_S_empty_rep_storageE to i8*), !llfi_index !1085
  br i1 %791, label %804, label %792, !prof !493, !llfi_index !1086

; <label>:792                                     ; preds = %785
  %793 = getelementptr inbounds i8* %788, i64 -8, !llfi_index !1087
  %794 = bitcast i8* %793 to i32*, !llfi_index !1088
  br i1 icmp ne (i8* bitcast (i32 (i32*, void (i8*)*)* @__pthread_key_create to i8*), i8* null), label %795, label %799, !llfi_index !1089

; <label>:795                                     ; preds = %792
  %796 = bitcast i32* %45 to i8*, !llfi_index !1090
  call void @llvm.lifetime.start(i64 4, i8* %796), !llfi_index !1091
  %797 = atomicrmw volatile add i32* %794, i32 -1 acq_rel, !llfi_index !1092
  store i32 %797, i32* %45, align 4, !llfi_index !1093
  %798 = load volatile i32* %45, align 4, !llfi_index !1094
  call void @llvm.lifetime.end(i64 4, i8* %796), !llfi_index !1095
  br label %_ZN9__gnu_cxxL27__exchange_and_add_dispatchEPii.exit.i.i.i122, !llfi_index !1096

; <label>:799                                     ; preds = %792
  %800 = load i32* %794, align 4, !tbaa !431, !llfi_index !1097
  %801 = add nsw i32 %800, -1, !llfi_index !1098
  store i32 %801, i32* %794, align 4, !tbaa !431, !llfi_index !1099
  br label %_ZN9__gnu_cxxL27__exchange_and_add_dispatchEPii.exit.i.i.i122, !llfi_index !1100

_ZN9__gnu_cxxL27__exchange_and_add_dispatchEPii.exit.i.i.i122: ; preds = %799, %795
  %.0.i.i.i.i121 = phi i32 [ %798, %795 ], [ %800, %799 ], !llfi_index !1101
  %802 = icmp slt i32 %.0.i.i.i.i121, 1, !llfi_index !1102
  br i1 %802, label %803, label %804, !llfi_index !1103

; <label>:803                                     ; preds = %_ZN9__gnu_cxxL27__exchange_and_add_dispatchEPii.exit.i.i.i122
  call void @_ZNSs4_Rep10_M_destroyERKSaIcE(%"struct.std::basic_string<char, std::char_traits<char>, std::allocator<char> >::_Rep"* %790, %"class.std::allocator"* %46) #2, !llfi_index !1104
  br label %804, !llfi_index !1105

; <label>:804                                     ; preds = %803, %_ZN9__gnu_cxxL27__exchange_and_add_dispatchEPii.exit.i.i.i122, %785
  call void @llvm.lifetime.end(i64 1, i8* %786), !llfi_index !1106
  invoke void @_ZNSsC1EPKcRKSaIcE(%"class.std::basic_string"* %135, i8* getelementptr inbounds ([17 x i8]* @.str20, i64 0, i64 0), %"class.std::allocator"* %136)
          to label %805 unwind label %1370, !llfi_index !1107

; <label>:805                                     ; preds = %804
  %806 = load double* %normr, align 8, !tbaa !9, !llfi_index !1108
  %807 = invoke %class.YAML_Element* @_ZN12YAML_Element3addERKSsd(%class.YAML_Element* %437, %"class.std::basic_string"* %135, double %806)
          to label %808 unwind label %1374, !llfi_index !1109

; <label>:808                                     ; preds = %805
  %809 = getelementptr inbounds %"class.std::allocator"* %40, i64 0, i32 0, !llfi_index !1110
  call void @llvm.lifetime.start(i64 1, i8* %809), !llfi_index !1111
  %810 = getelementptr inbounds %"class.std::basic_string"* %135, i64 0, i32 0, i32 0, !llfi_index !1112
  %811 = load i8** %810, align 8, !tbaa !486, !llfi_index !1113
  %812 = getelementptr inbounds i8* %811, i64 -24, !llfi_index !1114
  %813 = bitcast i8* %812 to %"struct.std::basic_string<char, std::char_traits<char>, std::allocator<char> >::_Rep"*, !llfi_index !1115
  %814 = icmp eq i8* %812, bitcast ([0 x i64]* @_ZNSs4_Rep20_S_empty_rep_storageE to i8*), !llfi_index !1116
  br i1 %814, label %827, label %815, !prof !493, !llfi_index !1117

; <label>:815                                     ; preds = %808
  %816 = getelementptr inbounds i8* %811, i64 -8, !llfi_index !1118
  %817 = bitcast i8* %816 to i32*, !llfi_index !1119
  br i1 icmp ne (i8* bitcast (i32 (i32*, void (i8*)*)* @__pthread_key_create to i8*), i8* null), label %818, label %822, !llfi_index !1120

; <label>:818                                     ; preds = %815
  %819 = bitcast i32* %39 to i8*, !llfi_index !1121
  call void @llvm.lifetime.start(i64 4, i8* %819), !llfi_index !1122
  %820 = atomicrmw volatile add i32* %817, i32 -1 acq_rel, !llfi_index !1123
  store i32 %820, i32* %39, align 4, !llfi_index !1124
  %821 = load volatile i32* %39, align 4, !llfi_index !1125
  call void @llvm.lifetime.end(i64 4, i8* %819), !llfi_index !1126
  br label %_ZN9__gnu_cxxL27__exchange_and_add_dispatchEPii.exit.i.i.i131, !llfi_index !1127

; <label>:822                                     ; preds = %815
  %823 = load i32* %817, align 4, !tbaa !431, !llfi_index !1128
  %824 = add nsw i32 %823, -1, !llfi_index !1129
  store i32 %824, i32* %817, align 4, !tbaa !431, !llfi_index !1130
  br label %_ZN9__gnu_cxxL27__exchange_and_add_dispatchEPii.exit.i.i.i131, !llfi_index !1131

_ZN9__gnu_cxxL27__exchange_and_add_dispatchEPii.exit.i.i.i131: ; preds = %822, %818
  %.0.i.i.i.i130 = phi i32 [ %821, %818 ], [ %823, %822 ], !llfi_index !1132
  %825 = icmp slt i32 %.0.i.i.i.i130, 1, !llfi_index !1133
  br i1 %825, label %826, label %827, !llfi_index !1134

; <label>:826                                     ; preds = %_ZN9__gnu_cxxL27__exchange_and_add_dispatchEPii.exit.i.i.i131
  call void @_ZNSs4_Rep10_M_destroyERKSaIcE(%"struct.std::basic_string<char, std::char_traits<char>, std::allocator<char> >::_Rep"* %813, %"class.std::allocator"* %40) #2, !llfi_index !1135
  br label %827, !llfi_index !1136

; <label>:827                                     ; preds = %826, %_ZN9__gnu_cxxL27__exchange_and_add_dispatchEPii.exit.i.i.i131, %808
  call void @llvm.lifetime.end(i64 1, i8* %809), !llfi_index !1137
  invoke void @_ZN8YAML_Doc12generateYAMLEv(%"class.std::basic_string"* sret %yaml, %class.YAML_Doc* %doc)
          to label %828 unwind label %1396, !llfi_index !1138

; <label>:828                                     ; preds = %827
  %829 = getelementptr inbounds %"class.std::basic_string"* %yaml, i64 0, i32 0, i32 0, !llfi_index !1139
  %830 = load i8** %829, align 8, !tbaa !486, !llfi_index !1140
  %831 = getelementptr inbounds i8* %830, i64 -24, !llfi_index !1141
  %832 = bitcast i8* %831 to i64*, !llfi_index !1142
  %833 = load i64* %832, align 8, !tbaa !1143, !llfi_index !1145
  %834 = invoke %"class.std::basic_ostream"* @_ZSt16__ostream_insertIcSt11char_traitsIcEERSt13basic_ostreamIT_T0_ES6_PKS3_l(%"class.std::basic_ostream"* @_ZSt4cout, i8* %830, i64 %833)
          to label %_ZStlsIcSt11char_traitsIcESaIcEERSt13basic_ostreamIT_T0_ES7_RKSbIS4_S5_T1_E.exit unwind label %1400, !llfi_index !1146

_ZStlsIcSt11char_traitsIcESaIcEERSt13basic_ostreamIT_T0_ES7_RKSbIS4_S5_T1_E.exit: ; preds = %828
  %835 = getelementptr inbounds %"class.std::allocator"* %36, i64 0, i32 0, !llfi_index !1147
  call void @llvm.lifetime.start(i64 1, i8* %835), !llfi_index !1148
  %836 = load i8** %829, align 8, !tbaa !486, !llfi_index !1149
  %837 = getelementptr inbounds i8* %836, i64 -24, !llfi_index !1150
  %838 = bitcast i8* %837 to %"struct.std::basic_string<char, std::char_traits<char>, std::allocator<char> >::_Rep"*, !llfi_index !1151
  %839 = icmp eq i8* %837, bitcast ([0 x i64]* @_ZNSs4_Rep20_S_empty_rep_storageE to i8*), !llfi_index !1152
  br i1 %839, label %1421, label %840, !prof !493, !llfi_index !1153

; <label>:840                                     ; preds = %_ZStlsIcSt11char_traitsIcESaIcEERSt13basic_ostreamIT_T0_ES7_RKSbIS4_S5_T1_E.exit
  %841 = getelementptr inbounds i8* %836, i64 -8, !llfi_index !1154
  %842 = bitcast i8* %841 to i32*, !llfi_index !1155
  br i1 icmp ne (i8* bitcast (i32 (i32*, void (i8*)*)* @__pthread_key_create to i8*), i8* null), label %843, label %847, !llfi_index !1156

; <label>:843                                     ; preds = %840
  %844 = bitcast i32* %35 to i8*, !llfi_index !1157
  call void @llvm.lifetime.start(i64 4, i8* %844), !llfi_index !1158
  %845 = atomicrmw volatile add i32* %842, i32 -1 acq_rel, !llfi_index !1159
  store i32 %845, i32* %35, align 4, !llfi_index !1160
  %846 = load volatile i32* %35, align 4, !llfi_index !1161
  call void @llvm.lifetime.end(i64 4, i8* %844), !llfi_index !1162
  br label %_ZN9__gnu_cxxL27__exchange_and_add_dispatchEPii.exit.i.i.i137, !llfi_index !1163

; <label>:847                                     ; preds = %840
  %848 = load i32* %842, align 4, !tbaa !431, !llfi_index !1164
  %849 = add nsw i32 %848, -1, !llfi_index !1165
  store i32 %849, i32* %842, align 4, !tbaa !431, !llfi_index !1166
  br label %_ZN9__gnu_cxxL27__exchange_and_add_dispatchEPii.exit.i.i.i137, !llfi_index !1167

_ZN9__gnu_cxxL27__exchange_and_add_dispatchEPii.exit.i.i.i137: ; preds = %847, %843
  %.0.i.i.i.i136 = phi i32 [ %846, %843 ], [ %848, %847 ], !llfi_index !1168
  %850 = icmp slt i32 %.0.i.i.i.i136, 1, !llfi_index !1169
  br i1 %850, label %851, label %1421, !llfi_index !1170

; <label>:851                                     ; preds = %_ZN9__gnu_cxxL27__exchange_and_add_dispatchEPii.exit.i.i.i137
  call void @_ZNSs4_Rep10_M_destroyERKSaIcE(%"struct.std::basic_string<char, std::char_traits<char>, std::allocator<char> >::_Rep"* %838, %"class.std::allocator"* %36) #2, !llfi_index !1171
  br label %1421, !llfi_index !1172

; <label>:852                                     ; preds = %354
  %853 = landingpad { i8*, i32 } personality i8* bitcast (i32 (...)* @__gxx_personality_v0 to i8*)
          cleanup, !llfi_index !1173
  %854 = extractvalue { i8*, i32 } %853, 0, !llfi_index !1174
  %855 = extractvalue { i8*, i32 } %853, 1, !llfi_index !1175
  br label %_ZNSsD1Ev.exit159, !llfi_index !1176

; <label>:856                                     ; preds = %356
  %857 = landingpad { i8*, i32 } personality i8* bitcast (i32 (...)* @__gxx_personality_v0 to i8*)
          cleanup, !llfi_index !1177
  %858 = extractvalue { i8*, i32 } %857, 0, !llfi_index !1178
  %859 = extractvalue { i8*, i32 } %857, 1, !llfi_index !1179
  br label %_ZNSsD1Ev.exit153, !llfi_index !1180

; <label>:860                                     ; preds = %357
  %861 = landingpad { i8*, i32 } personality i8* bitcast (i32 (...)* @__gxx_personality_v0 to i8*)
          cleanup, !llfi_index !1181
  %862 = extractvalue { i8*, i32 } %861, 0, !llfi_index !1182
  %863 = extractvalue { i8*, i32 } %861, 1, !llfi_index !1183
  br label %_ZNSsD1Ev.exit147, !llfi_index !1184

; <label>:864                                     ; preds = %358
  %865 = landingpad { i8*, i32 } personality i8* bitcast (i32 (...)* @__gxx_personality_v0 to i8*)
          cleanup, !llfi_index !1185
  %866 = extractvalue { i8*, i32 } %865, 0, !llfi_index !1186
  %867 = extractvalue { i8*, i32 } %865, 1, !llfi_index !1187
  br label %_ZNSsD1Ev.exit141, !llfi_index !1188

; <label>:868                                     ; preds = %359
  %869 = landingpad { i8*, i32 } personality i8* bitcast (i32 (...)* @__gxx_personality_v0 to i8*)
          cleanup, !llfi_index !1189
  %870 = extractvalue { i8*, i32 } %869, 0, !llfi_index !1190
  %871 = extractvalue { i8*, i32 } %869, 1, !llfi_index !1191
  %872 = getelementptr inbounds %"class.std::allocator"* %34, i64 0, i32 0, !llfi_index !1192
  call void @llvm.lifetime.start(i64 1, i8* %872), !llfi_index !1193
  %873 = getelementptr inbounds %"class.std::basic_string"* %99, i64 0, i32 0, i32 0, !llfi_index !1194
  %874 = load i8** %873, align 8, !tbaa !486, !llfi_index !1195
  %875 = getelementptr inbounds i8* %874, i64 -24, !llfi_index !1196
  %876 = bitcast i8* %875 to %"struct.std::basic_string<char, std::char_traits<char>, std::allocator<char> >::_Rep"*, !llfi_index !1197
  %877 = icmp eq i8* %875, bitcast ([0 x i64]* @_ZNSs4_Rep20_S_empty_rep_storageE to i8*), !llfi_index !1198
  br i1 %877, label %_ZNSsD1Ev.exit141, label %878, !prof !493, !llfi_index !1199

; <label>:878                                     ; preds = %868
  %879 = getelementptr inbounds i8* %874, i64 -8, !llfi_index !1200
  %880 = bitcast i8* %879 to i32*, !llfi_index !1201
  br i1 icmp ne (i8* bitcast (i32 (i32*, void (i8*)*)* @__pthread_key_create to i8*), i8* null), label %881, label %885, !llfi_index !1202

; <label>:881                                     ; preds = %878
  %882 = bitcast i32* %33 to i8*, !llfi_index !1203
  call void @llvm.lifetime.start(i64 4, i8* %882), !llfi_index !1204
  %883 = atomicrmw volatile add i32* %880, i32 -1 acq_rel, !llfi_index !1205
  store i32 %883, i32* %33, align 4, !llfi_index !1206
  %884 = load volatile i32* %33, align 4, !llfi_index !1207
  call void @llvm.lifetime.end(i64 4, i8* %882), !llfi_index !1208
  br label %_ZN9__gnu_cxxL27__exchange_and_add_dispatchEPii.exit.i.i.i140, !llfi_index !1209

; <label>:885                                     ; preds = %878
  %886 = load i32* %880, align 4, !tbaa !431, !llfi_index !1210
  %887 = add nsw i32 %886, -1, !llfi_index !1211
  store i32 %887, i32* %880, align 4, !tbaa !431, !llfi_index !1212
  br label %_ZN9__gnu_cxxL27__exchange_and_add_dispatchEPii.exit.i.i.i140, !llfi_index !1213

_ZN9__gnu_cxxL27__exchange_and_add_dispatchEPii.exit.i.i.i140: ; preds = %885, %881
  %.0.i.i.i.i139 = phi i32 [ %884, %881 ], [ %886, %885 ], !llfi_index !1214
  %888 = icmp slt i32 %.0.i.i.i.i139, 1, !llfi_index !1215
  br i1 %888, label %889, label %_ZNSsD1Ev.exit141, !llfi_index !1216

; <label>:889                                     ; preds = %_ZN9__gnu_cxxL27__exchange_and_add_dispatchEPii.exit.i.i.i140
  call void @_ZNSs4_Rep10_M_destroyERKSaIcE(%"struct.std::basic_string<char, std::char_traits<char>, std::allocator<char> >::_Rep"* %876, %"class.std::allocator"* %34) #2, !llfi_index !1217
  br label %_ZNSsD1Ev.exit141, !llfi_index !1218

_ZNSsD1Ev.exit141:                                ; preds = %889, %_ZN9__gnu_cxxL27__exchange_and_add_dispatchEPii.exit.i.i.i140, %868, %864
  %.04 = phi i8* [ %866, %864 ], [ %870, %868 ], [ %870, %_ZN9__gnu_cxxL27__exchange_and_add_dispatchEPii.exit.i.i.i140 ], [ %870, %889 ], !llfi_index !1219
  %.0 = phi i32 [ %867, %864 ], [ %871, %868 ], [ %871, %_ZN9__gnu_cxxL27__exchange_and_add_dispatchEPii.exit.i.i.i140 ], [ %871, %889 ], !llfi_index !1220
  %890 = getelementptr inbounds %"class.std::allocator"* %30, i64 0, i32 0, !llfi_index !1221
  call void @llvm.lifetime.start(i64 1, i8* %890), !llfi_index !1222
  %891 = getelementptr inbounds %"class.std::basic_string"* %97, i64 0, i32 0, i32 0, !llfi_index !1223
  %892 = load i8** %891, align 8, !tbaa !486, !llfi_index !1224
  %893 = getelementptr inbounds i8* %892, i64 -24, !llfi_index !1225
  %894 = bitcast i8* %893 to %"struct.std::basic_string<char, std::char_traits<char>, std::allocator<char> >::_Rep"*, !llfi_index !1226
  %895 = icmp eq i8* %893, bitcast ([0 x i64]* @_ZNSs4_Rep20_S_empty_rep_storageE to i8*), !llfi_index !1227
  br i1 %895, label %_ZNSsD1Ev.exit147, label %896, !prof !493, !llfi_index !1228

; <label>:896                                     ; preds = %_ZNSsD1Ev.exit141
  %897 = getelementptr inbounds i8* %892, i64 -8, !llfi_index !1229
  %898 = bitcast i8* %897 to i32*, !llfi_index !1230
  br i1 icmp ne (i8* bitcast (i32 (i32*, void (i8*)*)* @__pthread_key_create to i8*), i8* null), label %899, label %903, !llfi_index !1231

; <label>:899                                     ; preds = %896
  %900 = bitcast i32* %29 to i8*, !llfi_index !1232
  call void @llvm.lifetime.start(i64 4, i8* %900), !llfi_index !1233
  %901 = atomicrmw volatile add i32* %898, i32 -1 acq_rel, !llfi_index !1234
  store i32 %901, i32* %29, align 4, !llfi_index !1235
  %902 = load volatile i32* %29, align 4, !llfi_index !1236
  call void @llvm.lifetime.end(i64 4, i8* %900), !llfi_index !1237
  br label %_ZN9__gnu_cxxL27__exchange_and_add_dispatchEPii.exit.i.i.i146, !llfi_index !1238

; <label>:903                                     ; preds = %896
  %904 = load i32* %898, align 4, !tbaa !431, !llfi_index !1239
  %905 = add nsw i32 %904, -1, !llfi_index !1240
  store i32 %905, i32* %898, align 4, !tbaa !431, !llfi_index !1241
  br label %_ZN9__gnu_cxxL27__exchange_and_add_dispatchEPii.exit.i.i.i146, !llfi_index !1242

_ZN9__gnu_cxxL27__exchange_and_add_dispatchEPii.exit.i.i.i146: ; preds = %903, %899
  %.0.i.i.i.i145 = phi i32 [ %902, %899 ], [ %904, %903 ], !llfi_index !1243
  %906 = icmp slt i32 %.0.i.i.i.i145, 1, !llfi_index !1244
  br i1 %906, label %907, label %_ZNSsD1Ev.exit147, !llfi_index !1245

; <label>:907                                     ; preds = %_ZN9__gnu_cxxL27__exchange_and_add_dispatchEPii.exit.i.i.i146
  call void @_ZNSs4_Rep10_M_destroyERKSaIcE(%"struct.std::basic_string<char, std::char_traits<char>, std::allocator<char> >::_Rep"* %894, %"class.std::allocator"* %30) #2, !llfi_index !1246
  br label %_ZNSsD1Ev.exit147, !llfi_index !1247

_ZNSsD1Ev.exit147:                                ; preds = %907, %_ZN9__gnu_cxxL27__exchange_and_add_dispatchEPii.exit.i.i.i146, %_ZNSsD1Ev.exit141, %860
  %.110 = phi i8* [ %862, %860 ], [ %.04, %_ZNSsD1Ev.exit141 ], [ %.04, %_ZN9__gnu_cxxL27__exchange_and_add_dispatchEPii.exit.i.i.i146 ], [ %.04, %907 ], !llfi_index !1248
  %.1 = phi i32 [ %863, %860 ], [ %.0, %_ZNSsD1Ev.exit141 ], [ %.0, %_ZN9__gnu_cxxL27__exchange_and_add_dispatchEPii.exit.i.i.i146 ], [ %.0, %907 ], !llfi_index !1249
  %908 = getelementptr inbounds %"class.std::allocator"* %26, i64 0, i32 0, !llfi_index !1250
  call void @llvm.lifetime.start(i64 1, i8* %908), !llfi_index !1251
  %909 = getelementptr inbounds %"class.std::basic_string"* %95, i64 0, i32 0, i32 0, !llfi_index !1252
  %910 = load i8** %909, align 8, !tbaa !486, !llfi_index !1253
  %911 = getelementptr inbounds i8* %910, i64 -24, !llfi_index !1254
  %912 = bitcast i8* %911 to %"struct.std::basic_string<char, std::char_traits<char>, std::allocator<char> >::_Rep"*, !llfi_index !1255
  %913 = icmp eq i8* %911, bitcast ([0 x i64]* @_ZNSs4_Rep20_S_empty_rep_storageE to i8*), !llfi_index !1256
  br i1 %913, label %_ZNSsD1Ev.exit153, label %914, !prof !493, !llfi_index !1257

; <label>:914                                     ; preds = %_ZNSsD1Ev.exit147
  %915 = getelementptr inbounds i8* %910, i64 -8, !llfi_index !1258
  %916 = bitcast i8* %915 to i32*, !llfi_index !1259
  br i1 icmp ne (i8* bitcast (i32 (i32*, void (i8*)*)* @__pthread_key_create to i8*), i8* null), label %917, label %921, !llfi_index !1260

; <label>:917                                     ; preds = %914
  %918 = bitcast i32* %25 to i8*, !llfi_index !1261
  call void @llvm.lifetime.start(i64 4, i8* %918), !llfi_index !1262
  %919 = atomicrmw volatile add i32* %916, i32 -1 acq_rel, !llfi_index !1263
  store i32 %919, i32* %25, align 4, !llfi_index !1264
  %920 = load volatile i32* %25, align 4, !llfi_index !1265
  call void @llvm.lifetime.end(i64 4, i8* %918), !llfi_index !1266
  br label %_ZN9__gnu_cxxL27__exchange_and_add_dispatchEPii.exit.i.i.i152, !llfi_index !1267

; <label>:921                                     ; preds = %914
  %922 = load i32* %916, align 4, !tbaa !431, !llfi_index !1268
  %923 = add nsw i32 %922, -1, !llfi_index !1269
  store i32 %923, i32* %916, align 4, !tbaa !431, !llfi_index !1270
  br label %_ZN9__gnu_cxxL27__exchange_and_add_dispatchEPii.exit.i.i.i152, !llfi_index !1271

_ZN9__gnu_cxxL27__exchange_and_add_dispatchEPii.exit.i.i.i152: ; preds = %921, %917
  %.0.i.i.i.i151 = phi i32 [ %920, %917 ], [ %922, %921 ], !llfi_index !1272
  %924 = icmp slt i32 %.0.i.i.i.i151, 1, !llfi_index !1273
  br i1 %924, label %925, label %_ZNSsD1Ev.exit153, !llfi_index !1274

; <label>:925                                     ; preds = %_ZN9__gnu_cxxL27__exchange_and_add_dispatchEPii.exit.i.i.i152
  call void @_ZNSs4_Rep10_M_destroyERKSaIcE(%"struct.std::basic_string<char, std::char_traits<char>, std::allocator<char> >::_Rep"* %912, %"class.std::allocator"* %26) #2, !llfi_index !1275
  br label %_ZNSsD1Ev.exit153, !llfi_index !1276

_ZNSsD1Ev.exit153:                                ; preds = %925, %_ZN9__gnu_cxxL27__exchange_and_add_dispatchEPii.exit.i.i.i152, %_ZNSsD1Ev.exit147, %856
  %.211 = phi i8* [ %858, %856 ], [ %.110, %_ZNSsD1Ev.exit147 ], [ %.110, %_ZN9__gnu_cxxL27__exchange_and_add_dispatchEPii.exit.i.i.i152 ], [ %.110, %925 ], !llfi_index !1277
  %.2 = phi i32 [ %859, %856 ], [ %.1, %_ZNSsD1Ev.exit147 ], [ %.1, %_ZN9__gnu_cxxL27__exchange_and_add_dispatchEPii.exit.i.i.i152 ], [ %.1, %925 ], !llfi_index !1278
  %926 = getelementptr inbounds %"class.std::allocator"* %22, i64 0, i32 0, !llfi_index !1279
  call void @llvm.lifetime.start(i64 1, i8* %926), !llfi_index !1280
  %927 = getelementptr inbounds %"class.std::basic_string"* %93, i64 0, i32 0, i32 0, !llfi_index !1281
  %928 = load i8** %927, align 8, !tbaa !486, !llfi_index !1282
  %929 = getelementptr inbounds i8* %928, i64 -24, !llfi_index !1283
  %930 = bitcast i8* %929 to %"struct.std::basic_string<char, std::char_traits<char>, std::allocator<char> >::_Rep"*, !llfi_index !1284
  %931 = icmp eq i8* %929, bitcast ([0 x i64]* @_ZNSs4_Rep20_S_empty_rep_storageE to i8*), !llfi_index !1285
  br i1 %931, label %_ZNSsD1Ev.exit159, label %932, !prof !493, !llfi_index !1286

; <label>:932                                     ; preds = %_ZNSsD1Ev.exit153
  %933 = getelementptr inbounds i8* %928, i64 -8, !llfi_index !1287
  %934 = bitcast i8* %933 to i32*, !llfi_index !1288
  br i1 icmp ne (i8* bitcast (i32 (i32*, void (i8*)*)* @__pthread_key_create to i8*), i8* null), label %935, label %939, !llfi_index !1289

; <label>:935                                     ; preds = %932
  %936 = bitcast i32* %21 to i8*, !llfi_index !1290
  call void @llvm.lifetime.start(i64 4, i8* %936), !llfi_index !1291
  %937 = atomicrmw volatile add i32* %934, i32 -1 acq_rel, !llfi_index !1292
  store i32 %937, i32* %21, align 4, !llfi_index !1293
  %938 = load volatile i32* %21, align 4, !llfi_index !1294
  call void @llvm.lifetime.end(i64 4, i8* %936), !llfi_index !1295
  br label %_ZN9__gnu_cxxL27__exchange_and_add_dispatchEPii.exit.i.i.i158, !llfi_index !1296

; <label>:939                                     ; preds = %932
  %940 = load i32* %934, align 4, !tbaa !431, !llfi_index !1297
  %941 = add nsw i32 %940, -1, !llfi_index !1298
  store i32 %941, i32* %934, align 4, !tbaa !431, !llfi_index !1299
  br label %_ZN9__gnu_cxxL27__exchange_and_add_dispatchEPii.exit.i.i.i158, !llfi_index !1300

_ZN9__gnu_cxxL27__exchange_and_add_dispatchEPii.exit.i.i.i158: ; preds = %939, %935
  %.0.i.i.i.i157 = phi i32 [ %938, %935 ], [ %940, %939 ], !llfi_index !1301
  %942 = icmp slt i32 %.0.i.i.i.i157, 1, !llfi_index !1302
  br i1 %942, label %943, label %_ZNSsD1Ev.exit159, !llfi_index !1303

; <label>:943                                     ; preds = %_ZN9__gnu_cxxL27__exchange_and_add_dispatchEPii.exit.i.i.i158
  call void @_ZNSs4_Rep10_M_destroyERKSaIcE(%"struct.std::basic_string<char, std::char_traits<char>, std::allocator<char> >::_Rep"* %930, %"class.std::allocator"* %22) #2, !llfi_index !1304
  br label %_ZNSsD1Ev.exit159, !llfi_index !1305

; <label>:944                                     ; preds = %436
  %945 = landingpad { i8*, i32 } personality i8* bitcast (i32 (...)* @__gxx_personality_v0 to i8*)
          cleanup, !llfi_index !1306
  %946 = extractvalue { i8*, i32 } %945, 0, !llfi_index !1307
  %947 = extractvalue { i8*, i32 } %945, 1, !llfi_index !1308
  br label %_ZNSsD1Ev.exit171, !llfi_index !1309

; <label>:948                                     ; preds = %438
  %949 = landingpad { i8*, i32 } personality i8* bitcast (i32 (...)* @__gxx_personality_v0 to i8*)
          cleanup, !llfi_index !1310
  %950 = extractvalue { i8*, i32 } %949, 0, !llfi_index !1311
  %951 = extractvalue { i8*, i32 } %949, 1, !llfi_index !1312
  br label %_ZNSsD1Ev.exit165, !llfi_index !1313

; <label>:952                                     ; preds = %439
  %953 = landingpad { i8*, i32 } personality i8* bitcast (i32 (...)* @__gxx_personality_v0 to i8*)
          cleanup, !llfi_index !1314
  %954 = extractvalue { i8*, i32 } %953, 0, !llfi_index !1315
  %955 = extractvalue { i8*, i32 } %953, 1, !llfi_index !1316
  %956 = getelementptr inbounds %"class.std::allocator"* %18, i64 0, i32 0, !llfi_index !1317
  call void @llvm.lifetime.start(i64 1, i8* %956), !llfi_index !1318
  %957 = getelementptr inbounds %"class.std::basic_string"* %103, i64 0, i32 0, i32 0, !llfi_index !1319
  %958 = load i8** %957, align 8, !tbaa !486, !llfi_index !1320
  %959 = getelementptr inbounds i8* %958, i64 -24, !llfi_index !1321
  %960 = bitcast i8* %959 to %"struct.std::basic_string<char, std::char_traits<char>, std::allocator<char> >::_Rep"*, !llfi_index !1322
  %961 = icmp eq i8* %959, bitcast ([0 x i64]* @_ZNSs4_Rep20_S_empty_rep_storageE to i8*), !llfi_index !1323
  br i1 %961, label %_ZNSsD1Ev.exit165, label %962, !prof !493, !llfi_index !1324

; <label>:962                                     ; preds = %952
  %963 = getelementptr inbounds i8* %958, i64 -8, !llfi_index !1325
  %964 = bitcast i8* %963 to i32*, !llfi_index !1326
  br i1 icmp ne (i8* bitcast (i32 (i32*, void (i8*)*)* @__pthread_key_create to i8*), i8* null), label %965, label %969, !llfi_index !1327

; <label>:965                                     ; preds = %962
  %966 = bitcast i32* %17 to i8*, !llfi_index !1328
  call void @llvm.lifetime.start(i64 4, i8* %966), !llfi_index !1329
  %967 = atomicrmw volatile add i32* %964, i32 -1 acq_rel, !llfi_index !1330
  store i32 %967, i32* %17, align 4, !llfi_index !1331
  %968 = load volatile i32* %17, align 4, !llfi_index !1332
  call void @llvm.lifetime.end(i64 4, i8* %966), !llfi_index !1333
  br label %_ZN9__gnu_cxxL27__exchange_and_add_dispatchEPii.exit.i.i.i164, !llfi_index !1334

; <label>:969                                     ; preds = %962
  %970 = load i32* %964, align 4, !tbaa !431, !llfi_index !1335
  %971 = add nsw i32 %970, -1, !llfi_index !1336
  store i32 %971, i32* %964, align 4, !tbaa !431, !llfi_index !1337
  br label %_ZN9__gnu_cxxL27__exchange_and_add_dispatchEPii.exit.i.i.i164, !llfi_index !1338

_ZN9__gnu_cxxL27__exchange_and_add_dispatchEPii.exit.i.i.i164: ; preds = %969, %965
  %.0.i.i.i.i163 = phi i32 [ %968, %965 ], [ %970, %969 ], !llfi_index !1339
  %972 = icmp slt i32 %.0.i.i.i.i163, 1, !llfi_index !1340
  br i1 %972, label %973, label %_ZNSsD1Ev.exit165, !llfi_index !1341

; <label>:973                                     ; preds = %_ZN9__gnu_cxxL27__exchange_and_add_dispatchEPii.exit.i.i.i164
  call void @_ZNSs4_Rep10_M_destroyERKSaIcE(%"struct.std::basic_string<char, std::char_traits<char>, std::allocator<char> >::_Rep"* %960, %"class.std::allocator"* %18) #2, !llfi_index !1342
  br label %_ZNSsD1Ev.exit165, !llfi_index !1343

_ZNSsD1Ev.exit165:                                ; preds = %973, %_ZN9__gnu_cxxL27__exchange_and_add_dispatchEPii.exit.i.i.i164, %952, %948
  %.413 = phi i8* [ %950, %948 ], [ %954, %952 ], [ %954, %_ZN9__gnu_cxxL27__exchange_and_add_dispatchEPii.exit.i.i.i164 ], [ %954, %973 ], !llfi_index !1344
  %.4 = phi i32 [ %951, %948 ], [ %955, %952 ], [ %955, %_ZN9__gnu_cxxL27__exchange_and_add_dispatchEPii.exit.i.i.i164 ], [ %955, %973 ], !llfi_index !1345
  %974 = getelementptr inbounds %"class.std::allocator"* %14, i64 0, i32 0, !llfi_index !1346
  call void @llvm.lifetime.start(i64 1, i8* %974), !llfi_index !1347
  %975 = getelementptr inbounds %"class.std::basic_string"* %101, i64 0, i32 0, i32 0, !llfi_index !1348
  %976 = load i8** %975, align 8, !tbaa !486, !llfi_index !1349
  %977 = getelementptr inbounds i8* %976, i64 -24, !llfi_index !1350
  %978 = bitcast i8* %977 to %"struct.std::basic_string<char, std::char_traits<char>, std::allocator<char> >::_Rep"*, !llfi_index !1351
  %979 = icmp eq i8* %977, bitcast ([0 x i64]* @_ZNSs4_Rep20_S_empty_rep_storageE to i8*), !llfi_index !1352
  br i1 %979, label %_ZNSsD1Ev.exit171, label %980, !prof !493, !llfi_index !1353

; <label>:980                                     ; preds = %_ZNSsD1Ev.exit165
  %981 = getelementptr inbounds i8* %976, i64 -8, !llfi_index !1354
  %982 = bitcast i8* %981 to i32*, !llfi_index !1355
  br i1 icmp ne (i8* bitcast (i32 (i32*, void (i8*)*)* @__pthread_key_create to i8*), i8* null), label %983, label %987, !llfi_index !1356

; <label>:983                                     ; preds = %980
  %984 = bitcast i32* %13 to i8*, !llfi_index !1357
  call void @llvm.lifetime.start(i64 4, i8* %984), !llfi_index !1358
  %985 = atomicrmw volatile add i32* %982, i32 -1 acq_rel, !llfi_index !1359
  store i32 %985, i32* %13, align 4, !llfi_index !1360
  %986 = load volatile i32* %13, align 4, !llfi_index !1361
  call void @llvm.lifetime.end(i64 4, i8* %984), !llfi_index !1362
  br label %_ZN9__gnu_cxxL27__exchange_and_add_dispatchEPii.exit.i.i.i170, !llfi_index !1363

; <label>:987                                     ; preds = %980
  %988 = load i32* %982, align 4, !tbaa !431, !llfi_index !1364
  %989 = add nsw i32 %988, -1, !llfi_index !1365
  store i32 %989, i32* %982, align 4, !tbaa !431, !llfi_index !1366
  br label %_ZN9__gnu_cxxL27__exchange_and_add_dispatchEPii.exit.i.i.i170, !llfi_index !1367

_ZN9__gnu_cxxL27__exchange_and_add_dispatchEPii.exit.i.i.i170: ; preds = %987, %983
  %.0.i.i.i.i169 = phi i32 [ %986, %983 ], [ %988, %987 ], !llfi_index !1368
  %990 = icmp slt i32 %.0.i.i.i.i169, 1, !llfi_index !1369
  br i1 %990, label %991, label %_ZNSsD1Ev.exit171, !llfi_index !1370

; <label>:991                                     ; preds = %_ZN9__gnu_cxxL27__exchange_and_add_dispatchEPii.exit.i.i.i170
  call void @_ZNSs4_Rep10_M_destroyERKSaIcE(%"struct.std::basic_string<char, std::char_traits<char>, std::allocator<char> >::_Rep"* %978, %"class.std::allocator"* %14) #2, !llfi_index !1371
  br label %_ZNSsD1Ev.exit171, !llfi_index !1372

; <label>:992                                     ; preds = %479
  %993 = landingpad { i8*, i32 } personality i8* bitcast (i32 (...)* @__gxx_personality_v0 to i8*)
          cleanup, !llfi_index !1373
  %994 = extractvalue { i8*, i32 } %993, 0, !llfi_index !1374
  %995 = extractvalue { i8*, i32 } %993, 1, !llfi_index !1375
  br label %_ZNSsD1Ev.exit171, !llfi_index !1376

; <label>:996                                     ; preds = %480
  %997 = landingpad { i8*, i32 } personality i8* bitcast (i32 (...)* @__gxx_personality_v0 to i8*)
          cleanup, !llfi_index !1377
  %998 = extractvalue { i8*, i32 } %997, 0, !llfi_index !1378
  %999 = extractvalue { i8*, i32 } %997, 1, !llfi_index !1379
  br label %_ZNSsD1Ev.exit183, !llfi_index !1380

; <label>:1000                                    ; preds = %482
  %1001 = landingpad { i8*, i32 } personality i8* bitcast (i32 (...)* @__gxx_personality_v0 to i8*)
          cleanup, !llfi_index !1381
  %1002 = extractvalue { i8*, i32 } %1001, 0, !llfi_index !1382
  %1003 = extractvalue { i8*, i32 } %1001, 1, !llfi_index !1383
  br label %_ZNSsD1Ev.exit183, !llfi_index !1384

; <label>:1004                                    ; preds = %483
  %1005 = landingpad { i8*, i32 } personality i8* bitcast (i32 (...)* @__gxx_personality_v0 to i8*)
          cleanup, !llfi_index !1385
  %1006 = extractvalue { i8*, i32 } %1005, 0, !llfi_index !1386
  %1007 = extractvalue { i8*, i32 } %1005, 1, !llfi_index !1387
  br label %_ZNSsD1Ev.exit177, !llfi_index !1388

; <label>:1008                                    ; preds = %484
  %1009 = landingpad { i8*, i32 } personality i8* bitcast (i32 (...)* @__gxx_personality_v0 to i8*)
          cleanup, !llfi_index !1389
  %1010 = extractvalue { i8*, i32 } %1009, 0, !llfi_index !1390
  %1011 = extractvalue { i8*, i32 } %1009, 1, !llfi_index !1391
  %1012 = getelementptr inbounds %"class.std::allocator"* %10, i64 0, i32 0, !llfi_index !1392
  call void @llvm.lifetime.start(i64 1, i8* %1012), !llfi_index !1393
  %1013 = getelementptr inbounds %"class.std::basic_string"* %109, i64 0, i32 0, i32 0, !llfi_index !1394
  %1014 = load i8** %1013, align 8, !tbaa !486, !llfi_index !1395
  %1015 = getelementptr inbounds i8* %1014, i64 -24, !llfi_index !1396
  %1016 = bitcast i8* %1015 to %"struct.std::basic_string<char, std::char_traits<char>, std::allocator<char> >::_Rep"*, !llfi_index !1397
  %1017 = icmp eq i8* %1015, bitcast ([0 x i64]* @_ZNSs4_Rep20_S_empty_rep_storageE to i8*), !llfi_index !1398
  br i1 %1017, label %_ZNSsD1Ev.exit177, label %1018, !prof !493, !llfi_index !1399

; <label>:1018                                    ; preds = %1008
  %1019 = getelementptr inbounds i8* %1014, i64 -8, !llfi_index !1400
  %1020 = bitcast i8* %1019 to i32*, !llfi_index !1401
  br i1 icmp ne (i8* bitcast (i32 (i32*, void (i8*)*)* @__pthread_key_create to i8*), i8* null), label %1021, label %1025, !llfi_index !1402

; <label>:1021                                    ; preds = %1018
  %1022 = bitcast i32* %9 to i8*, !llfi_index !1403
  call void @llvm.lifetime.start(i64 4, i8* %1022), !llfi_index !1404
  %1023 = atomicrmw volatile add i32* %1020, i32 -1 acq_rel, !llfi_index !1405
  store i32 %1023, i32* %9, align 4, !llfi_index !1406
  %1024 = load volatile i32* %9, align 4, !llfi_index !1407
  call void @llvm.lifetime.end(i64 4, i8* %1022), !llfi_index !1408
  br label %_ZN9__gnu_cxxL27__exchange_and_add_dispatchEPii.exit.i.i.i176, !llfi_index !1409

; <label>:1025                                    ; preds = %1018
  %1026 = load i32* %1020, align 4, !tbaa !431, !llfi_index !1410
  %1027 = add nsw i32 %1026, -1, !llfi_index !1411
  store i32 %1027, i32* %1020, align 4, !tbaa !431, !llfi_index !1412
  br label %_ZN9__gnu_cxxL27__exchange_and_add_dispatchEPii.exit.i.i.i176, !llfi_index !1413

_ZN9__gnu_cxxL27__exchange_and_add_dispatchEPii.exit.i.i.i176: ; preds = %1025, %1021
  %.0.i.i.i.i175 = phi i32 [ %1024, %1021 ], [ %1026, %1025 ], !llfi_index !1414
  %1028 = icmp slt i32 %.0.i.i.i.i175, 1, !llfi_index !1415
  br i1 %1028, label %1029, label %_ZNSsD1Ev.exit177, !llfi_index !1416

; <label>:1029                                    ; preds = %_ZN9__gnu_cxxL27__exchange_and_add_dispatchEPii.exit.i.i.i176
  call void @_ZNSs4_Rep10_M_destroyERKSaIcE(%"struct.std::basic_string<char, std::char_traits<char>, std::allocator<char> >::_Rep"* %1016, %"class.std::allocator"* %10) #2, !llfi_index !1417
  br label %_ZNSsD1Ev.exit177, !llfi_index !1418

_ZNSsD1Ev.exit177:                                ; preds = %1029, %_ZN9__gnu_cxxL27__exchange_and_add_dispatchEPii.exit.i.i.i176, %1008, %1004
  %.615 = phi i8* [ %1006, %1004 ], [ %1010, %1008 ], [ %1010, %_ZN9__gnu_cxxL27__exchange_and_add_dispatchEPii.exit.i.i.i176 ], [ %1010, %1029 ], !llfi_index !1419
  %.6 = phi i32 [ %1007, %1004 ], [ %1011, %1008 ], [ %1011, %_ZN9__gnu_cxxL27__exchange_and_add_dispatchEPii.exit.i.i.i176 ], [ %1011, %1029 ], !llfi_index !1420
  %1030 = getelementptr inbounds %"class.std::allocator"* %6, i64 0, i32 0, !llfi_index !1421
  call void @llvm.lifetime.start(i64 1, i8* %1030), !llfi_index !1422
  %1031 = getelementptr inbounds %"class.std::basic_string"* %107, i64 0, i32 0, i32 0, !llfi_index !1423
  %1032 = load i8** %1031, align 8, !tbaa !486, !llfi_index !1424
  %1033 = getelementptr inbounds i8* %1032, i64 -24, !llfi_index !1425
  %1034 = bitcast i8* %1033 to %"struct.std::basic_string<char, std::char_traits<char>, std::allocator<char> >::_Rep"*, !llfi_index !1426
  %1035 = icmp eq i8* %1033, bitcast ([0 x i64]* @_ZNSs4_Rep20_S_empty_rep_storageE to i8*), !llfi_index !1427
  br i1 %1035, label %_ZNSsD1Ev.exit183, label %1036, !prof !493, !llfi_index !1428

; <label>:1036                                    ; preds = %_ZNSsD1Ev.exit177
  %1037 = getelementptr inbounds i8* %1032, i64 -8, !llfi_index !1429
  %1038 = bitcast i8* %1037 to i32*, !llfi_index !1430
  br i1 icmp ne (i8* bitcast (i32 (i32*, void (i8*)*)* @__pthread_key_create to i8*), i8* null), label %1039, label %1043, !llfi_index !1431

; <label>:1039                                    ; preds = %1036
  %1040 = bitcast i32* %5 to i8*, !llfi_index !1432
  call void @llvm.lifetime.start(i64 4, i8* %1040), !llfi_index !1433
  %1041 = atomicrmw volatile add i32* %1038, i32 -1 acq_rel, !llfi_index !1434
  store i32 %1041, i32* %5, align 4, !llfi_index !1435
  %1042 = load volatile i32* %5, align 4, !llfi_index !1436
  call void @llvm.lifetime.end(i64 4, i8* %1040), !llfi_index !1437
  br label %_ZN9__gnu_cxxL27__exchange_and_add_dispatchEPii.exit.i.i.i182, !llfi_index !1438

; <label>:1043                                    ; preds = %1036
  %1044 = load i32* %1038, align 4, !tbaa !431, !llfi_index !1439
  %1045 = add nsw i32 %1044, -1, !llfi_index !1440
  store i32 %1045, i32* %1038, align 4, !tbaa !431, !llfi_index !1441
  br label %_ZN9__gnu_cxxL27__exchange_and_add_dispatchEPii.exit.i.i.i182, !llfi_index !1442

_ZN9__gnu_cxxL27__exchange_and_add_dispatchEPii.exit.i.i.i182: ; preds = %1043, %1039
  %.0.i.i.i.i181 = phi i32 [ %1042, %1039 ], [ %1044, %1043 ], !llfi_index !1443
  %1046 = icmp slt i32 %.0.i.i.i.i181, 1, !llfi_index !1444
  br i1 %1046, label %1047, label %_ZNSsD1Ev.exit183, !llfi_index !1445

; <label>:1047                                    ; preds = %_ZN9__gnu_cxxL27__exchange_and_add_dispatchEPii.exit.i.i.i182
  call void @_ZNSs4_Rep10_M_destroyERKSaIcE(%"struct.std::basic_string<char, std::char_traits<char>, std::allocator<char> >::_Rep"* %1034, %"class.std::allocator"* %6) #2, !llfi_index !1446
  br label %_ZNSsD1Ev.exit183, !llfi_index !1447

_ZNSsD1Ev.exit183:                                ; preds = %1047, %_ZN9__gnu_cxxL27__exchange_and_add_dispatchEPii.exit.i.i.i182, %_ZNSsD1Ev.exit177, %1000, %996
  %.817 = phi i8* [ %998, %996 ], [ %1002, %1000 ], [ %.615, %_ZNSsD1Ev.exit177 ], [ %.615, %_ZN9__gnu_cxxL27__exchange_and_add_dispatchEPii.exit.i.i.i182 ], [ %.615, %1047 ], !llfi_index !1448
  %.8 = phi i32 [ %999, %996 ], [ %1003, %1000 ], [ %.6, %_ZNSsD1Ev.exit177 ], [ %.6, %_ZN9__gnu_cxxL27__exchange_and_add_dispatchEPii.exit.i.i.i182 ], [ %.6, %1047 ], !llfi_index !1449
  %1048 = getelementptr inbounds %"class.std::allocator"* %2, i64 0, i32 0, !llfi_index !1450
  call void @llvm.lifetime.start(i64 1, i8* %1048), !llfi_index !1451
  %1049 = getelementptr inbounds %"class.std::basic_string"* %105, i64 0, i32 0, i32 0, !llfi_index !1452
  %1050 = load i8** %1049, align 8, !tbaa !486, !llfi_index !1453
  %1051 = getelementptr inbounds i8* %1050, i64 -24, !llfi_index !1454
  %1052 = bitcast i8* %1051 to %"struct.std::basic_string<char, std::char_traits<char>, std::allocator<char> >::_Rep"*, !llfi_index !1455
  %1053 = icmp eq i8* %1051, bitcast ([0 x i64]* @_ZNSs4_Rep20_S_empty_rep_storageE to i8*), !llfi_index !1456
  br i1 %1053, label %_ZNSsD1Ev.exit171, label %1054, !prof !493, !llfi_index !1457

; <label>:1054                                    ; preds = %_ZNSsD1Ev.exit183
  %1055 = getelementptr inbounds i8* %1050, i64 -8, !llfi_index !1458
  %1056 = bitcast i8* %1055 to i32*, !llfi_index !1459
  br i1 icmp ne (i8* bitcast (i32 (i32*, void (i8*)*)* @__pthread_key_create to i8*), i8* null), label %1057, label %1061, !llfi_index !1460

; <label>:1057                                    ; preds = %1054
  %1058 = bitcast i32* %1 to i8*, !llfi_index !1461
  call void @llvm.lifetime.start(i64 4, i8* %1058), !llfi_index !1462
  %1059 = atomicrmw volatile add i32* %1056, i32 -1 acq_rel, !llfi_index !1463
  store i32 %1059, i32* %1, align 4, !llfi_index !1464
  %1060 = load volatile i32* %1, align 4, !llfi_index !1465
  call void @llvm.lifetime.end(i64 4, i8* %1058), !llfi_index !1466
  br label %_ZN9__gnu_cxxL27__exchange_and_add_dispatchEPii.exit.i.i.i188, !llfi_index !1467

; <label>:1061                                    ; preds = %1054
  %1062 = load i32* %1056, align 4, !tbaa !431, !llfi_index !1468
  %1063 = add nsw i32 %1062, -1, !llfi_index !1469
  store i32 %1063, i32* %1056, align 4, !tbaa !431, !llfi_index !1470
  br label %_ZN9__gnu_cxxL27__exchange_and_add_dispatchEPii.exit.i.i.i188, !llfi_index !1471

_ZN9__gnu_cxxL27__exchange_and_add_dispatchEPii.exit.i.i.i188: ; preds = %1061, %1057
  %.0.i.i.i.i187 = phi i32 [ %1060, %1057 ], [ %1062, %1061 ], !llfi_index !1472
  %1064 = icmp slt i32 %.0.i.i.i.i187, 1, !llfi_index !1473
  br i1 %1064, label %1065, label %_ZNSsD1Ev.exit171, !llfi_index !1474

; <label>:1065                                    ; preds = %_ZN9__gnu_cxxL27__exchange_and_add_dispatchEPii.exit.i.i.i188
  call void @_ZNSs4_Rep10_M_destroyERKSaIcE(%"struct.std::basic_string<char, std::char_traits<char>, std::allocator<char> >::_Rep"* %1052, %"class.std::allocator"* %2) #2, !llfi_index !1475
  br label %_ZNSsD1Ev.exit171, !llfi_index !1476

; <label>:1066                                    ; preds = %543
  %1067 = landingpad { i8*, i32 } personality i8* bitcast (i32 (...)* @__gxx_personality_v0 to i8*)
          cleanup, !llfi_index !1477
  %1068 = extractvalue { i8*, i32 } %1067, 0, !llfi_index !1478
  %1069 = extractvalue { i8*, i32 } %1067, 1, !llfi_index !1479
  br label %_ZNSsD1Ev.exit171, !llfi_index !1480

; <label>:1070                                    ; preds = %544
  %1071 = landingpad { i8*, i32 } personality i8* bitcast (i32 (...)* @__gxx_personality_v0 to i8*)
          cleanup, !llfi_index !1481
  %1072 = extractvalue { i8*, i32 } %1071, 0, !llfi_index !1482
  %1073 = extractvalue { i8*, i32 } %1071, 1, !llfi_index !1483
  br label %_ZNSsD1Ev.exit180, !llfi_index !1484

; <label>:1074                                    ; preds = %546
  %1075 = landingpad { i8*, i32 } personality i8* bitcast (i32 (...)* @__gxx_personality_v0 to i8*)
          cleanup, !llfi_index !1485
  %1076 = extractvalue { i8*, i32 } %1075, 0, !llfi_index !1486
  %1077 = extractvalue { i8*, i32 } %1075, 1, !llfi_index !1487
  br label %_ZNSsD1Ev.exit180, !llfi_index !1488

; <label>:1078                                    ; preds = %547
  %1079 = landingpad { i8*, i32 } personality i8* bitcast (i32 (...)* @__gxx_personality_v0 to i8*)
          cleanup, !llfi_index !1489
  %1080 = extractvalue { i8*, i32 } %1079, 0, !llfi_index !1490
  %1081 = extractvalue { i8*, i32 } %1079, 1, !llfi_index !1491
  br label %_ZNSsD1Ev.exit186, !llfi_index !1492

; <label>:1082                                    ; preds = %548
  %1083 = landingpad { i8*, i32 } personality i8* bitcast (i32 (...)* @__gxx_personality_v0 to i8*)
          cleanup, !llfi_index !1493
  %1084 = extractvalue { i8*, i32 } %1083, 0, !llfi_index !1494
  %1085 = extractvalue { i8*, i32 } %1083, 1, !llfi_index !1495
  %1086 = getelementptr inbounds %"class.std::allocator"* %4, i64 0, i32 0, !llfi_index !1496
  call void @llvm.lifetime.start(i64 1, i8* %1086), !llfi_index !1497
  %1087 = getelementptr inbounds %"class.std::basic_string"* %115, i64 0, i32 0, i32 0, !llfi_index !1498
  %1088 = load i8** %1087, align 8, !tbaa !486, !llfi_index !1499
  %1089 = getelementptr inbounds i8* %1088, i64 -24, !llfi_index !1500
  %1090 = bitcast i8* %1089 to %"struct.std::basic_string<char, std::char_traits<char>, std::allocator<char> >::_Rep"*, !llfi_index !1501
  %1091 = icmp eq i8* %1089, bitcast ([0 x i64]* @_ZNSs4_Rep20_S_empty_rep_storageE to i8*), !llfi_index !1502
  br i1 %1091, label %_ZNSsD1Ev.exit186, label %1092, !prof !493, !llfi_index !1503

; <label>:1092                                    ; preds = %1082
  %1093 = getelementptr inbounds i8* %1088, i64 -8, !llfi_index !1504
  %1094 = bitcast i8* %1093 to i32*, !llfi_index !1505
  br i1 icmp ne (i8* bitcast (i32 (i32*, void (i8*)*)* @__pthread_key_create to i8*), i8* null), label %1095, label %1099, !llfi_index !1506

; <label>:1095                                    ; preds = %1092
  %1096 = bitcast i32* %3 to i8*, !llfi_index !1507
  call void @llvm.lifetime.start(i64 4, i8* %1096), !llfi_index !1508
  %1097 = atomicrmw volatile add i32* %1094, i32 -1 acq_rel, !llfi_index !1509
  store i32 %1097, i32* %3, align 4, !llfi_index !1510
  %1098 = load volatile i32* %3, align 4, !llfi_index !1511
  call void @llvm.lifetime.end(i64 4, i8* %1096), !llfi_index !1512
  br label %_ZN9__gnu_cxxL27__exchange_and_add_dispatchEPii.exit.i.i.i185, !llfi_index !1513

; <label>:1099                                    ; preds = %1092
  %1100 = load i32* %1094, align 4, !tbaa !431, !llfi_index !1514
  %1101 = add nsw i32 %1100, -1, !llfi_index !1515
  store i32 %1101, i32* %1094, align 4, !tbaa !431, !llfi_index !1516
  br label %_ZN9__gnu_cxxL27__exchange_and_add_dispatchEPii.exit.i.i.i185, !llfi_index !1517

_ZN9__gnu_cxxL27__exchange_and_add_dispatchEPii.exit.i.i.i185: ; preds = %1099, %1095
  %.0.i.i.i.i184 = phi i32 [ %1098, %1095 ], [ %1100, %1099 ], !llfi_index !1518
  %1102 = icmp slt i32 %.0.i.i.i.i184, 1, !llfi_index !1519
  br i1 %1102, label %1103, label %_ZNSsD1Ev.exit186, !llfi_index !1520

; <label>:1103                                    ; preds = %_ZN9__gnu_cxxL27__exchange_and_add_dispatchEPii.exit.i.i.i185
  call void @_ZNSs4_Rep10_M_destroyERKSaIcE(%"struct.std::basic_string<char, std::char_traits<char>, std::allocator<char> >::_Rep"* %1090, %"class.std::allocator"* %4) #2, !llfi_index !1521
  br label %_ZNSsD1Ev.exit186, !llfi_index !1522

_ZNSsD1Ev.exit186:                                ; preds = %1103, %_ZN9__gnu_cxxL27__exchange_and_add_dispatchEPii.exit.i.i.i185, %1082, %1078
  %.1019 = phi i8* [ %1080, %1078 ], [ %1084, %1082 ], [ %1084, %_ZN9__gnu_cxxL27__exchange_and_add_dispatchEPii.exit.i.i.i185 ], [ %1084, %1103 ], !llfi_index !1523
  %.10 = phi i32 [ %1081, %1078 ], [ %1085, %1082 ], [ %1085, %_ZN9__gnu_cxxL27__exchange_and_add_dispatchEPii.exit.i.i.i185 ], [ %1085, %1103 ], !llfi_index !1524
  %1104 = getelementptr inbounds %"class.std::allocator"* %8, i64 0, i32 0, !llfi_index !1525
  call void @llvm.lifetime.start(i64 1, i8* %1104), !llfi_index !1526
  %1105 = getelementptr inbounds %"class.std::basic_string"* %113, i64 0, i32 0, i32 0, !llfi_index !1527
  %1106 = load i8** %1105, align 8, !tbaa !486, !llfi_index !1528
  %1107 = getelementptr inbounds i8* %1106, i64 -24, !llfi_index !1529
  %1108 = bitcast i8* %1107 to %"struct.std::basic_string<char, std::char_traits<char>, std::allocator<char> >::_Rep"*, !llfi_index !1530
  %1109 = icmp eq i8* %1107, bitcast ([0 x i64]* @_ZNSs4_Rep20_S_empty_rep_storageE to i8*), !llfi_index !1531
  br i1 %1109, label %_ZNSsD1Ev.exit180, label %1110, !prof !493, !llfi_index !1532

; <label>:1110                                    ; preds = %_ZNSsD1Ev.exit186
  %1111 = getelementptr inbounds i8* %1106, i64 -8, !llfi_index !1533
  %1112 = bitcast i8* %1111 to i32*, !llfi_index !1534
  br i1 icmp ne (i8* bitcast (i32 (i32*, void (i8*)*)* @__pthread_key_create to i8*), i8* null), label %1113, label %1117, !llfi_index !1535

; <label>:1113                                    ; preds = %1110
  %1114 = bitcast i32* %7 to i8*, !llfi_index !1536
  call void @llvm.lifetime.start(i64 4, i8* %1114), !llfi_index !1537
  %1115 = atomicrmw volatile add i32* %1112, i32 -1 acq_rel, !llfi_index !1538
  store i32 %1115, i32* %7, align 4, !llfi_index !1539
  %1116 = load volatile i32* %7, align 4, !llfi_index !1540
  call void @llvm.lifetime.end(i64 4, i8* %1114), !llfi_index !1541
  br label %_ZN9__gnu_cxxL27__exchange_and_add_dispatchEPii.exit.i.i.i179, !llfi_index !1542

; <label>:1117                                    ; preds = %1110
  %1118 = load i32* %1112, align 4, !tbaa !431, !llfi_index !1543
  %1119 = add nsw i32 %1118, -1, !llfi_index !1544
  store i32 %1119, i32* %1112, align 4, !tbaa !431, !llfi_index !1545
  br label %_ZN9__gnu_cxxL27__exchange_and_add_dispatchEPii.exit.i.i.i179, !llfi_index !1546

_ZN9__gnu_cxxL27__exchange_and_add_dispatchEPii.exit.i.i.i179: ; preds = %1117, %1113
  %.0.i.i.i.i178 = phi i32 [ %1116, %1113 ], [ %1118, %1117 ], !llfi_index !1547
  %1120 = icmp slt i32 %.0.i.i.i.i178, 1, !llfi_index !1548
  br i1 %1120, label %1121, label %_ZNSsD1Ev.exit180, !llfi_index !1549

; <label>:1121                                    ; preds = %_ZN9__gnu_cxxL27__exchange_and_add_dispatchEPii.exit.i.i.i179
  call void @_ZNSs4_Rep10_M_destroyERKSaIcE(%"struct.std::basic_string<char, std::char_traits<char>, std::allocator<char> >::_Rep"* %1108, %"class.std::allocator"* %8) #2, !llfi_index !1550
  br label %_ZNSsD1Ev.exit180, !llfi_index !1551

_ZNSsD1Ev.exit180:                                ; preds = %1121, %_ZN9__gnu_cxxL27__exchange_and_add_dispatchEPii.exit.i.i.i179, %_ZNSsD1Ev.exit186, %1074, %1070
  %.1221 = phi i8* [ %1072, %1070 ], [ %1076, %1074 ], [ %.1019, %_ZNSsD1Ev.exit186 ], [ %.1019, %_ZN9__gnu_cxxL27__exchange_and_add_dispatchEPii.exit.i.i.i179 ], [ %.1019, %1121 ], !llfi_index !1552
  %.12 = phi i32 [ %1073, %1070 ], [ %1077, %1074 ], [ %.10, %_ZNSsD1Ev.exit186 ], [ %.10, %_ZN9__gnu_cxxL27__exchange_and_add_dispatchEPii.exit.i.i.i179 ], [ %.10, %1121 ], !llfi_index !1553
  %1122 = getelementptr inbounds %"class.std::allocator"* %12, i64 0, i32 0, !llfi_index !1554
  call void @llvm.lifetime.start(i64 1, i8* %1122), !llfi_index !1555
  %1123 = getelementptr inbounds %"class.std::basic_string"* %111, i64 0, i32 0, i32 0, !llfi_index !1556
  %1124 = load i8** %1123, align 8, !tbaa !486, !llfi_index !1557
  %1125 = getelementptr inbounds i8* %1124, i64 -24, !llfi_index !1558
  %1126 = bitcast i8* %1125 to %"struct.std::basic_string<char, std::char_traits<char>, std::allocator<char> >::_Rep"*, !llfi_index !1559
  %1127 = icmp eq i8* %1125, bitcast ([0 x i64]* @_ZNSs4_Rep20_S_empty_rep_storageE to i8*), !llfi_index !1560
  br i1 %1127, label %_ZNSsD1Ev.exit171, label %1128, !prof !493, !llfi_index !1561

; <label>:1128                                    ; preds = %_ZNSsD1Ev.exit180
  %1129 = getelementptr inbounds i8* %1124, i64 -8, !llfi_index !1562
  %1130 = bitcast i8* %1129 to i32*, !llfi_index !1563
  br i1 icmp ne (i8* bitcast (i32 (i32*, void (i8*)*)* @__pthread_key_create to i8*), i8* null), label %1131, label %1135, !llfi_index !1564

; <label>:1131                                    ; preds = %1128
  %1132 = bitcast i32* %11 to i8*, !llfi_index !1565
  call void @llvm.lifetime.start(i64 4, i8* %1132), !llfi_index !1566
  %1133 = atomicrmw volatile add i32* %1130, i32 -1 acq_rel, !llfi_index !1567
  store i32 %1133, i32* %11, align 4, !llfi_index !1568
  %1134 = load volatile i32* %11, align 4, !llfi_index !1569
  call void @llvm.lifetime.end(i64 4, i8* %1132), !llfi_index !1570
  br label %_ZN9__gnu_cxxL27__exchange_and_add_dispatchEPii.exit.i.i.i173, !llfi_index !1571

; <label>:1135                                    ; preds = %1128
  %1136 = load i32* %1130, align 4, !tbaa !431, !llfi_index !1572
  %1137 = add nsw i32 %1136, -1, !llfi_index !1573
  store i32 %1137, i32* %1130, align 4, !tbaa !431, !llfi_index !1574
  br label %_ZN9__gnu_cxxL27__exchange_and_add_dispatchEPii.exit.i.i.i173, !llfi_index !1575

_ZN9__gnu_cxxL27__exchange_and_add_dispatchEPii.exit.i.i.i173: ; preds = %1135, %1131
  %.0.i.i.i.i172 = phi i32 [ %1134, %1131 ], [ %1136, %1135 ], !llfi_index !1576
  %1138 = icmp slt i32 %.0.i.i.i.i172, 1, !llfi_index !1577
  br i1 %1138, label %1139, label %_ZNSsD1Ev.exit171, !llfi_index !1578

; <label>:1139                                    ; preds = %_ZN9__gnu_cxxL27__exchange_and_add_dispatchEPii.exit.i.i.i173
  call void @_ZNSs4_Rep10_M_destroyERKSaIcE(%"struct.std::basic_string<char, std::char_traits<char>, std::allocator<char> >::_Rep"* %1126, %"class.std::allocator"* %12) #2, !llfi_index !1579
  br label %_ZNSsD1Ev.exit171, !llfi_index !1580

; <label>:1140                                    ; preds = %607
  %1141 = landingpad { i8*, i32 } personality i8* bitcast (i32 (...)* @__gxx_personality_v0 to i8*)
          cleanup, !llfi_index !1581
  %1142 = extractvalue { i8*, i32 } %1141, 0, !llfi_index !1582
  %1143 = extractvalue { i8*, i32 } %1141, 1, !llfi_index !1583
  br label %_ZNSsD1Ev.exit171, !llfi_index !1584

; <label>:1144                                    ; preds = %608
  %1145 = landingpad { i8*, i32 } personality i8* bitcast (i32 (...)* @__gxx_personality_v0 to i8*)
          cleanup, !llfi_index !1585
  %1146 = extractvalue { i8*, i32 } %1145, 0, !llfi_index !1586
  %1147 = extractvalue { i8*, i32 } %1145, 1, !llfi_index !1587
  br label %_ZNSsD1Ev.exit168, !llfi_index !1588

; <label>:1148                                    ; preds = %609
  %1149 = landingpad { i8*, i32 } personality i8* bitcast (i32 (...)* @__gxx_personality_v0 to i8*)
          cleanup, !llfi_index !1589
  %1150 = extractvalue { i8*, i32 } %1149, 0, !llfi_index !1590
  %1151 = extractvalue { i8*, i32 } %1149, 1, !llfi_index !1591
  %1152 = getelementptr inbounds %"class.std::allocator"* %16, i64 0, i32 0, !llfi_index !1592
  call void @llvm.lifetime.start(i64 1, i8* %1152), !llfi_index !1593
  %1153 = getelementptr inbounds %"class.std::basic_string"* %119, i64 0, i32 0, i32 0, !llfi_index !1594
  %1154 = load i8** %1153, align 8, !tbaa !486, !llfi_index !1595
  %1155 = getelementptr inbounds i8* %1154, i64 -24, !llfi_index !1596
  %1156 = bitcast i8* %1155 to %"struct.std::basic_string<char, std::char_traits<char>, std::allocator<char> >::_Rep"*, !llfi_index !1597
  %1157 = icmp eq i8* %1155, bitcast ([0 x i64]* @_ZNSs4_Rep20_S_empty_rep_storageE to i8*), !llfi_index !1598
  br i1 %1157, label %_ZNSsD1Ev.exit168, label %1158, !prof !493, !llfi_index !1599

; <label>:1158                                    ; preds = %1148
  %1159 = getelementptr inbounds i8* %1154, i64 -8, !llfi_index !1600
  %1160 = bitcast i8* %1159 to i32*, !llfi_index !1601
  br i1 icmp ne (i8* bitcast (i32 (i32*, void (i8*)*)* @__pthread_key_create to i8*), i8* null), label %1161, label %1165, !llfi_index !1602

; <label>:1161                                    ; preds = %1158
  %1162 = bitcast i32* %15 to i8*, !llfi_index !1603
  call void @llvm.lifetime.start(i64 4, i8* %1162), !llfi_index !1604
  %1163 = atomicrmw volatile add i32* %1160, i32 -1 acq_rel, !llfi_index !1605
  store i32 %1163, i32* %15, align 4, !llfi_index !1606
  %1164 = load volatile i32* %15, align 4, !llfi_index !1607
  call void @llvm.lifetime.end(i64 4, i8* %1162), !llfi_index !1608
  br label %_ZN9__gnu_cxxL27__exchange_and_add_dispatchEPii.exit.i.i.i167, !llfi_index !1609

; <label>:1165                                    ; preds = %1158
  %1166 = load i32* %1160, align 4, !tbaa !431, !llfi_index !1610
  %1167 = add nsw i32 %1166, -1, !llfi_index !1611
  store i32 %1167, i32* %1160, align 4, !tbaa !431, !llfi_index !1612
  br label %_ZN9__gnu_cxxL27__exchange_and_add_dispatchEPii.exit.i.i.i167, !llfi_index !1613

_ZN9__gnu_cxxL27__exchange_and_add_dispatchEPii.exit.i.i.i167: ; preds = %1165, %1161
  %.0.i.i.i.i166 = phi i32 [ %1164, %1161 ], [ %1166, %1165 ], !llfi_index !1614
  %1168 = icmp slt i32 %.0.i.i.i.i166, 1, !llfi_index !1615
  br i1 %1168, label %1169, label %_ZNSsD1Ev.exit168, !llfi_index !1616

; <label>:1169                                    ; preds = %_ZN9__gnu_cxxL27__exchange_and_add_dispatchEPii.exit.i.i.i167
  call void @_ZNSs4_Rep10_M_destroyERKSaIcE(%"struct.std::basic_string<char, std::char_traits<char>, std::allocator<char> >::_Rep"* %1156, %"class.std::allocator"* %16) #2, !llfi_index !1617
  br label %_ZNSsD1Ev.exit168, !llfi_index !1618

_ZNSsD1Ev.exit168:                                ; preds = %1169, %_ZN9__gnu_cxxL27__exchange_and_add_dispatchEPii.exit.i.i.i167, %1148, %1144
  %.1423 = phi i8* [ %1146, %1144 ], [ %1150, %1148 ], [ %1150, %_ZN9__gnu_cxxL27__exchange_and_add_dispatchEPii.exit.i.i.i167 ], [ %1150, %1169 ], !llfi_index !1619
  %.14 = phi i32 [ %1147, %1144 ], [ %1151, %1148 ], [ %1151, %_ZN9__gnu_cxxL27__exchange_and_add_dispatchEPii.exit.i.i.i167 ], [ %1151, %1169 ], !llfi_index !1620
  %1170 = getelementptr inbounds %"class.std::allocator"* %20, i64 0, i32 0, !llfi_index !1621
  call void @llvm.lifetime.start(i64 1, i8* %1170), !llfi_index !1622
  %1171 = getelementptr inbounds %"class.std::basic_string"* %117, i64 0, i32 0, i32 0, !llfi_index !1623
  %1172 = load i8** %1171, align 8, !tbaa !486, !llfi_index !1624
  %1173 = getelementptr inbounds i8* %1172, i64 -24, !llfi_index !1625
  %1174 = bitcast i8* %1173 to %"struct.std::basic_string<char, std::char_traits<char>, std::allocator<char> >::_Rep"*, !llfi_index !1626
  %1175 = icmp eq i8* %1173, bitcast ([0 x i64]* @_ZNSs4_Rep20_S_empty_rep_storageE to i8*), !llfi_index !1627
  br i1 %1175, label %_ZNSsD1Ev.exit171, label %1176, !prof !493, !llfi_index !1628

; <label>:1176                                    ; preds = %_ZNSsD1Ev.exit168
  %1177 = getelementptr inbounds i8* %1172, i64 -8, !llfi_index !1629
  %1178 = bitcast i8* %1177 to i32*, !llfi_index !1630
  br i1 icmp ne (i8* bitcast (i32 (i32*, void (i8*)*)* @__pthread_key_create to i8*), i8* null), label %1179, label %1183, !llfi_index !1631

; <label>:1179                                    ; preds = %1176
  %1180 = bitcast i32* %19 to i8*, !llfi_index !1632
  call void @llvm.lifetime.start(i64 4, i8* %1180), !llfi_index !1633
  %1181 = atomicrmw volatile add i32* %1178, i32 -1 acq_rel, !llfi_index !1634
  store i32 %1181, i32* %19, align 4, !llfi_index !1635
  %1182 = load volatile i32* %19, align 4, !llfi_index !1636
  call void @llvm.lifetime.end(i64 4, i8* %1180), !llfi_index !1637
  br label %_ZN9__gnu_cxxL27__exchange_and_add_dispatchEPii.exit.i.i.i161, !llfi_index !1638

; <label>:1183                                    ; preds = %1176
  %1184 = load i32* %1178, align 4, !tbaa !431, !llfi_index !1639
  %1185 = add nsw i32 %1184, -1, !llfi_index !1640
  store i32 %1185, i32* %1178, align 4, !tbaa !431, !llfi_index !1641
  br label %_ZN9__gnu_cxxL27__exchange_and_add_dispatchEPii.exit.i.i.i161, !llfi_index !1642

_ZN9__gnu_cxxL27__exchange_and_add_dispatchEPii.exit.i.i.i161: ; preds = %1183, %1179
  %.0.i.i.i.i160 = phi i32 [ %1182, %1179 ], [ %1184, %1183 ], !llfi_index !1643
  %1186 = icmp slt i32 %.0.i.i.i.i160, 1, !llfi_index !1644
  br i1 %1186, label %1187, label %_ZNSsD1Ev.exit171, !llfi_index !1645

; <label>:1187                                    ; preds = %_ZN9__gnu_cxxL27__exchange_and_add_dispatchEPii.exit.i.i.i161
  call void @_ZNSs4_Rep10_M_destroyERKSaIcE(%"struct.std::basic_string<char, std::char_traits<char>, std::allocator<char> >::_Rep"* %1174, %"class.std::allocator"* %20) #2, !llfi_index !1646
  br label %_ZNSsD1Ev.exit171, !llfi_index !1647

; <label>:1188                                    ; preds = %649
  %1189 = landingpad { i8*, i32 } personality i8* bitcast (i32 (...)* @__gxx_personality_v0 to i8*)
          cleanup, !llfi_index !1648
  %1190 = extractvalue { i8*, i32 } %1189, 0, !llfi_index !1649
  %1191 = extractvalue { i8*, i32 } %1189, 1, !llfi_index !1650
  br label %_ZNSsD1Ev.exit171, !llfi_index !1651

; <label>:1192                                    ; preds = %650
  %1193 = landingpad { i8*, i32 } personality i8* bitcast (i32 (...)* @__gxx_personality_v0 to i8*)
          cleanup, !llfi_index !1652
  %1194 = extractvalue { i8*, i32 } %1193, 0, !llfi_index !1653
  %1195 = extractvalue { i8*, i32 } %1193, 1, !llfi_index !1654
  br label %_ZNSsD1Ev.exit156, !llfi_index !1655

; <label>:1196                                    ; preds = %652
  %1197 = landingpad { i8*, i32 } personality i8* bitcast (i32 (...)* @__gxx_personality_v0 to i8*)
          cleanup, !llfi_index !1656
  %1198 = extractvalue { i8*, i32 } %1197, 0, !llfi_index !1657
  %1199 = extractvalue { i8*, i32 } %1197, 1, !llfi_index !1658
  br label %_ZNSsD1Ev.exit156, !llfi_index !1659

; <label>:1200                                    ; preds = %653
  %1201 = landingpad { i8*, i32 } personality i8* bitcast (i32 (...)* @__gxx_personality_v0 to i8*)
          cleanup, !llfi_index !1660
  %1202 = extractvalue { i8*, i32 } %1201, 0, !llfi_index !1661
  %1203 = extractvalue { i8*, i32 } %1201, 1, !llfi_index !1662
  %1204 = getelementptr inbounds %"class.std::allocator"* %24, i64 0, i32 0, !llfi_index !1663
  call void @llvm.lifetime.start(i64 1, i8* %1204), !llfi_index !1664
  %1205 = getelementptr inbounds %"class.std::basic_string"* %123, i64 0, i32 0, i32 0, !llfi_index !1665
  %1206 = load i8** %1205, align 8, !tbaa !486, !llfi_index !1666
  %1207 = getelementptr inbounds i8* %1206, i64 -24, !llfi_index !1667
  %1208 = bitcast i8* %1207 to %"struct.std::basic_string<char, std::char_traits<char>, std::allocator<char> >::_Rep"*, !llfi_index !1668
  %1209 = icmp eq i8* %1207, bitcast ([0 x i64]* @_ZNSs4_Rep20_S_empty_rep_storageE to i8*), !llfi_index !1669
  br i1 %1209, label %_ZNSsD1Ev.exit156, label %1210, !prof !493, !llfi_index !1670

; <label>:1210                                    ; preds = %1200
  %1211 = getelementptr inbounds i8* %1206, i64 -8, !llfi_index !1671
  %1212 = bitcast i8* %1211 to i32*, !llfi_index !1672
  br i1 icmp ne (i8* bitcast (i32 (i32*, void (i8*)*)* @__pthread_key_create to i8*), i8* null), label %1213, label %1217, !llfi_index !1673

; <label>:1213                                    ; preds = %1210
  %1214 = bitcast i32* %23 to i8*, !llfi_index !1674
  call void @llvm.lifetime.start(i64 4, i8* %1214), !llfi_index !1675
  %1215 = atomicrmw volatile add i32* %1212, i32 -1 acq_rel, !llfi_index !1676
  store i32 %1215, i32* %23, align 4, !llfi_index !1677
  %1216 = load volatile i32* %23, align 4, !llfi_index !1678
  call void @llvm.lifetime.end(i64 4, i8* %1214), !llfi_index !1679
  br label %_ZN9__gnu_cxxL27__exchange_and_add_dispatchEPii.exit.i.i.i155, !llfi_index !1680

; <label>:1217                                    ; preds = %1210
  %1218 = load i32* %1212, align 4, !tbaa !431, !llfi_index !1681
  %1219 = add nsw i32 %1218, -1, !llfi_index !1682
  store i32 %1219, i32* %1212, align 4, !tbaa !431, !llfi_index !1683
  br label %_ZN9__gnu_cxxL27__exchange_and_add_dispatchEPii.exit.i.i.i155, !llfi_index !1684

_ZN9__gnu_cxxL27__exchange_and_add_dispatchEPii.exit.i.i.i155: ; preds = %1217, %1213
  %.0.i.i.i.i154 = phi i32 [ %1216, %1213 ], [ %1218, %1217 ], !llfi_index !1685
  %1220 = icmp slt i32 %.0.i.i.i.i154, 1, !llfi_index !1686
  br i1 %1220, label %1221, label %_ZNSsD1Ev.exit156, !llfi_index !1687

; <label>:1221                                    ; preds = %_ZN9__gnu_cxxL27__exchange_and_add_dispatchEPii.exit.i.i.i155
  call void @_ZNSs4_Rep10_M_destroyERKSaIcE(%"struct.std::basic_string<char, std::char_traits<char>, std::allocator<char> >::_Rep"* %1208, %"class.std::allocator"* %24) #2, !llfi_index !1688
  br label %_ZNSsD1Ev.exit156, !llfi_index !1689

_ZNSsD1Ev.exit156:                                ; preds = %1221, %_ZN9__gnu_cxxL27__exchange_and_add_dispatchEPii.exit.i.i.i155, %1200, %1196, %1192
  %.1726 = phi i8* [ %1194, %1192 ], [ %1198, %1196 ], [ %1202, %1200 ], [ %1202, %_ZN9__gnu_cxxL27__exchange_and_add_dispatchEPii.exit.i.i.i155 ], [ %1202, %1221 ], !llfi_index !1690
  %.17 = phi i32 [ %1195, %1192 ], [ %1199, %1196 ], [ %1203, %1200 ], [ %1203, %_ZN9__gnu_cxxL27__exchange_and_add_dispatchEPii.exit.i.i.i155 ], [ %1203, %1221 ], !llfi_index !1691
  %1222 = getelementptr inbounds %"class.std::allocator"* %28, i64 0, i32 0, !llfi_index !1692
  call void @llvm.lifetime.start(i64 1, i8* %1222), !llfi_index !1693
  %1223 = getelementptr inbounds %"class.std::basic_string"* %121, i64 0, i32 0, i32 0, !llfi_index !1694
  %1224 = load i8** %1223, align 8, !tbaa !486, !llfi_index !1695
  %1225 = getelementptr inbounds i8* %1224, i64 -24, !llfi_index !1696
  %1226 = bitcast i8* %1225 to %"struct.std::basic_string<char, std::char_traits<char>, std::allocator<char> >::_Rep"*, !llfi_index !1697
  %1227 = icmp eq i8* %1225, bitcast ([0 x i64]* @_ZNSs4_Rep20_S_empty_rep_storageE to i8*), !llfi_index !1698
  br i1 %1227, label %_ZNSsD1Ev.exit171, label %1228, !prof !493, !llfi_index !1699

; <label>:1228                                    ; preds = %_ZNSsD1Ev.exit156
  %1229 = getelementptr inbounds i8* %1224, i64 -8, !llfi_index !1700
  %1230 = bitcast i8* %1229 to i32*, !llfi_index !1701
  br i1 icmp ne (i8* bitcast (i32 (i32*, void (i8*)*)* @__pthread_key_create to i8*), i8* null), label %1231, label %1235, !llfi_index !1702

; <label>:1231                                    ; preds = %1228
  %1232 = bitcast i32* %27 to i8*, !llfi_index !1703
  call void @llvm.lifetime.start(i64 4, i8* %1232), !llfi_index !1704
  %1233 = atomicrmw volatile add i32* %1230, i32 -1 acq_rel, !llfi_index !1705
  store i32 %1233, i32* %27, align 4, !llfi_index !1706
  %1234 = load volatile i32* %27, align 4, !llfi_index !1707
  call void @llvm.lifetime.end(i64 4, i8* %1232), !llfi_index !1708
  br label %_ZN9__gnu_cxxL27__exchange_and_add_dispatchEPii.exit.i.i.i149, !llfi_index !1709

; <label>:1235                                    ; preds = %1228
  %1236 = load i32* %1230, align 4, !tbaa !431, !llfi_index !1710
  %1237 = add nsw i32 %1236, -1, !llfi_index !1711
  store i32 %1237, i32* %1230, align 4, !tbaa !431, !llfi_index !1712
  br label %_ZN9__gnu_cxxL27__exchange_and_add_dispatchEPii.exit.i.i.i149, !llfi_index !1713

_ZN9__gnu_cxxL27__exchange_and_add_dispatchEPii.exit.i.i.i149: ; preds = %1235, %1231
  %.0.i.i.i.i148 = phi i32 [ %1234, %1231 ], [ %1236, %1235 ], !llfi_index !1714
  %1238 = icmp slt i32 %.0.i.i.i.i148, 1, !llfi_index !1715
  br i1 %1238, label %1239, label %_ZNSsD1Ev.exit171, !llfi_index !1716

; <label>:1239                                    ; preds = %_ZN9__gnu_cxxL27__exchange_and_add_dispatchEPii.exit.i.i.i149
  call void @_ZNSs4_Rep10_M_destroyERKSaIcE(%"struct.std::basic_string<char, std::char_traits<char>, std::allocator<char> >::_Rep"* %1226, %"class.std::allocator"* %28) #2, !llfi_index !1717
  br label %_ZNSsD1Ev.exit171, !llfi_index !1718

; <label>:1240                                    ; preds = %693
  %1241 = landingpad { i8*, i32 } personality i8* bitcast (i32 (...)* @__gxx_personality_v0 to i8*)
          cleanup, !llfi_index !1719
  %1242 = extractvalue { i8*, i32 } %1241, 0, !llfi_index !1720
  %1243 = extractvalue { i8*, i32 } %1241, 1, !llfi_index !1721
  br label %_ZNSsD1Ev.exit171, !llfi_index !1722

; <label>:1244                                    ; preds = %694
  %1245 = landingpad { i8*, i32 } personality i8* bitcast (i32 (...)* @__gxx_personality_v0 to i8*)
          cleanup, !llfi_index !1723
  %1246 = extractvalue { i8*, i32 } %1245, 0, !llfi_index !1724
  %1247 = extractvalue { i8*, i32 } %1245, 1, !llfi_index !1725
  br label %_ZNSsD1Ev.exit144, !llfi_index !1726

; <label>:1248                                    ; preds = %696
  %1249 = landingpad { i8*, i32 } personality i8* bitcast (i32 (...)* @__gxx_personality_v0 to i8*)
          cleanup, !llfi_index !1727
  %1250 = extractvalue { i8*, i32 } %1249, 0, !llfi_index !1728
  %1251 = extractvalue { i8*, i32 } %1249, 1, !llfi_index !1729
  br label %_ZNSsD1Ev.exit144, !llfi_index !1730

; <label>:1252                                    ; preds = %697
  %1253 = landingpad { i8*, i32 } personality i8* bitcast (i32 (...)* @__gxx_personality_v0 to i8*)
          cleanup, !llfi_index !1731
  %1254 = extractvalue { i8*, i32 } %1253, 0, !llfi_index !1732
  %1255 = extractvalue { i8*, i32 } %1253, 1, !llfi_index !1733
  %1256 = getelementptr inbounds %"class.std::allocator"* %32, i64 0, i32 0, !llfi_index !1734
  call void @llvm.lifetime.start(i64 1, i8* %1256), !llfi_index !1735
  %1257 = getelementptr inbounds %"class.std::basic_string"* %127, i64 0, i32 0, i32 0, !llfi_index !1736
  %1258 = load i8** %1257, align 8, !tbaa !486, !llfi_index !1737
  %1259 = getelementptr inbounds i8* %1258, i64 -24, !llfi_index !1738
  %1260 = bitcast i8* %1259 to %"struct.std::basic_string<char, std::char_traits<char>, std::allocator<char> >::_Rep"*, !llfi_index !1739
  %1261 = icmp eq i8* %1259, bitcast ([0 x i64]* @_ZNSs4_Rep20_S_empty_rep_storageE to i8*), !llfi_index !1740
  br i1 %1261, label %_ZNSsD1Ev.exit144, label %1262, !prof !493, !llfi_index !1741

; <label>:1262                                    ; preds = %1252
  %1263 = getelementptr inbounds i8* %1258, i64 -8, !llfi_index !1742
  %1264 = bitcast i8* %1263 to i32*, !llfi_index !1743
  br i1 icmp ne (i8* bitcast (i32 (i32*, void (i8*)*)* @__pthread_key_create to i8*), i8* null), label %1265, label %1269, !llfi_index !1744

; <label>:1265                                    ; preds = %1262
  %1266 = bitcast i32* %31 to i8*, !llfi_index !1745
  call void @llvm.lifetime.start(i64 4, i8* %1266), !llfi_index !1746
  %1267 = atomicrmw volatile add i32* %1264, i32 -1 acq_rel, !llfi_index !1747
  store i32 %1267, i32* %31, align 4, !llfi_index !1748
  %1268 = load volatile i32* %31, align 4, !llfi_index !1749
  call void @llvm.lifetime.end(i64 4, i8* %1266), !llfi_index !1750
  br label %_ZN9__gnu_cxxL27__exchange_and_add_dispatchEPii.exit.i.i.i143, !llfi_index !1751

; <label>:1269                                    ; preds = %1262
  %1270 = load i32* %1264, align 4, !tbaa !431, !llfi_index !1752
  %1271 = add nsw i32 %1270, -1, !llfi_index !1753
  store i32 %1271, i32* %1264, align 4, !tbaa !431, !llfi_index !1754
  br label %_ZN9__gnu_cxxL27__exchange_and_add_dispatchEPii.exit.i.i.i143, !llfi_index !1755

_ZN9__gnu_cxxL27__exchange_and_add_dispatchEPii.exit.i.i.i143: ; preds = %1269, %1265
  %.0.i.i.i.i142 = phi i32 [ %1268, %1265 ], [ %1270, %1269 ], !llfi_index !1756
  %1272 = icmp slt i32 %.0.i.i.i.i142, 1, !llfi_index !1757
  br i1 %1272, label %1273, label %_ZNSsD1Ev.exit144, !llfi_index !1758

; <label>:1273                                    ; preds = %_ZN9__gnu_cxxL27__exchange_and_add_dispatchEPii.exit.i.i.i143
  call void @_ZNSs4_Rep10_M_destroyERKSaIcE(%"struct.std::basic_string<char, std::char_traits<char>, std::allocator<char> >::_Rep"* %1260, %"class.std::allocator"* %32) #2, !llfi_index !1759
  br label %_ZNSsD1Ev.exit144, !llfi_index !1760

_ZNSsD1Ev.exit144:                                ; preds = %1273, %_ZN9__gnu_cxxL27__exchange_and_add_dispatchEPii.exit.i.i.i143, %1252, %1248, %1244
  %.2029 = phi i8* [ %1246, %1244 ], [ %1250, %1248 ], [ %1254, %1252 ], [ %1254, %_ZN9__gnu_cxxL27__exchange_and_add_dispatchEPii.exit.i.i.i143 ], [ %1254, %1273 ], !llfi_index !1761
  %.20 = phi i32 [ %1247, %1244 ], [ %1251, %1248 ], [ %1255, %1252 ], [ %1255, %_ZN9__gnu_cxxL27__exchange_and_add_dispatchEPii.exit.i.i.i143 ], [ %1255, %1273 ], !llfi_index !1762
  %1274 = getelementptr inbounds %"class.std::allocator"* %38, i64 0, i32 0, !llfi_index !1763
  call void @llvm.lifetime.start(i64 1, i8* %1274), !llfi_index !1764
  %1275 = getelementptr inbounds %"class.std::basic_string"* %125, i64 0, i32 0, i32 0, !llfi_index !1765
  %1276 = load i8** %1275, align 8, !tbaa !486, !llfi_index !1766
  %1277 = getelementptr inbounds i8* %1276, i64 -24, !llfi_index !1767
  %1278 = bitcast i8* %1277 to %"struct.std::basic_string<char, std::char_traits<char>, std::allocator<char> >::_Rep"*, !llfi_index !1768
  %1279 = icmp eq i8* %1277, bitcast ([0 x i64]* @_ZNSs4_Rep20_S_empty_rep_storageE to i8*), !llfi_index !1769
  br i1 %1279, label %_ZNSsD1Ev.exit171, label %1280, !prof !493, !llfi_index !1770

; <label>:1280                                    ; preds = %_ZNSsD1Ev.exit144
  %1281 = getelementptr inbounds i8* %1276, i64 -8, !llfi_index !1771
  %1282 = bitcast i8* %1281 to i32*, !llfi_index !1772
  br i1 icmp ne (i8* bitcast (i32 (i32*, void (i8*)*)* @__pthread_key_create to i8*), i8* null), label %1283, label %1287, !llfi_index !1773

; <label>:1283                                    ; preds = %1280
  %1284 = bitcast i32* %37 to i8*, !llfi_index !1774
  call void @llvm.lifetime.start(i64 4, i8* %1284), !llfi_index !1775
  %1285 = atomicrmw volatile add i32* %1282, i32 -1 acq_rel, !llfi_index !1776
  store i32 %1285, i32* %37, align 4, !llfi_index !1777
  %1286 = load volatile i32* %37, align 4, !llfi_index !1778
  call void @llvm.lifetime.end(i64 4, i8* %1284), !llfi_index !1779
  br label %_ZN9__gnu_cxxL27__exchange_and_add_dispatchEPii.exit.i.i.i134, !llfi_index !1780

; <label>:1287                                    ; preds = %1280
  %1288 = load i32* %1282, align 4, !tbaa !431, !llfi_index !1781
  %1289 = add nsw i32 %1288, -1, !llfi_index !1782
  store i32 %1289, i32* %1282, align 4, !tbaa !431, !llfi_index !1783
  br label %_ZN9__gnu_cxxL27__exchange_and_add_dispatchEPii.exit.i.i.i134, !llfi_index !1784

_ZN9__gnu_cxxL27__exchange_and_add_dispatchEPii.exit.i.i.i134: ; preds = %1287, %1283
  %.0.i.i.i.i133 = phi i32 [ %1286, %1283 ], [ %1288, %1287 ], !llfi_index !1785
  %1290 = icmp slt i32 %.0.i.i.i.i133, 1, !llfi_index !1786
  br i1 %1290, label %1291, label %_ZNSsD1Ev.exit171, !llfi_index !1787

; <label>:1291                                    ; preds = %_ZN9__gnu_cxxL27__exchange_and_add_dispatchEPii.exit.i.i.i134
  call void @_ZNSs4_Rep10_M_destroyERKSaIcE(%"struct.std::basic_string<char, std::char_traits<char>, std::allocator<char> >::_Rep"* %1278, %"class.std::allocator"* %38) #2, !llfi_index !1788
  br label %_ZNSsD1Ev.exit171, !llfi_index !1789

; <label>:1292                                    ; preds = %737
  %1293 = landingpad { i8*, i32 } personality i8* bitcast (i32 (...)* @__gxx_personality_v0 to i8*)
          cleanup, !llfi_index !1790
  %1294 = extractvalue { i8*, i32 } %1293, 0, !llfi_index !1791
  %1295 = extractvalue { i8*, i32 } %1293, 1, !llfi_index !1792
  br label %_ZNSsD1Ev.exit171, !llfi_index !1793

; <label>:1296                                    ; preds = %738
  %1297 = landingpad { i8*, i32 } personality i8* bitcast (i32 (...)* @__gxx_personality_v0 to i8*)
          cleanup, !llfi_index !1794
  %1298 = extractvalue { i8*, i32 } %1297, 0, !llfi_index !1795
  %1299 = extractvalue { i8*, i32 } %1297, 1, !llfi_index !1796
  br label %_ZNSsD1Ev.exit129, !llfi_index !1797

; <label>:1300                                    ; preds = %740
  %1301 = landingpad { i8*, i32 } personality i8* bitcast (i32 (...)* @__gxx_personality_v0 to i8*)
          cleanup, !llfi_index !1798
  %1302 = extractvalue { i8*, i32 } %1301, 0, !llfi_index !1799
  %1303 = extractvalue { i8*, i32 } %1301, 1, !llfi_index !1800
  br label %_ZNSsD1Ev.exit129, !llfi_index !1801

; <label>:1304                                    ; preds = %741
  %1305 = landingpad { i8*, i32 } personality i8* bitcast (i32 (...)* @__gxx_personality_v0 to i8*)
          cleanup, !llfi_index !1802
  %1306 = extractvalue { i8*, i32 } %1305, 0, !llfi_index !1803
  %1307 = extractvalue { i8*, i32 } %1305, 1, !llfi_index !1804
  %1308 = getelementptr inbounds %"class.std::allocator"* %42, i64 0, i32 0, !llfi_index !1805
  call void @llvm.lifetime.start(i64 1, i8* %1308), !llfi_index !1806
  %1309 = getelementptr inbounds %"class.std::basic_string"* %131, i64 0, i32 0, i32 0, !llfi_index !1807
  %1310 = load i8** %1309, align 8, !tbaa !486, !llfi_index !1808
  %1311 = getelementptr inbounds i8* %1310, i64 -24, !llfi_index !1809
  %1312 = bitcast i8* %1311 to %"struct.std::basic_string<char, std::char_traits<char>, std::allocator<char> >::_Rep"*, !llfi_index !1810
  %1313 = icmp eq i8* %1311, bitcast ([0 x i64]* @_ZNSs4_Rep20_S_empty_rep_storageE to i8*), !llfi_index !1811
  br i1 %1313, label %_ZNSsD1Ev.exit129, label %1314, !prof !493, !llfi_index !1812

; <label>:1314                                    ; preds = %1304
  %1315 = getelementptr inbounds i8* %1310, i64 -8, !llfi_index !1813
  %1316 = bitcast i8* %1315 to i32*, !llfi_index !1814
  br i1 icmp ne (i8* bitcast (i32 (i32*, void (i8*)*)* @__pthread_key_create to i8*), i8* null), label %1317, label %1321, !llfi_index !1815

; <label>:1317                                    ; preds = %1314
  %1318 = bitcast i32* %41 to i8*, !llfi_index !1816
  call void @llvm.lifetime.start(i64 4, i8* %1318), !llfi_index !1817
  %1319 = atomicrmw volatile add i32* %1316, i32 -1 acq_rel, !llfi_index !1818
  store i32 %1319, i32* %41, align 4, !llfi_index !1819
  %1320 = load volatile i32* %41, align 4, !llfi_index !1820
  call void @llvm.lifetime.end(i64 4, i8* %1318), !llfi_index !1821
  br label %_ZN9__gnu_cxxL27__exchange_and_add_dispatchEPii.exit.i.i.i128, !llfi_index !1822

; <label>:1321                                    ; preds = %1314
  %1322 = load i32* %1316, align 4, !tbaa !431, !llfi_index !1823
  %1323 = add nsw i32 %1322, -1, !llfi_index !1824
  store i32 %1323, i32* %1316, align 4, !tbaa !431, !llfi_index !1825
  br label %_ZN9__gnu_cxxL27__exchange_and_add_dispatchEPii.exit.i.i.i128, !llfi_index !1826

_ZN9__gnu_cxxL27__exchange_and_add_dispatchEPii.exit.i.i.i128: ; preds = %1321, %1317
  %.0.i.i.i.i127 = phi i32 [ %1320, %1317 ], [ %1322, %1321 ], !llfi_index !1827
  %1324 = icmp slt i32 %.0.i.i.i.i127, 1, !llfi_index !1828
  br i1 %1324, label %1325, label %_ZNSsD1Ev.exit129, !llfi_index !1829

; <label>:1325                                    ; preds = %_ZN9__gnu_cxxL27__exchange_and_add_dispatchEPii.exit.i.i.i128
  call void @_ZNSs4_Rep10_M_destroyERKSaIcE(%"struct.std::basic_string<char, std::char_traits<char>, std::allocator<char> >::_Rep"* %1312, %"class.std::allocator"* %42) #2, !llfi_index !1830
  br label %_ZNSsD1Ev.exit129, !llfi_index !1831

_ZNSsD1Ev.exit129:                                ; preds = %1325, %_ZN9__gnu_cxxL27__exchange_and_add_dispatchEPii.exit.i.i.i128, %1304, %1300, %1296
  %.2332 = phi i8* [ %1298, %1296 ], [ %1302, %1300 ], [ %1306, %1304 ], [ %1306, %_ZN9__gnu_cxxL27__exchange_and_add_dispatchEPii.exit.i.i.i128 ], [ %1306, %1325 ], !llfi_index !1832
  %.23 = phi i32 [ %1299, %1296 ], [ %1303, %1300 ], [ %1307, %1304 ], [ %1307, %_ZN9__gnu_cxxL27__exchange_and_add_dispatchEPii.exit.i.i.i128 ], [ %1307, %1325 ], !llfi_index !1833
  %1326 = getelementptr inbounds %"class.std::allocator"* %44, i64 0, i32 0, !llfi_index !1834
  call void @llvm.lifetime.start(i64 1, i8* %1326), !llfi_index !1835
  %1327 = getelementptr inbounds %"class.std::basic_string"* %129, i64 0, i32 0, i32 0, !llfi_index !1836
  %1328 = load i8** %1327, align 8, !tbaa !486, !llfi_index !1837
  %1329 = getelementptr inbounds i8* %1328, i64 -24, !llfi_index !1838
  %1330 = bitcast i8* %1329 to %"struct.std::basic_string<char, std::char_traits<char>, std::allocator<char> >::_Rep"*, !llfi_index !1839
  %1331 = icmp eq i8* %1329, bitcast ([0 x i64]* @_ZNSs4_Rep20_S_empty_rep_storageE to i8*), !llfi_index !1840
  br i1 %1331, label %_ZNSsD1Ev.exit171, label %1332, !prof !493, !llfi_index !1841

; <label>:1332                                    ; preds = %_ZNSsD1Ev.exit129
  %1333 = getelementptr inbounds i8* %1328, i64 -8, !llfi_index !1842
  %1334 = bitcast i8* %1333 to i32*, !llfi_index !1843
  br i1 icmp ne (i8* bitcast (i32 (i32*, void (i8*)*)* @__pthread_key_create to i8*), i8* null), label %1335, label %1339, !llfi_index !1844

; <label>:1335                                    ; preds = %1332
  %1336 = bitcast i32* %43 to i8*, !llfi_index !1845
  call void @llvm.lifetime.start(i64 4, i8* %1336), !llfi_index !1846
  %1337 = atomicrmw volatile add i32* %1334, i32 -1 acq_rel, !llfi_index !1847
  store i32 %1337, i32* %43, align 4, !llfi_index !1848
  %1338 = load volatile i32* %43, align 4, !llfi_index !1849
  call void @llvm.lifetime.end(i64 4, i8* %1336), !llfi_index !1850
  br label %_ZN9__gnu_cxxL27__exchange_and_add_dispatchEPii.exit.i.i.i125, !llfi_index !1851

; <label>:1339                                    ; preds = %1332
  %1340 = load i32* %1334, align 4, !tbaa !431, !llfi_index !1852
  %1341 = add nsw i32 %1340, -1, !llfi_index !1853
  store i32 %1341, i32* %1334, align 4, !tbaa !431, !llfi_index !1854
  br label %_ZN9__gnu_cxxL27__exchange_and_add_dispatchEPii.exit.i.i.i125, !llfi_index !1855

_ZN9__gnu_cxxL27__exchange_and_add_dispatchEPii.exit.i.i.i125: ; preds = %1339, %1335
  %.0.i.i.i.i124 = phi i32 [ %1338, %1335 ], [ %1340, %1339 ], !llfi_index !1856
  %1342 = icmp slt i32 %.0.i.i.i.i124, 1, !llfi_index !1857
  br i1 %1342, label %1343, label %_ZNSsD1Ev.exit171, !llfi_index !1858

; <label>:1343                                    ; preds = %_ZN9__gnu_cxxL27__exchange_and_add_dispatchEPii.exit.i.i.i125
  call void @_ZNSs4_Rep10_M_destroyERKSaIcE(%"struct.std::basic_string<char, std::char_traits<char>, std::allocator<char> >::_Rep"* %1330, %"class.std::allocator"* %44) #2, !llfi_index !1859
  br label %_ZNSsD1Ev.exit171, !llfi_index !1860

; <label>:1344                                    ; preds = %781
  %1345 = landingpad { i8*, i32 } personality i8* bitcast (i32 (...)* @__gxx_personality_v0 to i8*)
          cleanup, !llfi_index !1861
  %1346 = extractvalue { i8*, i32 } %1345, 0, !llfi_index !1862
  %1347 = extractvalue { i8*, i32 } %1345, 1, !llfi_index !1863
  br label %_ZNSsD1Ev.exit171, !llfi_index !1864

; <label>:1348                                    ; preds = %782
  %1349 = landingpad { i8*, i32 } personality i8* bitcast (i32 (...)* @__gxx_personality_v0 to i8*)
          cleanup, !llfi_index !1865
  %1350 = extractvalue { i8*, i32 } %1349, 0, !llfi_index !1866
  %1351 = extractvalue { i8*, i32 } %1349, 1, !llfi_index !1867
  %1352 = getelementptr inbounds %"class.std::allocator"* %48, i64 0, i32 0, !llfi_index !1868
  call void @llvm.lifetime.start(i64 1, i8* %1352), !llfi_index !1869
  %1353 = getelementptr inbounds %"class.std::basic_string"* %133, i64 0, i32 0, i32 0, !llfi_index !1870
  %1354 = load i8** %1353, align 8, !tbaa !486, !llfi_index !1871
  %1355 = getelementptr inbounds i8* %1354, i64 -24, !llfi_index !1872
  %1356 = bitcast i8* %1355 to %"struct.std::basic_string<char, std::char_traits<char>, std::allocator<char> >::_Rep"*, !llfi_index !1873
  %1357 = icmp eq i8* %1355, bitcast ([0 x i64]* @_ZNSs4_Rep20_S_empty_rep_storageE to i8*), !llfi_index !1874
  br i1 %1357, label %_ZNSsD1Ev.exit171, label %1358, !prof !493, !llfi_index !1875

; <label>:1358                                    ; preds = %1348
  %1359 = getelementptr inbounds i8* %1354, i64 -8, !llfi_index !1876
  %1360 = bitcast i8* %1359 to i32*, !llfi_index !1877
  br i1 icmp ne (i8* bitcast (i32 (i32*, void (i8*)*)* @__pthread_key_create to i8*), i8* null), label %1361, label %1365, !llfi_index !1878

; <label>:1361                                    ; preds = %1358
  %1362 = bitcast i32* %47 to i8*, !llfi_index !1879
  call void @llvm.lifetime.start(i64 4, i8* %1362), !llfi_index !1880
  %1363 = atomicrmw volatile add i32* %1360, i32 -1 acq_rel, !llfi_index !1881
  store i32 %1363, i32* %47, align 4, !llfi_index !1882
  %1364 = load volatile i32* %47, align 4, !llfi_index !1883
  call void @llvm.lifetime.end(i64 4, i8* %1362), !llfi_index !1884
  br label %_ZN9__gnu_cxxL27__exchange_and_add_dispatchEPii.exit.i.i.i119, !llfi_index !1885

; <label>:1365                                    ; preds = %1358
  %1366 = load i32* %1360, align 4, !tbaa !431, !llfi_index !1886
  %1367 = add nsw i32 %1366, -1, !llfi_index !1887
  store i32 %1367, i32* %1360, align 4, !tbaa !431, !llfi_index !1888
  br label %_ZN9__gnu_cxxL27__exchange_and_add_dispatchEPii.exit.i.i.i119, !llfi_index !1889

_ZN9__gnu_cxxL27__exchange_and_add_dispatchEPii.exit.i.i.i119: ; preds = %1365, %1361
  %.0.i.i.i.i118 = phi i32 [ %1364, %1361 ], [ %1366, %1365 ], !llfi_index !1890
  %1368 = icmp slt i32 %.0.i.i.i.i118, 1, !llfi_index !1891
  br i1 %1368, label %1369, label %_ZNSsD1Ev.exit171, !llfi_index !1892

; <label>:1369                                    ; preds = %_ZN9__gnu_cxxL27__exchange_and_add_dispatchEPii.exit.i.i.i119
  call void @_ZNSs4_Rep10_M_destroyERKSaIcE(%"struct.std::basic_string<char, std::char_traits<char>, std::allocator<char> >::_Rep"* %1356, %"class.std::allocator"* %48) #2, !llfi_index !1893
  br label %_ZNSsD1Ev.exit171, !llfi_index !1894

; <label>:1370                                    ; preds = %804
  %1371 = landingpad { i8*, i32 } personality i8* bitcast (i32 (...)* @__gxx_personality_v0 to i8*)
          cleanup, !llfi_index !1895
  %1372 = extractvalue { i8*, i32 } %1371, 0, !llfi_index !1896
  %1373 = extractvalue { i8*, i32 } %1371, 1, !llfi_index !1897
  br label %_ZNSsD1Ev.exit171, !llfi_index !1898

; <label>:1374                                    ; preds = %805
  %1375 = landingpad { i8*, i32 } personality i8* bitcast (i32 (...)* @__gxx_personality_v0 to i8*)
          cleanup, !llfi_index !1899
  %1376 = extractvalue { i8*, i32 } %1375, 0, !llfi_index !1900
  %1377 = extractvalue { i8*, i32 } %1375, 1, !llfi_index !1901
  %1378 = getelementptr inbounds %"class.std::allocator"* %50, i64 0, i32 0, !llfi_index !1902
  call void @llvm.lifetime.start(i64 1, i8* %1378), !llfi_index !1903
  %1379 = getelementptr inbounds %"class.std::basic_string"* %135, i64 0, i32 0, i32 0, !llfi_index !1904
  %1380 = load i8** %1379, align 8, !tbaa !486, !llfi_index !1905
  %1381 = getelementptr inbounds i8* %1380, i64 -24, !llfi_index !1906
  %1382 = bitcast i8* %1381 to %"struct.std::basic_string<char, std::char_traits<char>, std::allocator<char> >::_Rep"*, !llfi_index !1907
  %1383 = icmp eq i8* %1381, bitcast ([0 x i64]* @_ZNSs4_Rep20_S_empty_rep_storageE to i8*), !llfi_index !1908
  br i1 %1383, label %_ZNSsD1Ev.exit171, label %1384, !prof !493, !llfi_index !1909

; <label>:1384                                    ; preds = %1374
  %1385 = getelementptr inbounds i8* %1380, i64 -8, !llfi_index !1910
  %1386 = bitcast i8* %1385 to i32*, !llfi_index !1911
  br i1 icmp ne (i8* bitcast (i32 (i32*, void (i8*)*)* @__pthread_key_create to i8*), i8* null), label %1387, label %1391, !llfi_index !1912

; <label>:1387                                    ; preds = %1384
  %1388 = bitcast i32* %49 to i8*, !llfi_index !1913
  call void @llvm.lifetime.start(i64 4, i8* %1388), !llfi_index !1914
  %1389 = atomicrmw volatile add i32* %1386, i32 -1 acq_rel, !llfi_index !1915
  store i32 %1389, i32* %49, align 4, !llfi_index !1916
  %1390 = load volatile i32* %49, align 4, !llfi_index !1917
  call void @llvm.lifetime.end(i64 4, i8* %1388), !llfi_index !1918
  br label %_ZN9__gnu_cxxL27__exchange_and_add_dispatchEPii.exit.i.i.i116, !llfi_index !1919

; <label>:1391                                    ; preds = %1384
  %1392 = load i32* %1386, align 4, !tbaa !431, !llfi_index !1920
  %1393 = add nsw i32 %1392, -1, !llfi_index !1921
  store i32 %1393, i32* %1386, align 4, !tbaa !431, !llfi_index !1922
  br label %_ZN9__gnu_cxxL27__exchange_and_add_dispatchEPii.exit.i.i.i116, !llfi_index !1923

_ZN9__gnu_cxxL27__exchange_and_add_dispatchEPii.exit.i.i.i116: ; preds = %1391, %1387
  %.0.i.i.i.i115 = phi i32 [ %1390, %1387 ], [ %1392, %1391 ], !llfi_index !1924
  %1394 = icmp slt i32 %.0.i.i.i.i115, 1, !llfi_index !1925
  br i1 %1394, label %1395, label %_ZNSsD1Ev.exit171, !llfi_index !1926

; <label>:1395                                    ; preds = %_ZN9__gnu_cxxL27__exchange_and_add_dispatchEPii.exit.i.i.i116
  call void @_ZNSs4_Rep10_M_destroyERKSaIcE(%"struct.std::basic_string<char, std::char_traits<char>, std::allocator<char> >::_Rep"* %1382, %"class.std::allocator"* %50) #2, !llfi_index !1927
  br label %_ZNSsD1Ev.exit171, !llfi_index !1928

; <label>:1396                                    ; preds = %827
  %1397 = landingpad { i8*, i32 } personality i8* bitcast (i32 (...)* @__gxx_personality_v0 to i8*)
          cleanup, !llfi_index !1929
  %1398 = extractvalue { i8*, i32 } %1397, 0, !llfi_index !1930
  %1399 = extractvalue { i8*, i32 } %1397, 1, !llfi_index !1931
  br label %_ZNSsD1Ev.exit171, !llfi_index !1932

; <label>:1400                                    ; preds = %828
  %1401 = landingpad { i8*, i32 } personality i8* bitcast (i32 (...)* @__gxx_personality_v0 to i8*)
          cleanup, !llfi_index !1933
  %1402 = extractvalue { i8*, i32 } %1401, 0, !llfi_index !1934
  %1403 = extractvalue { i8*, i32 } %1401, 1, !llfi_index !1935
  %1404 = getelementptr inbounds %"class.std::allocator"* %54, i64 0, i32 0, !llfi_index !1936
  call void @llvm.lifetime.start(i64 1, i8* %1404), !llfi_index !1937
  %1405 = load i8** %829, align 8, !tbaa !486, !llfi_index !1938
  %1406 = getelementptr inbounds i8* %1405, i64 -24, !llfi_index !1939
  %1407 = bitcast i8* %1406 to %"struct.std::basic_string<char, std::char_traits<char>, std::allocator<char> >::_Rep"*, !llfi_index !1940
  %1408 = icmp eq i8* %1406, bitcast ([0 x i64]* @_ZNSs4_Rep20_S_empty_rep_storageE to i8*), !llfi_index !1941
  br i1 %1408, label %_ZNSsD1Ev.exit171, label %1409, !prof !493, !llfi_index !1942

; <label>:1409                                    ; preds = %1400
  %1410 = getelementptr inbounds i8* %1405, i64 -8, !llfi_index !1943
  %1411 = bitcast i8* %1410 to i32*, !llfi_index !1944
  br i1 icmp ne (i8* bitcast (i32 (i32*, void (i8*)*)* @__pthread_key_create to i8*), i8* null), label %1412, label %1416, !llfi_index !1945

; <label>:1412                                    ; preds = %1409
  %1413 = bitcast i32* %53 to i8*, !llfi_index !1946
  call void @llvm.lifetime.start(i64 4, i8* %1413), !llfi_index !1947
  %1414 = atomicrmw volatile add i32* %1411, i32 -1 acq_rel, !llfi_index !1948
  store i32 %1414, i32* %53, align 4, !llfi_index !1949
  %1415 = load volatile i32* %53, align 4, !llfi_index !1950
  call void @llvm.lifetime.end(i64 4, i8* %1413), !llfi_index !1951
  br label %_ZN9__gnu_cxxL27__exchange_and_add_dispatchEPii.exit.i.i.i110, !llfi_index !1952

; <label>:1416                                    ; preds = %1409
  %1417 = load i32* %1411, align 4, !tbaa !431, !llfi_index !1953
  %1418 = add nsw i32 %1417, -1, !llfi_index !1954
  store i32 %1418, i32* %1411, align 4, !tbaa !431, !llfi_index !1955
  br label %_ZN9__gnu_cxxL27__exchange_and_add_dispatchEPii.exit.i.i.i110, !llfi_index !1956

_ZN9__gnu_cxxL27__exchange_and_add_dispatchEPii.exit.i.i.i110: ; preds = %1416, %1412
  %.0.i.i.i.i109 = phi i32 [ %1415, %1412 ], [ %1417, %1416 ], !llfi_index !1957
  %1419 = icmp slt i32 %.0.i.i.i.i109, 1, !llfi_index !1958
  br i1 %1419, label %1420, label %_ZNSsD1Ev.exit171, !llfi_index !1959

; <label>:1420                                    ; preds = %_ZN9__gnu_cxxL27__exchange_and_add_dispatchEPii.exit.i.i.i110
  call void @_ZNSs4_Rep10_M_destroyERKSaIcE(%"struct.std::basic_string<char, std::char_traits<char>, std::allocator<char> >::_Rep"* %1407, %"class.std::allocator"* %54) #2, !llfi_index !1960
  br label %_ZNSsD1Ev.exit171, !llfi_index !1961

; <label>:1421                                    ; preds = %851, %_ZN9__gnu_cxxL27__exchange_and_add_dispatchEPii.exit.i.i.i137, %_ZStlsIcSt11char_traitsIcESaIcEERSt13basic_ostreamIT_T0_ES7_RKSbIS4_S5_T1_E.exit
  call void @llvm.lifetime.end(i64 1, i8* %835), !llfi_index !1962
  call void @_ZN8YAML_DocD1Ev(%class.YAML_Doc* %doc), !llfi_index !1963
  call void @llvm.lifetime.end(i64 72, i8* %355) #2, !llfi_index !1964
  call void @exit(i32 0) #15, !llfi_index !1965
  unreachable, !llfi_index !1966

_ZNSsD1Ev.exit171:                                ; preds = %1420, %_ZN9__gnu_cxxL27__exchange_and_add_dispatchEPii.exit.i.i.i110, %1400, %1396, %1395, %_ZN9__gnu_cxxL27__exchange_and_add_dispatchEPii.exit.i.i.i116, %1374, %1370, %1369, %_ZN9__gnu_cxxL27__exchange_and_add_dispatchEPii.exit.i.i.i119, %1348, %1344, %1343, %_ZN9__gnu_cxxL27__exchange_and_add_dispatchEPii.exit.i.i.i125, %_ZNSsD1Ev.exit129, %1292, %1291, %_ZN9__gnu_cxxL27__exchange_and_add_dispatchEPii.exit.i.i.i134, %_ZNSsD1Ev.exit144, %1240, %1239, %_ZN9__gnu_cxxL27__exchange_and_add_dispatchEPii.exit.i.i.i149, %_ZNSsD1Ev.exit156, %1188, %1187, %_ZN9__gnu_cxxL27__exchange_and_add_dispatchEPii.exit.i.i.i161, %_ZNSsD1Ev.exit168, %1140, %1139, %_ZN9__gnu_cxxL27__exchange_and_add_dispatchEPii.exit.i.i.i173, %_ZNSsD1Ev.exit180, %1066, %1065, %_ZN9__gnu_cxxL27__exchange_and_add_dispatchEPii.exit.i.i.i188, %_ZNSsD1Ev.exit183, %992, %991, %_ZN9__gnu_cxxL27__exchange_and_add_dispatchEPii.exit.i.i.i170, %_ZNSsD1Ev.exit165, %944
  %.2736 = phi i8* [ %1398, %1396 ], [ %946, %944 ], [ %994, %992 ], [ %1068, %1066 ], [ %1142, %1140 ], [ %1190, %1188 ], [ %1242, %1240 ], [ %1294, %1292 ], [ %1346, %1344 ], [ %1372, %1370 ], [ %.413, %_ZNSsD1Ev.exit165 ], [ %.413, %_ZN9__gnu_cxxL27__exchange_and_add_dispatchEPii.exit.i.i.i170 ], [ %.413, %991 ], [ %.817, %_ZNSsD1Ev.exit183 ], [ %.817, %_ZN9__gnu_cxxL27__exchange_and_add_dispatchEPii.exit.i.i.i188 ], [ %.817, %1065 ], [ %.1221, %_ZNSsD1Ev.exit180 ], [ %.1221, %_ZN9__gnu_cxxL27__exchange_and_add_dispatchEPii.exit.i.i.i173 ], [ %.1221, %1139 ], [ %.1423, %_ZNSsD1Ev.exit168 ], [ %.1423, %_ZN9__gnu_cxxL27__exchange_and_add_dispatchEPii.exit.i.i.i161 ], [ %.1423, %1187 ], [ %.1726, %_ZNSsD1Ev.exit156 ], [ %.1726, %_ZN9__gnu_cxxL27__exchange_and_add_dispatchEPii.exit.i.i.i149 ], [ %.1726, %1239 ], [ %.2029, %_ZNSsD1Ev.exit144 ], [ %.2029, %_ZN9__gnu_cxxL27__exchange_and_add_dispatchEPii.exit.i.i.i134 ], [ %.2029, %1291 ], [ %.2332, %_ZNSsD1Ev.exit129 ], [ %.2332, %_ZN9__gnu_cxxL27__exchange_and_add_dispatchEPii.exit.i.i.i125 ], [ %.2332, %1343 ], [ %1350, %1348 ], [ %1350, %_ZN9__gnu_cxxL27__exchange_and_add_dispatchEPii.exit.i.i.i119 ], [ %1350, %1369 ], [ %1376, %1374 ], [ %1376, %_ZN9__gnu_cxxL27__exchange_and_add_dispatchEPii.exit.i.i.i116 ], [ %1376, %1395 ], [ %1402, %1400 ], [ %1402, %_ZN9__gnu_cxxL27__exchange_and_add_dispatchEPii.exit.i.i.i110 ], [ %1402, %1420 ], !llfi_index !1967
  %.27 = phi i32 [ %1399, %1396 ], [ %947, %944 ], [ %995, %992 ], [ %1069, %1066 ], [ %1143, %1140 ], [ %1191, %1188 ], [ %1243, %1240 ], [ %1295, %1292 ], [ %1347, %1344 ], [ %1373, %1370 ], [ %.4, %_ZNSsD1Ev.exit165 ], [ %.4, %_ZN9__gnu_cxxL27__exchange_and_add_dispatchEPii.exit.i.i.i170 ], [ %.4, %991 ], [ %.8, %_ZNSsD1Ev.exit183 ], [ %.8, %_ZN9__gnu_cxxL27__exchange_and_add_dispatchEPii.exit.i.i.i188 ], [ %.8, %1065 ], [ %.12, %_ZNSsD1Ev.exit180 ], [ %.12, %_ZN9__gnu_cxxL27__exchange_and_add_dispatchEPii.exit.i.i.i173 ], [ %.12, %1139 ], [ %.14, %_ZNSsD1Ev.exit168 ], [ %.14, %_ZN9__gnu_cxxL27__exchange_and_add_dispatchEPii.exit.i.i.i161 ], [ %.14, %1187 ], [ %.17, %_ZNSsD1Ev.exit156 ], [ %.17, %_ZN9__gnu_cxxL27__exchange_and_add_dispatchEPii.exit.i.i.i149 ], [ %.17, %1239 ], [ %.20, %_ZNSsD1Ev.exit144 ], [ %.20, %_ZN9__gnu_cxxL27__exchange_and_add_dispatchEPii.exit.i.i.i134 ], [ %.20, %1291 ], [ %.23, %_ZNSsD1Ev.exit129 ], [ %.23, %_ZN9__gnu_cxxL27__exchange_and_add_dispatchEPii.exit.i.i.i125 ], [ %.23, %1343 ], [ %1351, %1348 ], [ %1351, %_ZN9__gnu_cxxL27__exchange_and_add_dispatchEPii.exit.i.i.i119 ], [ %1351, %1369 ], [ %1377, %1374 ], [ %1377, %_ZN9__gnu_cxxL27__exchange_and_add_dispatchEPii.exit.i.i.i116 ], [ %1377, %1395 ], [ %1403, %1400 ], [ %1403, %_ZN9__gnu_cxxL27__exchange_and_add_dispatchEPii.exit.i.i.i110 ], [ %1403, %1420 ], !llfi_index !1968
  invoke void @_ZN8YAML_DocD1Ev(%class.YAML_Doc* %doc)
          to label %_ZNSsD1Ev.exit159 unwind label %1424, !llfi_index !1969

_ZNSsD1Ev.exit159:                                ; preds = %_ZNSsD1Ev.exit171, %943, %_ZN9__gnu_cxxL27__exchange_and_add_dispatchEPii.exit.i.i.i158, %_ZNSsD1Ev.exit153, %852
  %.2837 = phi i8* [ %.2736, %_ZNSsD1Ev.exit171 ], [ %854, %852 ], [ %.211, %_ZNSsD1Ev.exit153 ], [ %.211, %_ZN9__gnu_cxxL27__exchange_and_add_dispatchEPii.exit.i.i.i158 ], [ %.211, %943 ], !llfi_index !1970
  %.28 = phi i32 [ %.27, %_ZNSsD1Ev.exit171 ], [ %855, %852 ], [ %.2, %_ZNSsD1Ev.exit153 ], [ %.2, %_ZN9__gnu_cxxL27__exchange_and_add_dispatchEPii.exit.i.i.i158 ], [ %.2, %943 ], !llfi_index !1971
  %1422 = insertvalue { i8*, i32 } undef, i8* %.2837, 0, !llfi_index !1972
  %1423 = insertvalue { i8*, i32 } %1422, i32 %.28, 1, !llfi_index !1973
  resume { i8*, i32 } %1423, !llfi_index !1974

; <label>:1424                                    ; preds = %_ZNSsD1Ev.exit171
  %1425 = landingpad { i8*, i32 } personality i8* bitcast (i32 (...)* @__gxx_personality_v0 to i8*)
          catch i8* null, !llfi_index !1975
  %1426 = extractvalue { i8*, i32 } %1425, 0, !llfi_index !1976
  call void @__clang_call_terminate(i8* %1426) #15, !llfi_index !1977
  unreachable, !llfi_index !1978
}

; Function Attrs: nounwind
declare void @llvm.lifetime.start(i64, i8* nocapture) #2

; Function Attrs: noreturn nounwind
declare void @exit(i32) #4

declare %"class.std::basic_ostream"* @_ZNSolsEi(%"class.std::basic_ostream"*, i32) #1

declare void @_ZNSsC1EPKcRKSaIcE(%"class.std::basic_string"*, i8*, %"class.std::allocator"*) #1

declare i32 @__gxx_personality_v0(...)

declare i8* @__cxa_begin_catch(i8*)

declare void @_ZSt9terminatev()

; Function Attrs: nounwind
declare void @llvm.lifetime.end(i64, i8* nocapture) #2

declare %"class.std::basic_ostream"* @_ZSt16__ostream_insertIcSt11char_traitsIcEERSt13basic_ostreamIT_T0_ES6_PKS3_l(%"class.std::basic_ostream"*, i8*, i64) #1

declare %"class.std::basic_ostream"* @_ZNSo3putEc(%"class.std::basic_ostream"*, i8 signext) #1

declare void @_ZNKSt5ctypeIcE13_M_widen_initEv(%"class.std::ctype"*) #1

; Function Attrs: noreturn
declare void @_ZSt16__throw_bad_castv() #5

declare %"class.std::basic_ostream"* @_ZNSo5flushEv(%"class.std::basic_ostream"*) #1

; Function Attrs: nounwind readonly
declare i64 @strlen(i8* nocapture) #6

declare void @_ZNSt9basic_iosIcSt11char_traitsIcEE5clearESt12_Ios_Iostate(%"class.std::basic_ios"*, i32) #1

; Function Attrs: nounwind
declare void @_ZNSs4_Rep10_M_destroyERKSaIcE(%"struct.std::basic_string<char, std::char_traits<char>, std::allocator<char> >::_Rep"*, %"class.std::allocator"*) #7

; Function Attrs: nounwind
declare i64 @strtol(i8* readonly, i8** nocapture, i32) #7

define internal void @_GLOBAL__I_a() section ".text.startup" {
  tail call void @_ZNSt8ios_base4InitC1Ev(%"class.std::ios_base::Init"* @_ZStL8__ioinit), !llfi_index !1979
  %1 = tail call i32 @__cxa_atexit(void (i8*)* bitcast (void (%"class.std::ios_base::Init"*)* @_ZNSt8ios_base4InitD1Ev to void (i8*)*), i8* getelementptr inbounds (%"class.std::ios_base::Init"* @_ZStL8__ioinit, i64 0, i32 0), i8* @__dso_handle) #2, !llfi_index !1980
  ret void, !llfi_index !1981
}

; Function Attrs: noinline noreturn nounwind
define linkonce_odr hidden void @__clang_call_terminate(i8*) #8 {
  %2 = tail call i8* @__cxa_begin_catch(i8* %0) #2, !llfi_index !1982
  tail call void @_ZSt9terminatev() #15, !llfi_index !1983
  unreachable, !llfi_index !1984
}

; Function Attrs: uwtable
define i32 @_Z5HPCCGP24HPC_Sparse_Matrix_STRUCTPKdPdidRiRdS3_(%struct.HPC_Sparse_Matrix_STRUCT* %A, double* %b, double* %x, i32 %max_iter, double %tolerance, i32* nocapture %niters, double* nocapture %normr, double* nocapture %times) #9 {
  %t4 = alloca double, align 8, !llfi_index !1985
  %rtrans = alloca double, align 8, !llfi_index !1986
  %alpha = alloca double, align 8, !llfi_index !1987
  %1 = call double @_Z7mytimerv(), !llfi_index !1988
  store double 0.000000e+00, double* %t4, align 8, !tbaa !9, !llfi_index !1989
  %2 = getelementptr inbounds %struct.HPC_Sparse_Matrix_STRUCT* %A, i64 0, i32 5, !llfi_index !1990
  %3 = load i32* %2, align 4, !tbaa !1991, !llfi_index !1994
  %4 = getelementptr inbounds %struct.HPC_Sparse_Matrix_STRUCT* %A, i64 0, i32 6, !llfi_index !1995
  %5 = load i32* %4, align 4, !tbaa !1996, !llfi_index !1997
  %6 = sext i32 %3 to i64, !llfi_index !1998
  %7 = call { i64, i1 } @llvm.umul.with.overflow.i64(i64 %6, i64 8), !llfi_index !1999
  %8 = extractvalue { i64, i1 } %7, 1, !llfi_index !2000
  %9 = extractvalue { i64, i1 } %7, 0, !llfi_index !2001
  %10 = select i1 %8, i64 -1, i64 %9, !llfi_index !2002
  %11 = call noalias i8* @_Znam(i64 %10) #16, !llfi_index !2003
  %12 = bitcast i8* %11 to double*, !llfi_index !2004
  %13 = sext i32 %5 to i64, !llfi_index !2005
  %14 = call { i64, i1 } @llvm.umul.with.overflow.i64(i64 %13, i64 8), !llfi_index !2006
  %15 = extractvalue { i64, i1 } %14, 1, !llfi_index !2007
  %16 = extractvalue { i64, i1 } %14, 0, !llfi_index !2008
  %17 = select i1 %15, i64 -1, i64 %16, !llfi_index !2009
  %18 = call noalias i8* @_Znam(i64 %17) #16, !llfi_index !2010
  %19 = bitcast i8* %18 to double*, !llfi_index !2011
  %20 = call noalias i8* @_Znam(i64 %10) #16, !llfi_index !2012
  %21 = bitcast i8* %20 to double*, !llfi_index !2013
  store double 0.000000e+00, double* %normr, align 8, !tbaa !9, !llfi_index !2014
  store double 0.000000e+00, double* %rtrans, align 8, !tbaa !9, !llfi_index !2015
  %22 = sdiv i32 %max_iter, 10, !llfi_index !2016
  %23 = icmp sgt i32 %22, 50, !llfi_index !2017
  %. = select i1 %23, i32 50, i32 %22, !llfi_index !2018
  %24 = icmp slt i32 %., 1, !llfi_index !2019
  %.. = select i1 %24, i32 1, i32 %., !llfi_index !2020
  %25 = call double @_Z7mytimerv(), !llfi_index !2021
  %26 = call i32 @_Z6waxpbyidPKddS0_Pd(i32 %3, double 1.000000e+00, double* %x, double 0.000000e+00, double* %x, double* %19), !llfi_index !2022
  %27 = call double @_Z7mytimerv(), !llfi_index !2023
  %28 = fsub double %27, %25, !llfi_index !2024
  %29 = fadd double %28, 0.000000e+00, !llfi_index !2025
  %30 = call double @_Z7mytimerv(), !llfi_index !2026
  %31 = call i32 @_Z12HPC_sparsemvP24HPC_Sparse_Matrix_STRUCTPKdPd(%struct.HPC_Sparse_Matrix_STRUCT* %A, double* %19, double* %21), !llfi_index !2027
  %32 = call double @_Z7mytimerv(), !llfi_index !2028
  %33 = fsub double %32, %30, !llfi_index !2029
  %34 = fadd double %33, 0.000000e+00, !llfi_index !2030
  %35 = call double @_Z7mytimerv(), !llfi_index !2031
  %36 = call i32 @_Z6waxpbyidPKddS0_Pd(i32 %3, double 1.000000e+00, double* %b, double -1.000000e+00, double* %21, double* %12), !llfi_index !2032
  %37 = call double @_Z7mytimerv(), !llfi_index !2033
  %38 = call double @_Z7mytimerv(), !llfi_index !2034
  %39 = call i32 @_Z4ddotiPKdS0_PdRd(i32 %3, double* %12, double* %12, double* %rtrans, double* %t4), !llfi_index !2035
  %40 = call double @_Z7mytimerv(), !llfi_index !2036
  %41 = insertelement <2 x double> undef, double %40, i32 0, !llfi_index !2037
  %42 = insertelement <2 x double> %41, double %37, i32 1, !llfi_index !2038
  %43 = insertelement <2 x double> undef, double %38, i32 0, !llfi_index !2039
  %44 = insertelement <2 x double> %43, double %35, i32 1, !llfi_index !2040
  %45 = fsub <2 x double> %42, %44, !llfi_index !2041
  %46 = insertelement <2 x double> <double 0.000000e+00, double undef>, double %29, i32 1, !llfi_index !2042
  %47 = fadd <2 x double> %46, %45, !llfi_index !2043
  %48 = load double* %rtrans, align 8, !tbaa !9, !llfi_index !2044
  %49 = call double @sqrt(double %48) #2, !llfi_index !2045
  store double %49, double* %normr, align 8, !tbaa !9, !llfi_index !2046
  %50 = call %"class.std::basic_ostream"* @_ZSt16__ostream_insertIcSt11char_traitsIcEERSt13basic_ostreamIT_T0_ES6_PKS3_l(%"class.std::basic_ostream"* @_ZSt4cout, i8* getelementptr inbounds ([20 x i8]* @.str21, i64 0, i64 0), i64 19), !llfi_index !2047
  %51 = load double* %normr, align 8, !tbaa !9, !llfi_index !2048
  %52 = call %"class.std::basic_ostream"* @_ZNSo9_M_insertIdEERSoT_(%"class.std::basic_ostream"* @_ZSt4cout, double %51), !llfi_index !2049
  %53 = bitcast %"class.std::basic_ostream"* %52 to i8**, !llfi_index !2050
  %54 = load i8** %53, align 8, !tbaa !184, !llfi_index !2051
  %55 = getelementptr i8* %54, i64 -24, !llfi_index !2052
  %56 = bitcast i8* %55 to i64*, !llfi_index !2053
  %57 = load i64* %56, align 8, !llfi_index !2054
  %58 = bitcast %"class.std::basic_ostream"* %52 to i8*, !llfi_index !2055
  %.sum = add i64 %57, 240, !llfi_index !2056
  %59 = getelementptr inbounds i8* %58, i64 %.sum, !llfi_index !2057
  %60 = bitcast i8* %59 to %"class.std::ctype"**, !llfi_index !2058
  %61 = load %"class.std::ctype"** %60, align 8, !tbaa !193, !llfi_index !2059
  %62 = icmp eq %"class.std::ctype"* %61, null, !llfi_index !2060
  br i1 %62, label %63, label %_ZSt13__check_facetISt5ctypeIcEERKT_PS3_.exit, !llfi_index !2061

; <label>:63                                      ; preds = %0
  call void @_ZSt16__throw_bad_castv() #14, !llfi_index !2062
  unreachable, !llfi_index !2063

_ZSt13__check_facetISt5ctypeIcEERKT_PS3_.exit:    ; preds = %0
  %64 = getelementptr inbounds %"class.std::ctype"* %61, i64 0, i32 6, !llfi_index !2064
  %65 = load i8* %64, align 1, !tbaa !203, !llfi_index !2065
  %66 = icmp eq i8 %65, 0, !llfi_index !2066
  br i1 %66, label %70, label %67, !llfi_index !2067

; <label>:67                                      ; preds = %_ZSt13__check_facetISt5ctypeIcEERKT_PS3_.exit
  %68 = getelementptr inbounds %"class.std::ctype"* %61, i64 0, i32 7, i64 10, !llfi_index !2068
  %69 = load i8* %68, align 1, !tbaa !209, !llfi_index !2069
  br label %_ZNKSt5ctypeIcE5widenEc.exit, !llfi_index !2070

; <label>:70                                      ; preds = %_ZSt13__check_facetISt5ctypeIcEERKT_PS3_.exit
  call void @_ZNKSt5ctypeIcE13_M_widen_initEv(%"class.std::ctype"* %61), !llfi_index !2071
  %71 = bitcast %"class.std::ctype"* %61 to i8 (%"class.std::ctype"*, i8)***, !llfi_index !2072
  %72 = load i8 (%"class.std::ctype"*, i8)*** %71, align 8, !tbaa !184, !llfi_index !2073
  %73 = getelementptr inbounds i8 (%"class.std::ctype"*, i8)** %72, i64 6, !llfi_index !2074
  %74 = load i8 (%"class.std::ctype"*, i8)** %73, align 8, !llfi_index !2075
  %75 = call signext i8 %74(%"class.std::ctype"* %61, i8 signext 10), !llfi_index !2076
  br label %_ZNKSt5ctypeIcE5widenEc.exit, !llfi_index !2077

_ZNKSt5ctypeIcE5widenEc.exit:                     ; preds = %70, %67
  %.0.i = phi i8 [ %69, %67 ], [ %75, %70 ], !llfi_index !2078
  %76 = call %"class.std::basic_ostream"* @_ZNSo3putEc(%"class.std::basic_ostream"* %52, i8 signext %.0.i), !llfi_index !2079
  %77 = call %"class.std::basic_ostream"* @_ZNSo5flushEv(%"class.std::basic_ostream"* %76), !llfi_index !2080
  %78 = icmp sgt i32 %max_iter, 1, !llfi_index !2081
  br i1 %78, label %.lr.ph, label %split15, !llfi_index !2082

.lr.ph:                                           ; preds = %142, %_ZNKSt5ctypeIcE5widenEc.exit
  %k.012 = phi i32 [ %109, %142 ], [ 1, %_ZNKSt5ctypeIcE5widenEc.exit ], !llfi_index !2083
  %t3.09 = phi double [ %147, %142 ], [ %34, %_ZNKSt5ctypeIcE5widenEc.exit ], !llfi_index !2084
  %79 = phi <2 x double> [ %168, %142 ], [ %47, %_ZNKSt5ctypeIcE5widenEc.exit ], !llfi_index !2085
  %80 = extractelement <2 x double> %79, i32 1, !llfi_index !2086
  %81 = extractelement <2 x double> %79, i32 0, !llfi_index !2087
  %82 = load double* %normr, align 8, !tbaa !9, !llfi_index !2088
  %83 = fcmp ogt double %82, %tolerance, !llfi_index !2089
  br i1 %83, label %84, label %split15, !llfi_index !2090

; <label>:84                                      ; preds = %.lr.ph
  %85 = icmp eq i32 %k.012, 1, !llfi_index !2091
  br i1 %85, label %86, label %91, !llfi_index !2092

; <label>:86                                      ; preds = %84
  %87 = call double @_Z7mytimerv(), !llfi_index !2093
  %88 = call i32 @_Z6waxpbyidPKddS0_Pd(i32 %3, double 1.000000e+00, double* %12, double 0.000000e+00, double* %12, double* %19), !llfi_index !2094
  %89 = call double @_Z7mytimerv(), !llfi_index !2095
  %90 = fsub double %89, %87, !llfi_index !2096
  br label %104, !llfi_index !2097

; <label>:91                                      ; preds = %84
  %92 = load double* %rtrans, align 8, !tbaa !9, !llfi_index !2098
  %93 = call double @_Z7mytimerv(), !llfi_index !2099
  %94 = call i32 @_Z4ddotiPKdS0_PdRd(i32 %3, double* %12, double* %12, double* %rtrans, double* %t4), !llfi_index !2100
  %95 = call double @_Z7mytimerv(), !llfi_index !2101
  %96 = fsub double %95, %93, !llfi_index !2102
  %97 = fadd double %81, %96, !llfi_index !2103
  %98 = load double* %rtrans, align 8, !tbaa !9, !llfi_index !2104
  %99 = fdiv double %98, %92, !llfi_index !2105
  %100 = call double @_Z7mytimerv(), !llfi_index !2106
  %101 = call i32 @_Z6waxpbyidPKddS0_Pd(i32 %3, double 1.000000e+00, double* %12, double %99, double* %19, double* %19), !llfi_index !2107
  %102 = call double @_Z7mytimerv(), !llfi_index !2108
  %103 = fsub double %102, %100, !llfi_index !2109
  br label %104, !llfi_index !2110

; <label>:104                                     ; preds = %91, %86
  %.pn = phi double [ %90, %86 ], [ %103, %91 ], !llfi_index !2111
  %t1.1 = phi double [ %81, %86 ], [ %97, %91 ], !llfi_index !2112
  %t2.1 = fadd double %80, %.pn, !llfi_index !2113
  %105 = load double* %rtrans, align 8, !tbaa !9, !llfi_index !2114
  %106 = call double @sqrt(double %105) #2, !llfi_index !2115
  store double %106, double* %normr, align 8, !tbaa !9, !llfi_index !2116
  %107 = srem i32 %k.012, %.., !llfi_index !2117
  %108 = icmp eq i32 %107, 0, !llfi_index !2118
  %109 = add nsw i32 %k.012, 1, !llfi_index !2119
  %110 = icmp eq i32 %109, %max_iter, !llfi_index !2120
  %or.cond = or i1 %108, %110, !llfi_index !2121
  br i1 %or.cond, label %111, label %142, !llfi_index !2122

; <label>:111                                     ; preds = %104
  %112 = call %"class.std::basic_ostream"* @_ZSt16__ostream_insertIcSt11char_traitsIcEERSt13basic_ostreamIT_T0_ES6_PKS3_l(%"class.std::basic_ostream"* @_ZSt4cout, i8* getelementptr inbounds ([13 x i8]* @.str122, i64 0, i64 0), i64 12), !llfi_index !2123
  %113 = call %"class.std::basic_ostream"* @_ZNSolsEi(%"class.std::basic_ostream"* @_ZSt4cout, i32 %k.012), !llfi_index !2124
  %114 = call %"class.std::basic_ostream"* @_ZSt16__ostream_insertIcSt11char_traitsIcEERSt13basic_ostreamIT_T0_ES6_PKS3_l(%"class.std::basic_ostream"* %113, i8* getelementptr inbounds ([15 x i8]* @.str223, i64 0, i64 0), i64 14), !llfi_index !2125
  %115 = load double* %normr, align 8, !tbaa !9, !llfi_index !2126
  %116 = call %"class.std::basic_ostream"* @_ZNSo9_M_insertIdEERSoT_(%"class.std::basic_ostream"* %113, double %115), !llfi_index !2127
  %117 = bitcast %"class.std::basic_ostream"* %116 to i8**, !llfi_index !2128
  %118 = load i8** %117, align 8, !tbaa !184, !llfi_index !2129
  %119 = getelementptr i8* %118, i64 -24, !llfi_index !2130
  %120 = bitcast i8* %119 to i64*, !llfi_index !2131
  %121 = load i64* %120, align 8, !llfi_index !2132
  %122 = bitcast %"class.std::basic_ostream"* %116 to i8*, !llfi_index !2133
  %.sum5 = add i64 %121, 240, !llfi_index !2134
  %123 = getelementptr inbounds i8* %122, i64 %.sum5, !llfi_index !2135
  %124 = bitcast i8* %123 to %"class.std::ctype"**, !llfi_index !2136
  %125 = load %"class.std::ctype"** %124, align 8, !tbaa !193, !llfi_index !2137
  %126 = icmp eq %"class.std::ctype"* %125, null, !llfi_index !2138
  br i1 %126, label %127, label %_ZSt13__check_facetISt5ctypeIcEERKT_PS3_.exit4, !llfi_index !2139

; <label>:127                                     ; preds = %111
  call void @_ZSt16__throw_bad_castv() #14, !llfi_index !2140
  unreachable, !llfi_index !2141

_ZSt13__check_facetISt5ctypeIcEERKT_PS3_.exit4:   ; preds = %111
  %128 = getelementptr inbounds %"class.std::ctype"* %125, i64 0, i32 6, !llfi_index !2142
  %129 = load i8* %128, align 1, !tbaa !203, !llfi_index !2143
  %130 = icmp eq i8 %129, 0, !llfi_index !2144
  br i1 %130, label %134, label %131, !llfi_index !2145

; <label>:131                                     ; preds = %_ZSt13__check_facetISt5ctypeIcEERKT_PS3_.exit4
  %132 = getelementptr inbounds %"class.std::ctype"* %125, i64 0, i32 7, i64 10, !llfi_index !2146
  %133 = load i8* %132, align 1, !tbaa !209, !llfi_index !2147
  br label %_ZNKSt5ctypeIcE5widenEc.exit3, !llfi_index !2148

; <label>:134                                     ; preds = %_ZSt13__check_facetISt5ctypeIcEERKT_PS3_.exit4
  call void @_ZNKSt5ctypeIcE13_M_widen_initEv(%"class.std::ctype"* %125), !llfi_index !2149
  %135 = bitcast %"class.std::ctype"* %125 to i8 (%"class.std::ctype"*, i8)***, !llfi_index !2150
  %136 = load i8 (%"class.std::ctype"*, i8)*** %135, align 8, !tbaa !184, !llfi_index !2151
  %137 = getelementptr inbounds i8 (%"class.std::ctype"*, i8)** %136, i64 6, !llfi_index !2152
  %138 = load i8 (%"class.std::ctype"*, i8)** %137, align 8, !llfi_index !2153
  %139 = call signext i8 %138(%"class.std::ctype"* %125, i8 signext 10), !llfi_index !2154
  br label %_ZNKSt5ctypeIcE5widenEc.exit3, !llfi_index !2155

_ZNKSt5ctypeIcE5widenEc.exit3:                    ; preds = %134, %131
  %.0.i2 = phi i8 [ %133, %131 ], [ %139, %134 ], !llfi_index !2156
  %140 = call %"class.std::basic_ostream"* @_ZNSo3putEc(%"class.std::basic_ostream"* %116, i8 signext %.0.i2), !llfi_index !2157
  %141 = call %"class.std::basic_ostream"* @_ZNSo5flushEv(%"class.std::basic_ostream"* %140), !llfi_index !2158
  br label %142, !llfi_index !2159

; <label>:142                                     ; preds = %_ZNKSt5ctypeIcE5widenEc.exit3, %104
  %143 = call double @_Z7mytimerv(), !llfi_index !2160
  %144 = call i32 @_Z12HPC_sparsemvP24HPC_Sparse_Matrix_STRUCTPKdPd(%struct.HPC_Sparse_Matrix_STRUCT* %A, double* %19, double* %21), !llfi_index !2161
  %145 = call double @_Z7mytimerv(), !llfi_index !2162
  %146 = fsub double %145, %143, !llfi_index !2163
  %147 = fadd double %t3.09, %146, !llfi_index !2164
  store double 0.000000e+00, double* %alpha, align 8, !tbaa !9, !llfi_index !2165
  %148 = call double @_Z7mytimerv(), !llfi_index !2166
  %149 = call i32 @_Z4ddotiPKdS0_PdRd(i32 %3, double* %19, double* %21, double* %alpha, double* %t4), !llfi_index !2167
  %150 = call double @_Z7mytimerv(), !llfi_index !2168
  %151 = load double* %rtrans, align 8, !tbaa !9, !llfi_index !2169
  %152 = load double* %alpha, align 8, !tbaa !9, !llfi_index !2170
  %153 = fdiv double %151, %152, !llfi_index !2171
  store double %153, double* %alpha, align 8, !tbaa !9, !llfi_index !2172
  %154 = call double @_Z7mytimerv(), !llfi_index !2173
  %155 = load double* %alpha, align 8, !tbaa !9, !llfi_index !2174
  %156 = call i32 @_Z6waxpbyidPKddS0_Pd(i32 %3, double 1.000000e+00, double* %x, double %155, double* %19, double* %x), !llfi_index !2175
  %157 = load double* %alpha, align 8, !tbaa !9, !llfi_index !2176
  %158 = fsub double -0.000000e+00, %157, !llfi_index !2177
  %159 = call i32 @_Z6waxpbyidPKddS0_Pd(i32 %3, double 1.000000e+00, double* %12, double %158, double* %21, double* %12), !llfi_index !2178
  %160 = call double @_Z7mytimerv(), !llfi_index !2179
  %161 = insertelement <2 x double> undef, double %150, i32 0, !llfi_index !2180
  %162 = insertelement <2 x double> %161, double %160, i32 1, !llfi_index !2181
  %163 = insertelement <2 x double> undef, double %148, i32 0, !llfi_index !2182
  %164 = insertelement <2 x double> %163, double %154, i32 1, !llfi_index !2183
  %165 = fsub <2 x double> %162, %164, !llfi_index !2184
  %166 = insertelement <2 x double> undef, double %t1.1, i32 0, !llfi_index !2185
  %167 = insertelement <2 x double> %166, double %t2.1, i32 1, !llfi_index !2186
  %168 = fadd <2 x double> %167, %165, !llfi_index !2187
  store i32 %k.012, i32* %niters, align 4, !tbaa !431, !llfi_index !2188
  %169 = icmp slt i32 %109, %max_iter, !llfi_index !2189
  br i1 %169, label %.lr.ph, label %split15, !llfi_index !2190

split15:                                          ; preds = %142, %.lr.ph, %_ZNKSt5ctypeIcE5widenEc.exit
  %t3.0.lcssa = phi double [ %34, %_ZNKSt5ctypeIcE5widenEc.exit ], [ %147, %142 ], [ %t3.09, %.lr.ph ], !llfi_index !2191
  %170 = phi <2 x double> [ %47, %_ZNKSt5ctypeIcE5widenEc.exit ], [ %168, %142 ], [ %79, %.lr.ph ], !llfi_index !2192
  %171 = getelementptr inbounds double* %times, i64 1, !llfi_index !2193
  %172 = bitcast double* %171 to <2 x double>*, !llfi_index !2194
  store <2 x double> %170, <2 x double>* %172, align 8, !tbaa !9, !llfi_index !2195
  %173 = getelementptr inbounds double* %times, i64 3, !llfi_index !2196
  store double %t3.0.lcssa, double* %173, align 8, !tbaa !9, !llfi_index !2197
  %174 = load double* %t4, align 8, !tbaa !9, !llfi_index !2198
  %175 = getelementptr inbounds double* %times, i64 4, !llfi_index !2199
  store double %174, double* %175, align 8, !tbaa !9, !llfi_index !2200
  call void @_ZdaPv(i8* %18) #17, !llfi_index !2201
  call void @_ZdaPv(i8* %20) #17, !llfi_index !2202
  call void @_ZdaPv(i8* %11) #17, !llfi_index !2203
  %176 = call double @_Z7mytimerv(), !llfi_index !2204
  %177 = fsub double %176, %1, !llfi_index !2205
  store double %177, double* %times, align 8, !tbaa !9, !llfi_index !2206
  ret i32 0, !llfi_index !2207
}

; Function Attrs: nounwind readnone
declare { i64, i1 } @llvm.umul.with.overflow.i64(i64, i64) #10

; Function Attrs: nobuiltin
declare noalias i8* @_Znam(i64) #11

; Function Attrs: nounwind
declare double @sqrt(double) #7

; Function Attrs: nobuiltin nounwind
declare void @_ZdaPv(i8*) #12

declare %"class.std::basic_ostream"* @_ZNSo9_M_insertIdEERSoT_(%"class.std::basic_ostream"*, double) #1

define internal void @_GLOBAL__I_a27() section ".text.startup" {
  tail call void @_ZNSt8ios_base4InitC1Ev(%"class.std::ios_base::Init"* @_ZStL8__ioinit1), !llfi_index !2208
  %1 = tail call i32 @__cxa_atexit(void (i8*)* bitcast (void (%"class.std::ios_base::Init"*)* @_ZNSt8ios_base4InitD1Ev to void (i8*)*), i8* getelementptr inbounds (%"class.std::ios_base::Init"* @_ZStL8__ioinit1, i64 0, i32 0), i8* @__dso_handle) #2, !llfi_index !2209
  ret void, !llfi_index !2210
}

; Function Attrs: nounwind uwtable
define i32 @_Z6waxpbyidPKddS0_Pd(i32 %n, double %alpha, double* nocapture readonly %x, double %beta, double* nocapture readonly %y, double* nocapture %w) #0 {
  %1 = fcmp oeq double %alpha, 1.000000e+00, !llfi_index !2211
  br i1 %1, label %.preheader, label %32, !llfi_index !2212

.preheader:                                       ; preds = %0
  %2 = icmp sgt i32 %n, 0, !llfi_index !2213
  br i1 %2, label %.lr.ph.preheader, label %.loopexit, !llfi_index !2214

.lr.ph.preheader:                                 ; preds = %.preheader
  %3 = add i32 %n, -1, !llfi_index !2215
  %4 = zext i32 %3 to i64, !llfi_index !2216
  %5 = add i64 %4, 1, !llfi_index !2217
  %end.idx = add i64 %4, 1, !llfi_index !2218
  %n.vec = and i64 %5, 8589934588, !llfi_index !2219
  %cmp.zero = icmp eq i64 %n.vec, 0, !llfi_index !2220
  %6 = add i32 %n, -1, !llfi_index !2221
  %7 = zext i32 %6 to i64, !llfi_index !2222
  %scevgep = getelementptr double* %w, i64 %7, !llfi_index !2223
  br i1 %cmp.zero, label %middle.block, label %vector.memcheck, !llfi_index !2224

vector.memcheck:                                  ; preds = %.lr.ph.preheader
  %scevgep28 = getelementptr double* %y, i64 %7, !llfi_index !2225
  %scevgep25 = getelementptr double* %x, i64 %7, !llfi_index !2226
  %bound131 = icmp uge double* %scevgep, %y, !llfi_index !2227
  %bound030 = icmp uge double* %scevgep28, %w, !llfi_index !2228
  %bound1 = icmp uge double* %scevgep, %x, !llfi_index !2229
  %bound0 = icmp uge double* %scevgep25, %w, !llfi_index !2230
  %found.conflict32 = and i1 %bound030, %bound131, !llfi_index !2231
  %found.conflict = and i1 %bound0, %bound1, !llfi_index !2232
  %conflict.rdx = or i1 %found.conflict, %found.conflict32, !llfi_index !2233
  br i1 %conflict.rdx, label %middle.block, label %vector.ph, !llfi_index !2234

vector.ph:                                        ; preds = %vector.memcheck
  %broadcast.splatinsert37 = insertelement <2 x double> undef, double %beta, i32 0, !llfi_index !2235
  %broadcast.splat38 = shufflevector <2 x double> %broadcast.splatinsert37, <2 x double> undef, <2 x i32> zeroinitializer, !llfi_index !2236
  br label %vector.body, !llfi_index !2237

vector.body:                                      ; preds = %vector.body, %vector.ph
  %index = phi i64 [ 0, %vector.ph ], [ %index.next, %vector.body ], !llfi_index !2238
  %8 = getelementptr inbounds double* %x, i64 %index, !llfi_index !2239
  %9 = bitcast double* %8 to <2 x double>*, !llfi_index !2240
  %wide.load = load <2 x double>* %9, align 8, !llfi_index !2241
  %.sum125 = or i64 %index, 2, !llfi_index !2242
  %10 = getelementptr double* %x, i64 %.sum125, !llfi_index !2243
  %11 = bitcast double* %10 to <2 x double>*, !llfi_index !2244
  %wide.load34 = load <2 x double>* %11, align 8, !llfi_index !2245
  %12 = getelementptr inbounds double* %y, i64 %index, !llfi_index !2246
  %13 = bitcast double* %12 to <2 x double>*, !llfi_index !2247
  %wide.load35 = load <2 x double>* %13, align 8, !llfi_index !2248
  %.sum126 = or i64 %index, 2, !llfi_index !2249
  %14 = getelementptr double* %y, i64 %.sum126, !llfi_index !2250
  %15 = bitcast double* %14 to <2 x double>*, !llfi_index !2251
  %wide.load36 = load <2 x double>* %15, align 8, !llfi_index !2252
  %16 = fmul <2 x double> %wide.load35, %broadcast.splat38, !llfi_index !2253
  %17 = fmul <2 x double> %wide.load36, %broadcast.splat38, !llfi_index !2254
  %18 = fadd <2 x double> %wide.load, %16, !llfi_index !2255
  %19 = fadd <2 x double> %wide.load34, %17, !llfi_index !2256
  %20 = getelementptr inbounds double* %w, i64 %index, !llfi_index !2257
  %21 = bitcast double* %20 to <2 x double>*, !llfi_index !2258
  store <2 x double> %18, <2 x double>* %21, align 8, !llfi_index !2259
  %.sum127 = or i64 %index, 2, !llfi_index !2260
  %22 = getelementptr double* %w, i64 %.sum127, !llfi_index !2261
  %23 = bitcast double* %22 to <2 x double>*, !llfi_index !2262
  store <2 x double> %19, <2 x double>* %23, align 8, !llfi_index !2263
  %index.next = add i64 %index, 4, !llfi_index !2264
  %24 = icmp eq i64 %index.next, %n.vec, !llfi_index !2265
  br i1 %24, label %middle.block, label %vector.body, !llvm.loop !2266, !llfi_index !2269

middle.block:                                     ; preds = %vector.body, %vector.memcheck, %.lr.ph.preheader
  %resume.val = phi i64 [ 0, %.lr.ph.preheader ], [ 0, %vector.memcheck ], [ %n.vec, %vector.body ], !llfi_index !2270
  %cmp.n = icmp eq i64 %end.idx, %resume.val, !llfi_index !2271
  br i1 %cmp.n, label %.loopexit, label %.lr.ph, !llfi_index !2272

.lr.ph:                                           ; preds = %.lr.ph, %middle.block
  %indvars.iv = phi i64 [ %indvars.iv.next, %.lr.ph ], [ %resume.val, %middle.block ], !llfi_index !2273
  %25 = getelementptr inbounds double* %x, i64 %indvars.iv, !llfi_index !2274
  %26 = load double* %25, align 8, !tbaa !9, !llfi_index !2275
  %27 = getelementptr inbounds double* %y, i64 %indvars.iv, !llfi_index !2276
  %28 = load double* %27, align 8, !tbaa !9, !llfi_index !2277
  %29 = fmul double %28, %beta, !llfi_index !2278
  %30 = fadd double %26, %29, !llfi_index !2279
  %31 = getelementptr inbounds double* %w, i64 %indvars.iv, !llfi_index !2280
  store double %30, double* %31, align 8, !tbaa !9, !llfi_index !2281
  %indvars.iv.next = add nuw nsw i64 %indvars.iv, 1, !llfi_index !2282
  %lftr.wideiv = trunc i64 %indvars.iv.next to i32, !llfi_index !2283
  %exitcond = icmp eq i32 %lftr.wideiv, %n, !llfi_index !2284
  br i1 %exitcond, label %.loopexit, label %.lr.ph, !llvm.loop !2285, !llfi_index !2286

; <label>:32                                      ; preds = %0
  %33 = fcmp oeq double %beta, 1.000000e+00, !llfi_index !2287
  %34 = icmp sgt i32 %n, 0, !llfi_index !2288
  br i1 %33, label %.preheader4, label %.preheader8, !llfi_index !2289

.preheader8:                                      ; preds = %32
  br i1 %34, label %.lr.ph11.preheader, label %.loopexit, !llfi_index !2290

.lr.ph11.preheader:                               ; preds = %.preheader8
  %35 = add i32 %n, -1, !llfi_index !2291
  %36 = zext i32 %35 to i64, !llfi_index !2292
  %37 = add i64 %36, 1, !llfi_index !2293
  %end.idx87 = add i64 %36, 1, !llfi_index !2294
  %n.vec89 = and i64 %37, 8589934590, !llfi_index !2295
  %cmp.zero91 = icmp eq i64 %n.vec89, 0, !llfi_index !2296
  %38 = add i32 %n, -1, !llfi_index !2297
  %39 = zext i32 %38 to i64, !llfi_index !2298
  %scevgep92 = getelementptr double* %w, i64 %39, !llfi_index !2299
  br i1 %cmp.zero91, label %middle.block84, label %vector.memcheck106, !llfi_index !2300

vector.memcheck106:                               ; preds = %.lr.ph11.preheader
  %scevgep96 = getelementptr double* %y, i64 %39, !llfi_index !2301
  %scevgep94 = getelementptr double* %x, i64 %39, !llfi_index !2302
  %bound1102 = icmp uge double* %scevgep92, %y, !llfi_index !2303
  %bound0101 = icmp uge double* %scevgep96, %w, !llfi_index !2304
  %bound199 = icmp uge double* %scevgep92, %x, !llfi_index !2305
  %bound098 = icmp uge double* %scevgep94, %w, !llfi_index !2306
  %found.conflict103 = and i1 %bound0101, %bound1102, !llfi_index !2307
  %found.conflict100 = and i1 %bound098, %bound199, !llfi_index !2308
  %conflict.rdx104 = or i1 %found.conflict100, %found.conflict103, !llfi_index !2309
  br i1 %conflict.rdx104, label %middle.block84, label %vector.ph82, !llfi_index !2310

vector.ph82:                                      ; preds = %vector.memcheck106
  %broadcast.splatinsert115 = insertelement <2 x double> undef, double %alpha, i32 0, !llfi_index !2311
  %broadcast.splat116 = shufflevector <2 x double> %broadcast.splatinsert115, <2 x double> undef, <2 x i32> zeroinitializer, !llfi_index !2312
  %broadcast.splatinsert118 = insertelement <2 x double> undef, double %beta, i32 0, !llfi_index !2313
  %broadcast.splat119 = shufflevector <2 x double> %broadcast.splatinsert118, <2 x double> undef, <2 x i32> zeroinitializer, !llfi_index !2314
  br label %vector.body83, !llfi_index !2315

vector.body83:                                    ; preds = %vector.body83, %vector.ph82
  %index86 = phi i64 [ 0, %vector.ph82 ], [ %index.next110, %vector.body83 ], !llfi_index !2316
  %40 = getelementptr inbounds double* %x, i64 %index86, !llfi_index !2317
  %41 = bitcast double* %40 to <2 x double>*, !llfi_index !2318
  %wide.load114 = load <2 x double>* %41, align 8, !llfi_index !2319
  %42 = fmul <2 x double> %wide.load114, %broadcast.splat116, !llfi_index !2320
  %43 = getelementptr inbounds double* %y, i64 %index86, !llfi_index !2321
  %44 = bitcast double* %43 to <2 x double>*, !llfi_index !2322
  %wide.load117 = load <2 x double>* %44, align 8, !llfi_index !2323
  %45 = fmul <2 x double> %wide.load117, %broadcast.splat119, !llfi_index !2324
  %46 = fadd <2 x double> %42, %45, !llfi_index !2325
  %47 = getelementptr inbounds double* %w, i64 %index86, !llfi_index !2326
  %48 = bitcast double* %47 to <2 x double>*, !llfi_index !2327
  store <2 x double> %46, <2 x double>* %48, align 8, !llfi_index !2328
  %index.next110 = add i64 %index86, 2, !llfi_index !2329
  %49 = icmp eq i64 %index.next110, %n.vec89, !llfi_index !2330
  br i1 %49, label %middle.block84, label %vector.body83, !llvm.loop !2331, !llfi_index !2332

middle.block84:                                   ; preds = %vector.body83, %vector.memcheck106, %.lr.ph11.preheader
  %resume.val107 = phi i64 [ 0, %.lr.ph11.preheader ], [ 0, %vector.memcheck106 ], [ %n.vec89, %vector.body83 ], !llfi_index !2333
  %cmp.n109 = icmp eq i64 %end.idx87, %resume.val107, !llfi_index !2334
  br i1 %cmp.n109, label %.loopexit, label %.lr.ph11, !llfi_index !2335

.preheader4:                                      ; preds = %32
  br i1 %34, label %.lr.ph7.preheader, label %.loopexit, !llfi_index !2336

.lr.ph7.preheader:                                ; preds = %.preheader4
  %50 = add i32 %n, -1, !llfi_index !2337
  %51 = zext i32 %50 to i64, !llfi_index !2338
  %52 = add i64 %51, 1, !llfi_index !2339
  %end.idx46 = add i64 %51, 1, !llfi_index !2340
  %n.vec48 = and i64 %52, 8589934588, !llfi_index !2341
  %cmp.zero50 = icmp eq i64 %n.vec48, 0, !llfi_index !2342
  %53 = add i32 %n, -1, !llfi_index !2343
  %54 = zext i32 %53 to i64, !llfi_index !2344
  %scevgep51 = getelementptr double* %w, i64 %54, !llfi_index !2345
  br i1 %cmp.zero50, label %middle.block43, label %vector.memcheck65, !llfi_index !2346

vector.memcheck65:                                ; preds = %.lr.ph7.preheader
  %scevgep55 = getelementptr double* %y, i64 %54, !llfi_index !2347
  %scevgep53 = getelementptr double* %x, i64 %54, !llfi_index !2348
  %bound161 = icmp uge double* %scevgep51, %y, !llfi_index !2349
  %bound060 = icmp uge double* %scevgep55, %w, !llfi_index !2350
  %bound158 = icmp uge double* %scevgep51, %x, !llfi_index !2351
  %bound057 = icmp uge double* %scevgep53, %w, !llfi_index !2352
  %found.conflict62 = and i1 %bound060, %bound161, !llfi_index !2353
  %found.conflict59 = and i1 %bound057, %bound158, !llfi_index !2354
  %conflict.rdx63 = or i1 %found.conflict59, %found.conflict62, !llfi_index !2355
  br i1 %conflict.rdx63, label %middle.block43, label %vector.ph41, !llfi_index !2356

vector.ph41:                                      ; preds = %vector.memcheck65
  %broadcast.splatinsert76 = insertelement <2 x double> undef, double %alpha, i32 0, !llfi_index !2357
  %broadcast.splat77 = shufflevector <2 x double> %broadcast.splatinsert76, <2 x double> undef, <2 x i32> zeroinitializer, !llfi_index !2358
  br label %vector.body42, !llfi_index !2359

vector.body42:                                    ; preds = %vector.body42, %vector.ph41
  %index45 = phi i64 [ 0, %vector.ph41 ], [ %index.next69, %vector.body42 ], !llfi_index !2360
  %55 = getelementptr inbounds double* %x, i64 %index45, !llfi_index !2361
  %56 = bitcast double* %55 to <2 x double>*, !llfi_index !2362
  %wide.load74 = load <2 x double>* %56, align 8, !llfi_index !2363
  %.sum122 = or i64 %index45, 2, !llfi_index !2364
  %57 = getelementptr double* %x, i64 %.sum122, !llfi_index !2365
  %58 = bitcast double* %57 to <2 x double>*, !llfi_index !2366
  %wide.load75 = load <2 x double>* %58, align 8, !llfi_index !2367
  %59 = fmul <2 x double> %wide.load74, %broadcast.splat77, !llfi_index !2368
  %60 = fmul <2 x double> %wide.load75, %broadcast.splat77, !llfi_index !2369
  %61 = getelementptr inbounds double* %y, i64 %index45, !llfi_index !2370
  %62 = bitcast double* %61 to <2 x double>*, !llfi_index !2371
  %wide.load78 = load <2 x double>* %62, align 8, !llfi_index !2372
  %.sum123 = or i64 %index45, 2, !llfi_index !2373
  %63 = getelementptr double* %y, i64 %.sum123, !llfi_index !2374
  %64 = bitcast double* %63 to <2 x double>*, !llfi_index !2375
  %wide.load79 = load <2 x double>* %64, align 8, !llfi_index !2376
  %65 = fadd <2 x double> %59, %wide.load78, !llfi_index !2377
  %66 = fadd <2 x double> %60, %wide.load79, !llfi_index !2378
  %67 = getelementptr inbounds double* %w, i64 %index45, !llfi_index !2379
  %68 = bitcast double* %67 to <2 x double>*, !llfi_index !2380
  store <2 x double> %65, <2 x double>* %68, align 8, !llfi_index !2381
  %.sum124 = or i64 %index45, 2, !llfi_index !2382
  %69 = getelementptr double* %w, i64 %.sum124, !llfi_index !2383
  %70 = bitcast double* %69 to <2 x double>*, !llfi_index !2384
  store <2 x double> %66, <2 x double>* %70, align 8, !llfi_index !2385
  %index.next69 = add i64 %index45, 4, !llfi_index !2386
  %71 = icmp eq i64 %index.next69, %n.vec48, !llfi_index !2387
  br i1 %71, label %middle.block43, label %vector.body42, !llvm.loop !2388, !llfi_index !2389

middle.block43:                                   ; preds = %vector.body42, %vector.memcheck65, %.lr.ph7.preheader
  %resume.val66 = phi i64 [ 0, %.lr.ph7.preheader ], [ 0, %vector.memcheck65 ], [ %n.vec48, %vector.body42 ], !llfi_index !2390
  %cmp.n68 = icmp eq i64 %end.idx46, %resume.val66, !llfi_index !2391
  br i1 %cmp.n68, label %.loopexit, label %.lr.ph7, !llfi_index !2392

.lr.ph7:                                          ; preds = %.lr.ph7, %middle.block43
  %indvars.iv12 = phi i64 [ %indvars.iv.next13, %.lr.ph7 ], [ %resume.val66, %middle.block43 ], !llfi_index !2393
  %72 = getelementptr inbounds double* %x, i64 %indvars.iv12, !llfi_index !2394
  %73 = load double* %72, align 8, !tbaa !9, !llfi_index !2395
  %74 = fmul double %73, %alpha, !llfi_index !2396
  %75 = getelementptr inbounds double* %y, i64 %indvars.iv12, !llfi_index !2397
  %76 = load double* %75, align 8, !tbaa !9, !llfi_index !2398
  %77 = fadd double %74, %76, !llfi_index !2399
  %78 = getelementptr inbounds double* %w, i64 %indvars.iv12, !llfi_index !2400
  store double %77, double* %78, align 8, !tbaa !9, !llfi_index !2401
  %indvars.iv.next13 = add nuw nsw i64 %indvars.iv12, 1, !llfi_index !2402
  %lftr.wideiv14 = trunc i64 %indvars.iv.next13 to i32, !llfi_index !2403
  %exitcond15 = icmp eq i32 %lftr.wideiv14, %n, !llfi_index !2404
  br i1 %exitcond15, label %.loopexit, label %.lr.ph7, !llvm.loop !2405, !llfi_index !2406

.lr.ph11:                                         ; preds = %.lr.ph11, %middle.block84
  %indvars.iv16 = phi i64 [ %indvars.iv.next17, %.lr.ph11 ], [ %resume.val107, %middle.block84 ], !llfi_index !2407
  %79 = getelementptr inbounds double* %x, i64 %indvars.iv16, !llfi_index !2408
  %80 = load double* %79, align 8, !tbaa !9, !llfi_index !2409
  %81 = fmul double %80, %alpha, !llfi_index !2410
  %82 = getelementptr inbounds double* %y, i64 %indvars.iv16, !llfi_index !2411
  %83 = load double* %82, align 8, !tbaa !9, !llfi_index !2412
  %84 = fmul double %83, %beta, !llfi_index !2413
  %85 = fadd double %81, %84, !llfi_index !2414
  %86 = getelementptr inbounds double* %w, i64 %indvars.iv16, !llfi_index !2415
  store double %85, double* %86, align 8, !tbaa !9, !llfi_index !2416
  %indvars.iv.next17 = add nuw nsw i64 %indvars.iv16, 1, !llfi_index !2417
  %lftr.wideiv18 = trunc i64 %indvars.iv.next17 to i32, !llfi_index !2418
  %exitcond19 = icmp eq i32 %lftr.wideiv18, %n, !llfi_index !2419
  br i1 %exitcond19, label %.loopexit, label %.lr.ph11, !llvm.loop !2420, !llfi_index !2421

.loopexit:                                        ; preds = %.lr.ph11, %.lr.ph7, %middle.block43, %.preheader4, %middle.block84, %.preheader8, %.lr.ph, %middle.block, %.preheader
  ret i32 0, !llfi_index !2422
}

; Function Attrs: nounwind uwtable
define double @_Z7mytimerv() #0 {
  %ruse = alloca %struct.rusage, align 8, !llfi_index !2423
  %1 = bitcast %struct.rusage* %ruse to i8*, !llfi_index !2424
  call void @llvm.lifetime.start(i64 144, i8* %1) #2, !llfi_index !2425
  %2 = call i32 @getrusage(i32 0, %struct.rusage* %ruse) #2, !llfi_index !2426
  %3 = getelementptr inbounds %struct.rusage* %ruse, i64 0, i32 0, i32 0, !llfi_index !2427
  %4 = load i64* %3, align 8, !tbaa !2428, !llfi_index !2431
  %5 = sitofp i64 %4 to double, !llfi_index !2432
  %6 = getelementptr inbounds %struct.rusage* %ruse, i64 0, i32 0, i32 1, !llfi_index !2433
  %7 = load i64* %6, align 8, !tbaa !2434, !llfi_index !2435
  %8 = sitofp i64 %7 to double, !llfi_index !2436
  %9 = fdiv double %8, 1.000000e+06, !llfi_index !2437
  %10 = fadd double %5, %9, !llfi_index !2438
  call void @llvm.lifetime.end(i64 144, i8* %1) #2, !llfi_index !2439
  ret double %10, !llfi_index !2440
}

; Function Attrs: nounwind
declare i32 @getrusage(i32, %struct.rusage*) #7

; Function Attrs: uwtable
define void @_ZN8YAML_DocC2ERKSsS1_S1_S1_(%class.YAML_Doc* %this, %"class.std::basic_string"* %miniApp_Name, %"class.std::basic_string"* %miniApp_Version, %"class.std::basic_string"* %destination_Directory, %"class.std::basic_string"* %destination_FileName) unnamed_addr #9 align 2 {
  %1 = alloca i32, align 4, !llfi_index !2441
  %2 = alloca %"class.std::allocator", align 1, !llfi_index !2442
  %3 = alloca i32, align 4, !llfi_index !2443
  %4 = alloca %"class.std::allocator", align 1, !llfi_index !2444
  %5 = alloca i32, align 4, !llfi_index !2445
  %6 = alloca %"class.std::allocator", align 1, !llfi_index !2446
  %7 = alloca i32, align 4, !llfi_index !2447
  %8 = alloca %"class.std::allocator", align 1, !llfi_index !2448
  %9 = getelementptr inbounds %class.YAML_Doc* %this, i64 0, i32 0, !llfi_index !2449
  call void @_ZN12YAML_ElementC2Ev(%class.YAML_Element* %9), !llfi_index !2450
  %10 = getelementptr inbounds %class.YAML_Doc* %this, i64 0, i32 1, !llfi_index !2451
  %11 = getelementptr inbounds %"class.std::basic_string"* %10, i64 0, i32 0, i32 0, !llfi_index !2452
  store i8* bitcast (i64* getelementptr inbounds ([0 x i64]* @_ZNSs4_Rep20_S_empty_rep_storageE, i64 0, i64 3) to i8*), i8** %11, align 8, !tbaa !2453, !llfi_index !2454
  %12 = getelementptr inbounds %class.YAML_Doc* %this, i64 0, i32 2, !llfi_index !2455
  %13 = getelementptr inbounds %"class.std::basic_string"* %12, i64 0, i32 0, i32 0, !llfi_index !2456
  store i8* bitcast (i64* getelementptr inbounds ([0 x i64]* @_ZNSs4_Rep20_S_empty_rep_storageE, i64 0, i64 3) to i8*), i8** %13, align 8, !tbaa !2453, !llfi_index !2457
  %14 = getelementptr inbounds %class.YAML_Doc* %this, i64 0, i32 3, !llfi_index !2458
  %15 = getelementptr inbounds %"class.std::basic_string"* %14, i64 0, i32 0, i32 0, !llfi_index !2459
  store i8* bitcast (i64* getelementptr inbounds ([0 x i64]* @_ZNSs4_Rep20_S_empty_rep_storageE, i64 0, i64 3) to i8*), i8** %15, align 8, !tbaa !2453, !llfi_index !2460
  %16 = getelementptr inbounds %class.YAML_Doc* %this, i64 0, i32 4, !llfi_index !2461
  %17 = getelementptr inbounds %"class.std::basic_string"* %16, i64 0, i32 0, i32 0, !llfi_index !2462
  store i8* bitcast (i64* getelementptr inbounds ([0 x i64]* @_ZNSs4_Rep20_S_empty_rep_storageE, i64 0, i64 3) to i8*), i8** %17, align 8, !tbaa !2453, !llfi_index !2463
